ARM GAS  /var/folders/b5/3l92j93d5t1__l78tfntmwyr0000gn/T//ccqKg67w.s 			page 1


   1              		.cpu cortex-m7
   2              		.arch armv7e-m
   3              		.fpu fpv5-d16
   4              		.eabi_attribute 28, 1
   5              		.eabi_attribute 20, 1
   6              		.eabi_attribute 21, 1
   7              		.eabi_attribute 23, 3
   8              		.eabi_attribute 24, 1
   9              		.eabi_attribute 25, 1
  10              		.eabi_attribute 26, 1
  11              		.eabi_attribute 30, 2
  12              		.eabi_attribute 34, 1
  13              		.eabi_attribute 18, 4
  14              		.file	"MachineDaisyFile.cpp"
  15              		.text
  16              	.Ltext0:
  17              		.cfi_sections	.debug_frame
  18              		.section	.text._ZN5daisy9AdcHandleD2Ev,"axG",%progbits,_ZN5daisy9AdcHandleD5Ev,comdat
  19              		.align	1
  20              		.p2align 2,,3
  21              		.weak	_ZN5daisy9AdcHandleD2Ev
  22              		.syntax unified
  23              		.thumb
  24              		.thumb_func
  26              	_ZN5daisy9AdcHandleD2Ev:
  27              	.LVL0:
  28              	.LFB671:
  29              		.file 1 "../../DaisyExamples/libDaisy//src/per/adc.h"
   1:../../DaisyExamples/libDaisy//src/per/adc.h **** #pragma once
   2:../../DaisyExamples/libDaisy//src/per/adc.h **** #ifndef DSY_ADC_H
   3:../../DaisyExamples/libDaisy//src/per/adc.h **** #define DSY_ADC_H /**< Macro */
   4:../../DaisyExamples/libDaisy//src/per/adc.h **** #include <stdint.h>
   5:../../DaisyExamples/libDaisy//src/per/adc.h **** #include <stdlib.h>
   6:../../DaisyExamples/libDaisy//src/per/adc.h **** #include "daisy_core.h"
   7:../../DaisyExamples/libDaisy//src/per/adc.h **** #include "per/gpio.h"
   8:../../DaisyExamples/libDaisy//src/per/adc.h **** 
   9:../../DaisyExamples/libDaisy//src/per/adc.h **** #define DSY_ADC_MAX_CHANNELS 16 /**< Maximum number of ADC channels */
  10:../../DaisyExamples/libDaisy//src/per/adc.h **** 
  11:../../DaisyExamples/libDaisy//src/per/adc.h **** namespace daisy
  12:../../DaisyExamples/libDaisy//src/per/adc.h **** {
  13:../../DaisyExamples/libDaisy//src/per/adc.h **** /** @addtogroup per_analog
  14:../../DaisyExamples/libDaisy//src/per/adc.h ****     @{
  15:../../DaisyExamples/libDaisy//src/per/adc.h **** */
  16:../../DaisyExamples/libDaisy//src/per/adc.h **** 
  17:../../DaisyExamples/libDaisy//src/per/adc.h **** /* While there may not be many configuration options here,
  18:../../DaisyExamples/libDaisy//src/per/adc.h **** using a struct like this allows us to add more configuration
  19:../../DaisyExamples/libDaisy//src/per/adc.h **** later without breaking existing functionality.
  20:../../DaisyExamples/libDaisy//src/per/adc.h **** */
  21:../../DaisyExamples/libDaisy//src/per/adc.h **** 
  22:../../DaisyExamples/libDaisy//src/per/adc.h **** /** @brief   Configuration Structure for an ADC Channel 
  23:../../DaisyExamples/libDaisy//src/per/adc.h ****  *  @details This can be used to configure a a single input, 
  24:../../DaisyExamples/libDaisy//src/per/adc.h ****  *           or a multiplexed input, allowing up to 8 inputs on 
  25:../../DaisyExamples/libDaisy//src/per/adc.h ****  *           one channel.
  26:../../DaisyExamples/libDaisy//src/per/adc.h ****  *  @note    Sharing data lines to multiple muxes _is_ possible, but
  27:../../DaisyExamples/libDaisy//src/per/adc.h ****  *           each channel sharing data lines must be set to the maximum
  28:../../DaisyExamples/libDaisy//src/per/adc.h ****  *           number of channels, even if some multiplexers have fewer
  29:../../DaisyExamples/libDaisy//src/per/adc.h ****  *           inputs connected.
ARM GAS  /var/folders/b5/3l92j93d5t1__l78tfntmwyr0000gn/T//ccqKg67w.s 			page 2


  30:../../DaisyExamples/libDaisy//src/per/adc.h **** */
  31:../../DaisyExamples/libDaisy//src/per/adc.h **** struct AdcChannelConfig
  32:../../DaisyExamples/libDaisy//src/per/adc.h **** {
  33:../../DaisyExamples/libDaisy//src/per/adc.h ****     /** Which pin to use for multiplexing */
  34:../../DaisyExamples/libDaisy//src/per/adc.h ****     enum MuxPin
  35:../../DaisyExamples/libDaisy//src/per/adc.h ****     {
  36:../../DaisyExamples/libDaisy//src/per/adc.h ****         MUX_SEL_0,    /**< & */
  37:../../DaisyExamples/libDaisy//src/per/adc.h ****         MUX_SEL_1,    /**< & */
  38:../../DaisyExamples/libDaisy//src/per/adc.h ****         MUX_SEL_2,    /**< & */
  39:../../DaisyExamples/libDaisy//src/per/adc.h ****         MUX_SEL_LAST, /**< & */
  40:../../DaisyExamples/libDaisy//src/per/adc.h ****     };
  41:../../DaisyExamples/libDaisy//src/per/adc.h **** 
  42:../../DaisyExamples/libDaisy//src/per/adc.h ****     /** Initializes a single ADC pin as an ADC. 
  43:../../DaisyExamples/libDaisy//src/per/adc.h ****     \param pin Pin to init.
  44:../../DaisyExamples/libDaisy//src/per/adc.h ****      */
  45:../../DaisyExamples/libDaisy//src/per/adc.h ****     void InitSingle(dsy_gpio_pin pin);
  46:../../DaisyExamples/libDaisy//src/per/adc.h **** 
  47:../../DaisyExamples/libDaisy//src/per/adc.h ****     /** 
  48:../../DaisyExamples/libDaisy//src/per/adc.h ****     Initializes a single ADC pin as a Multiplexed ADC.
  49:../../DaisyExamples/libDaisy//src/per/adc.h ****     Requires a CD405X Multiplexer connected to the pin.
  50:../../DaisyExamples/libDaisy//src/per/adc.h ****     You only need to supply the mux pins that are required,
  51:../../DaisyExamples/libDaisy//src/per/adc.h ****     e.g. a 4052 mux would only require mux_0 and mux_1.
  52:../../DaisyExamples/libDaisy//src/per/adc.h ****     Internal Callbacks handle the pin addressing.
  53:../../DaisyExamples/libDaisy//src/per/adc.h ****     \param mux_channels must be 1-8
  54:../../DaisyExamples/libDaisy//src/per/adc.h ****     \param mux_0 First mux pin
  55:../../DaisyExamples/libDaisy//src/per/adc.h ****     \param mux_1 Second mux pin
  56:../../DaisyExamples/libDaisy//src/per/adc.h ****     \param mux_2 Third mux pin
  57:../../DaisyExamples/libDaisy//src/per/adc.h ****     \param adc_pin &
  58:../../DaisyExamples/libDaisy//src/per/adc.h ****     */
  59:../../DaisyExamples/libDaisy//src/per/adc.h ****     void InitMux(dsy_gpio_pin adc_pin,
  60:../../DaisyExamples/libDaisy//src/per/adc.h ****                  size_t       mux_channels,
  61:../../DaisyExamples/libDaisy//src/per/adc.h ****                  dsy_gpio_pin mux_0,
  62:../../DaisyExamples/libDaisy//src/per/adc.h ****                  dsy_gpio_pin mux_1 = {DSY_GPIOX, 0},
  63:../../DaisyExamples/libDaisy//src/per/adc.h ****                  dsy_gpio_pin mux_2 = {DSY_GPIOX, 0});
  64:../../DaisyExamples/libDaisy//src/per/adc.h **** 
  65:../../DaisyExamples/libDaisy//src/per/adc.h ****     dsy_gpio pin_;                   /**< & */
  66:../../DaisyExamples/libDaisy//src/per/adc.h ****     dsy_gpio mux_pin_[MUX_SEL_LAST]; /**< & */
  67:../../DaisyExamples/libDaisy//src/per/adc.h ****     uint8_t  mux_channels_;          /**< & */
  68:../../DaisyExamples/libDaisy//src/per/adc.h **** };
  69:../../DaisyExamples/libDaisy//src/per/adc.h **** 
  70:../../DaisyExamples/libDaisy//src/per/adc.h **** /**
  71:../../DaisyExamples/libDaisy//src/per/adc.h ****    @brief Handler for analog to digital conversion
  72:../../DaisyExamples/libDaisy//src/per/adc.h **** */
  73:../../DaisyExamples/libDaisy//src/per/adc.h **** class AdcHandle
  74:../../DaisyExamples/libDaisy//src/per/adc.h **** {
  75:../../DaisyExamples/libDaisy//src/per/adc.h ****   public:
  76:../../DaisyExamples/libDaisy//src/per/adc.h ****     /** Supported oversampling amounts */
  77:../../DaisyExamples/libDaisy//src/per/adc.h ****     enum OverSampling
  78:../../DaisyExamples/libDaisy//src/per/adc.h ****     {
  79:../../DaisyExamples/libDaisy//src/per/adc.h ****         OVS_NONE, /**< & */
  80:../../DaisyExamples/libDaisy//src/per/adc.h ****         OVS_4,    /**< & */
  81:../../DaisyExamples/libDaisy//src/per/adc.h ****         OVS_8,    /**< & */
  82:../../DaisyExamples/libDaisy//src/per/adc.h ****         OVS_16,   /**< & */
  83:../../DaisyExamples/libDaisy//src/per/adc.h ****         OVS_32,   /**< & */
  84:../../DaisyExamples/libDaisy//src/per/adc.h ****         OVS_64,   /**< & */
  85:../../DaisyExamples/libDaisy//src/per/adc.h ****         OVS_128,  /**< & */
  86:../../DaisyExamples/libDaisy//src/per/adc.h ****         OVS_256,  /**< & */
ARM GAS  /var/folders/b5/3l92j93d5t1__l78tfntmwyr0000gn/T//ccqKg67w.s 			page 3


  87:../../DaisyExamples/libDaisy//src/per/adc.h ****         OVS_512,  /**< & */
  88:../../DaisyExamples/libDaisy//src/per/adc.h ****         OVS_1024, /**< & */
  89:../../DaisyExamples/libDaisy//src/per/adc.h ****         OVS_LAST, /**< & */
  90:../../DaisyExamples/libDaisy//src/per/adc.h ****     };
  91:../../DaisyExamples/libDaisy//src/per/adc.h **** 
  92:../../DaisyExamples/libDaisy//src/per/adc.h ****     AdcHandle() {}
  93:../../DaisyExamples/libDaisy//src/per/adc.h ****     ~AdcHandle() {}
  30              		.loc 1 93 5 view -0
  31              		.cfi_startproc
  32              		@ args = 0, pretend = 0, frame = 0
  33              		@ frame_needed = 0, uses_anonymous_args = 0
  34              		@ link register save eliminated.
  35              		.loc 1 93 19 is_stmt 0 view .LVU1
  36 0000 7047     		bx	lr
  37              		.cfi_endproc
  38              	.LFE671:
  40              		.weak	_ZN5daisy9AdcHandleD1Ev
  41              		.thumb_set _ZN5daisy9AdcHandleD1Ev,_ZN5daisy9AdcHandleD2Ev
  42 0002 00BF     		.section	.text._ZN5daisy6SwitchD2Ev,"axG",%progbits,_ZN5daisy6SwitchD5Ev,comdat
  43              		.align	1
  44              		.p2align 2,,3
  45              		.weak	_ZN5daisy6SwitchD2Ev
  46              		.syntax unified
  47              		.thumb
  48              		.thumb_func
  50              	_ZN5daisy6SwitchD2Ev:
  51              	.LVL1:
  52              	.LFB1606:
  53              		.file 2 "../../DaisyExamples/libDaisy//src/hid/switch.h"
   1:../../DaisyExamples/libDaisy//src/hid/switch.h **** #pragma once
   2:../../DaisyExamples/libDaisy//src/hid/switch.h **** #ifndef DSY_SWITCH_H
   3:../../DaisyExamples/libDaisy//src/hid/switch.h **** #define DSY_SWITCH_H
   4:../../DaisyExamples/libDaisy//src/hid/switch.h **** #include "daisy_core.h"
   5:../../DaisyExamples/libDaisy//src/hid/switch.h **** #include "per/gpio.h"
   6:../../DaisyExamples/libDaisy//src/hid/switch.h **** #include "sys/system.h"
   7:../../DaisyExamples/libDaisy//src/hid/switch.h **** 
   8:../../DaisyExamples/libDaisy//src/hid/switch.h **** namespace daisy
   9:../../DaisyExamples/libDaisy//src/hid/switch.h **** {
  10:../../DaisyExamples/libDaisy//src/hid/switch.h **** /** 
  11:../../DaisyExamples/libDaisy//src/hid/switch.h ****     Generic Class for handling momentary/latching switches \n 
  12:../../DaisyExamples/libDaisy//src/hid/switch.h ****     Inspired/influenced by Mutable Instruments (pichenettes) Switch classes
  13:../../DaisyExamples/libDaisy//src/hid/switch.h ****     @author Stephen Hensley
  14:../../DaisyExamples/libDaisy//src/hid/switch.h ****     @date December 2019
  15:../../DaisyExamples/libDaisy//src/hid/switch.h ****     @ingroup controls
  16:../../DaisyExamples/libDaisy//src/hid/switch.h **** */
  17:../../DaisyExamples/libDaisy//src/hid/switch.h **** class Switch
  18:../../DaisyExamples/libDaisy//src/hid/switch.h **** {
  19:../../DaisyExamples/libDaisy//src/hid/switch.h ****   public:
  20:../../DaisyExamples/libDaisy//src/hid/switch.h ****     /** Specifies the expected behavior of the switch */
  21:../../DaisyExamples/libDaisy//src/hid/switch.h ****     enum Type
  22:../../DaisyExamples/libDaisy//src/hid/switch.h ****     {
  23:../../DaisyExamples/libDaisy//src/hid/switch.h ****         TYPE_TOGGLE,    /**< & */
  24:../../DaisyExamples/libDaisy//src/hid/switch.h ****         TYPE_MOMENTARY, /**< & */
  25:../../DaisyExamples/libDaisy//src/hid/switch.h ****     };
  26:../../DaisyExamples/libDaisy//src/hid/switch.h ****     /** Specifies whether the pressed is HIGH or LOW. */
  27:../../DaisyExamples/libDaisy//src/hid/switch.h ****     enum Polarity
  28:../../DaisyExamples/libDaisy//src/hid/switch.h ****     {
ARM GAS  /var/folders/b5/3l92j93d5t1__l78tfntmwyr0000gn/T//ccqKg67w.s 			page 4


  29:../../DaisyExamples/libDaisy//src/hid/switch.h ****         POLARITY_NORMAL,   /**< & */
  30:../../DaisyExamples/libDaisy//src/hid/switch.h ****         POLARITY_INVERTED, /**< & */
  31:../../DaisyExamples/libDaisy//src/hid/switch.h ****     };
  32:../../DaisyExamples/libDaisy//src/hid/switch.h **** 
  33:../../DaisyExamples/libDaisy//src/hid/switch.h ****     /** Specifies whether to use built-in Pull Up/Down resistors to hold button at a given state wh
  34:../../DaisyExamples/libDaisy//src/hid/switch.h ****     enum Pull
  35:../../DaisyExamples/libDaisy//src/hid/switch.h ****     {
  36:../../DaisyExamples/libDaisy//src/hid/switch.h ****         PULL_UP,   /**< & */
  37:../../DaisyExamples/libDaisy//src/hid/switch.h ****         PULL_DOWN, /**< & */
  38:../../DaisyExamples/libDaisy//src/hid/switch.h ****         PULL_NONE, /**< & */
  39:../../DaisyExamples/libDaisy//src/hid/switch.h ****     };
  40:../../DaisyExamples/libDaisy//src/hid/switch.h **** 
  41:../../DaisyExamples/libDaisy//src/hid/switch.h ****     Switch() {}
  42:../../DaisyExamples/libDaisy//src/hid/switch.h ****     ~Switch() {}
  54              		.loc 2 42 5 is_stmt 1 view -0
  55              		.cfi_startproc
  56              		@ args = 0, pretend = 0, frame = 0
  57              		@ frame_needed = 0, uses_anonymous_args = 0
  58              		@ link register save eliminated.
  59              		.loc 2 42 16 is_stmt 0 view .LVU3
  60 0000 7047     		bx	lr
  61              		.cfi_endproc
  62              	.LFE1606:
  64              		.weak	_ZN5daisy6SwitchD1Ev
  65              		.thumb_set _ZN5daisy6SwitchD1Ev,_ZN5daisy6SwitchD2Ev
  66 0002 00BF     		.section	.text._ZN5daisy9DaisySeedD2Ev,"axG",%progbits,_ZN5daisy9DaisySeedD5Ev,comdat
  67              		.align	1
  68              		.p2align 2,,3
  69              		.weak	_ZN5daisy9DaisySeedD2Ev
  70              		.syntax unified
  71              		.thumb
  72              		.thumb_func
  74              	_ZN5daisy9DaisySeedD2Ev:
  75              	.LVL2:
  76              	.LFB2529:
  77              		.file 3 "../../DaisyExamples/libDaisy//src/daisy_seed.h"
   1:../../DaisyExamples/libDaisy//src/daisy_seed.h **** #pragma once
   2:../../DaisyExamples/libDaisy//src/daisy_seed.h **** #ifndef DSY_SEED_H
   3:../../DaisyExamples/libDaisy//src/daisy_seed.h **** #define DSY_SEED_H
   4:../../DaisyExamples/libDaisy//src/daisy_seed.h **** 
   5:../../DaisyExamples/libDaisy//src/daisy_seed.h **** #include "daisy.h"
   6:../../DaisyExamples/libDaisy//src/daisy_seed.h **** 
   7:../../DaisyExamples/libDaisy//src/daisy_seed.h **** //Uncomment this out if you're still using the rev2 hardware
   8:../../DaisyExamples/libDaisy//src/daisy_seed.h **** //#define SEED_REV2
   9:../../DaisyExamples/libDaisy//src/daisy_seed.h **** 
  10:../../DaisyExamples/libDaisy//src/daisy_seed.h **** namespace daisy
  11:../../DaisyExamples/libDaisy//src/daisy_seed.h **** {
  12:../../DaisyExamples/libDaisy//src/daisy_seed.h **** /**
  13:../../DaisyExamples/libDaisy//src/daisy_seed.h ****    @brief This is the higher-level interface for the Daisy board. \n 
  14:../../DaisyExamples/libDaisy//src/daisy_seed.h ****     All basic peripheral configuration/initialization is setup here. \n
  15:../../DaisyExamples/libDaisy//src/daisy_seed.h **** 
  16:../../DaisyExamples/libDaisy//src/daisy_seed.h ****    @ingroup boards
  17:../../DaisyExamples/libDaisy//src/daisy_seed.h **** */
  18:../../DaisyExamples/libDaisy//src/daisy_seed.h **** class DaisySeed
  19:../../DaisyExamples/libDaisy//src/daisy_seed.h **** {
  20:../../DaisyExamples/libDaisy//src/daisy_seed.h ****   public:
  21:../../DaisyExamples/libDaisy//src/daisy_seed.h ****     DaisySeed() {}
ARM GAS  /var/folders/b5/3l92j93d5t1__l78tfntmwyr0000gn/T//ccqKg67w.s 			page 5


  22:../../DaisyExamples/libDaisy//src/daisy_seed.h ****     ~DaisySeed() {}
  78              		.loc 3 22 5 is_stmt 1 view -0
  79              		.cfi_startproc
  80              		@ args = 0, pretend = 0, frame = 0
  81              		@ frame_needed = 0, uses_anonymous_args = 0
  82              		@ link register save eliminated.
  83              	.LBB381:
  84              	.LBI381:
  85              		.file 4 "../../DaisyExamples/libDaisy//src/sys/system.h"
   1:../../DaisyExamples/libDaisy//src/sys/system.h **** #ifndef DSY_SYSTEM_H
   2:../../DaisyExamples/libDaisy//src/sys/system.h **** #define DSY_SYSTEM_H
   3:../../DaisyExamples/libDaisy//src/sys/system.h **** 
   4:../../DaisyExamples/libDaisy//src/sys/system.h **** #ifndef UNIT_TEST // for unit tests, a dummy implementation is provided below
   5:../../DaisyExamples/libDaisy//src/sys/system.h **** 
   6:../../DaisyExamples/libDaisy//src/sys/system.h **** #include <cstdint>
   7:../../DaisyExamples/libDaisy//src/sys/system.h **** #include "per/tim.h"
   8:../../DaisyExamples/libDaisy//src/sys/system.h **** 
   9:../../DaisyExamples/libDaisy//src/sys/system.h **** namespace daisy
  10:../../DaisyExamples/libDaisy//src/sys/system.h **** {
  11:../../DaisyExamples/libDaisy//src/sys/system.h **** /** A handle for interacting with the Core System. 
  12:../../DaisyExamples/libDaisy//src/sys/system.h ****  ** This includes the Clock tree, MPU, global DMA initialization,
  13:../../DaisyExamples/libDaisy//src/sys/system.h ****  ** cache handling, and any other necessary global initiailzation
  14:../../DaisyExamples/libDaisy//src/sys/system.h ****  **
  15:../../DaisyExamples/libDaisy//src/sys/system.h ****  ** @author shensley
  16:../../DaisyExamples/libDaisy//src/sys/system.h ****  ** @ingroup system
  17:../../DaisyExamples/libDaisy//src/sys/system.h ****  */
  18:../../DaisyExamples/libDaisy//src/sys/system.h **** class System
  19:../../DaisyExamples/libDaisy//src/sys/system.h **** {
  20:../../DaisyExamples/libDaisy//src/sys/system.h ****   public:
  21:../../DaisyExamples/libDaisy//src/sys/system.h ****     /** Contains settings for initializing the System */
  22:../../DaisyExamples/libDaisy//src/sys/system.h ****     struct Config
  23:../../DaisyExamples/libDaisy//src/sys/system.h ****     {
  24:../../DaisyExamples/libDaisy//src/sys/system.h ****         /** Specifies the system clock frequency that feeds APB/AHB clocks, etc. */
  25:../../DaisyExamples/libDaisy//src/sys/system.h ****         enum class SysClkFreq
  26:../../DaisyExamples/libDaisy//src/sys/system.h ****         {
  27:../../DaisyExamples/libDaisy//src/sys/system.h ****             FREQ_400MHZ,
  28:../../DaisyExamples/libDaisy//src/sys/system.h ****             FREQ_480MHZ,
  29:../../DaisyExamples/libDaisy//src/sys/system.h ****         };
  30:../../DaisyExamples/libDaisy//src/sys/system.h **** 
  31:../../DaisyExamples/libDaisy//src/sys/system.h ****         /** Method to call on the struct to set to defaults
  32:../../DaisyExamples/libDaisy//src/sys/system.h ****          ** CPU Freq set to 400MHz
  33:../../DaisyExamples/libDaisy//src/sys/system.h ****          ** Cache Enabled 
  34:../../DaisyExamples/libDaisy//src/sys/system.h ****          ** */
  35:../../DaisyExamples/libDaisy//src/sys/system.h ****         void Defaults()
  36:../../DaisyExamples/libDaisy//src/sys/system.h ****         {
  37:../../DaisyExamples/libDaisy//src/sys/system.h ****             cpu_freq    = SysClkFreq::FREQ_400MHZ;
  38:../../DaisyExamples/libDaisy//src/sys/system.h ****             use_dcache  = true;
  39:../../DaisyExamples/libDaisy//src/sys/system.h ****             use_icache  = true;
  40:../../DaisyExamples/libDaisy//src/sys/system.h ****             skip_clocks = false;
  41:../../DaisyExamples/libDaisy//src/sys/system.h ****         }
  42:../../DaisyExamples/libDaisy//src/sys/system.h **** 
  43:../../DaisyExamples/libDaisy//src/sys/system.h ****         /** Method to call on the struct to set to boost mode:
  44:../../DaisyExamples/libDaisy//src/sys/system.h ****          ** CPU Freq set to 480MHz
  45:../../DaisyExamples/libDaisy//src/sys/system.h ****          ** Cache Enabled 
  46:../../DaisyExamples/libDaisy//src/sys/system.h ****          ** */
  47:../../DaisyExamples/libDaisy//src/sys/system.h ****         void Boost()
  48:../../DaisyExamples/libDaisy//src/sys/system.h ****         {
ARM GAS  /var/folders/b5/3l92j93d5t1__l78tfntmwyr0000gn/T//ccqKg67w.s 			page 6


  49:../../DaisyExamples/libDaisy//src/sys/system.h ****             cpu_freq    = SysClkFreq::FREQ_480MHZ;
  50:../../DaisyExamples/libDaisy//src/sys/system.h ****             use_dcache  = true;
  51:../../DaisyExamples/libDaisy//src/sys/system.h ****             use_icache  = true;
  52:../../DaisyExamples/libDaisy//src/sys/system.h ****             skip_clocks = false;
  53:../../DaisyExamples/libDaisy//src/sys/system.h ****         }
  54:../../DaisyExamples/libDaisy//src/sys/system.h **** 
  55:../../DaisyExamples/libDaisy//src/sys/system.h ****         SysClkFreq cpu_freq;
  56:../../DaisyExamples/libDaisy//src/sys/system.h ****         bool       use_dcache;
  57:../../DaisyExamples/libDaisy//src/sys/system.h ****         bool       use_icache;
  58:../../DaisyExamples/libDaisy//src/sys/system.h ****         bool       skip_clocks;
  59:../../DaisyExamples/libDaisy//src/sys/system.h ****     };
  60:../../DaisyExamples/libDaisy//src/sys/system.h **** 
  61:../../DaisyExamples/libDaisy//src/sys/system.h ****     /** Describes the different regions of memory available to the Daisy
  62:../../DaisyExamples/libDaisy//src/sys/system.h ****      * 
  63:../../DaisyExamples/libDaisy//src/sys/system.h ****      */
  64:../../DaisyExamples/libDaisy//src/sys/system.h ****     enum MemoryRegion
  65:../../DaisyExamples/libDaisy//src/sys/system.h ****     {
  66:../../DaisyExamples/libDaisy//src/sys/system.h ****         INTERNAL_FLASH = 0,
  67:../../DaisyExamples/libDaisy//src/sys/system.h ****         ITCMRAM,
  68:../../DaisyExamples/libDaisy//src/sys/system.h ****         DTCMRAM,
  69:../../DaisyExamples/libDaisy//src/sys/system.h ****         SRAM_D1,
  70:../../DaisyExamples/libDaisy//src/sys/system.h ****         SRAM_D2,
  71:../../DaisyExamples/libDaisy//src/sys/system.h ****         SRAM_D3,
  72:../../DaisyExamples/libDaisy//src/sys/system.h ****         SDRAM,
  73:../../DaisyExamples/libDaisy//src/sys/system.h ****         QSPI,
  74:../../DaisyExamples/libDaisy//src/sys/system.h ****         INVALID_ADDRESS,
  75:../../DaisyExamples/libDaisy//src/sys/system.h ****     };
  76:../../DaisyExamples/libDaisy//src/sys/system.h **** 
  77:../../DaisyExamples/libDaisy//src/sys/system.h ****     System() {}
  78:../../DaisyExamples/libDaisy//src/sys/system.h ****     ~System() {}
  86              		.loc 4 78 5 view .LVU5
  87              		.loc 4 78 5 is_stmt 0 view .LVU6
  88              	.LBE381:
  89              	.LBB382:
  90              	.LBI382:
  91              		.file 5 "../../DaisyExamples/libDaisy//src/hid/usb.h"
   1:../../DaisyExamples/libDaisy//src/hid/usb.h **** #pragma once
   2:../../DaisyExamples/libDaisy//src/hid/usb.h **** #ifndef DSY_HID_USB_H
   3:../../DaisyExamples/libDaisy//src/hid/usb.h **** #define DSY_HID_USB_H
   4:../../DaisyExamples/libDaisy//src/hid/usb.h **** #include <stdint.h>
   5:../../DaisyExamples/libDaisy//src/hid/usb.h **** #include <stdlib.h>
   6:../../DaisyExamples/libDaisy//src/hid/usb.h **** 
   7:../../DaisyExamples/libDaisy//src/hid/usb.h **** namespace daisy
   8:../../DaisyExamples/libDaisy//src/hid/usb.h **** /** @addtogroup human_interface
   9:../../DaisyExamples/libDaisy//src/hid/usb.h ****     @{
  10:../../DaisyExamples/libDaisy//src/hid/usb.h **** */
  11:../../DaisyExamples/libDaisy//src/hid/usb.h **** 
  12:../../DaisyExamples/libDaisy//src/hid/usb.h **** {
  13:../../DaisyExamples/libDaisy//src/hid/usb.h **** /** 
  14:../../DaisyExamples/libDaisy//src/hid/usb.h ****     @brief Interface for initializing and using the USB Peripherals on the daisy
  15:../../DaisyExamples/libDaisy//src/hid/usb.h ****     @author Stephen Hensley
  16:../../DaisyExamples/libDaisy//src/hid/usb.h ****     @date December 2019
  17:../../DaisyExamples/libDaisy//src/hid/usb.h **** */
  18:../../DaisyExamples/libDaisy//src/hid/usb.h **** class UsbHandle
  19:../../DaisyExamples/libDaisy//src/hid/usb.h **** {
  20:../../DaisyExamples/libDaisy//src/hid/usb.h ****   public:
  21:../../DaisyExamples/libDaisy//src/hid/usb.h ****     /** Return values for USBHandle Functions */
ARM GAS  /var/folders/b5/3l92j93d5t1__l78tfntmwyr0000gn/T//ccqKg67w.s 			page 7


  22:../../DaisyExamples/libDaisy//src/hid/usb.h ****     enum class Result
  23:../../DaisyExamples/libDaisy//src/hid/usb.h ****     {
  24:../../DaisyExamples/libDaisy//src/hid/usb.h ****         OK,
  25:../../DaisyExamples/libDaisy//src/hid/usb.h ****         ERR,
  26:../../DaisyExamples/libDaisy//src/hid/usb.h ****     };
  27:../../DaisyExamples/libDaisy//src/hid/usb.h **** 
  28:../../DaisyExamples/libDaisy//src/hid/usb.h ****     /** Specified which of the two USB Peripherals to initialize. */
  29:../../DaisyExamples/libDaisy//src/hid/usb.h ****     enum UsbPeriph
  30:../../DaisyExamples/libDaisy//src/hid/usb.h ****     {
  31:../../DaisyExamples/libDaisy//src/hid/usb.h ****         FS_INTERNAL, /**< Internal pin */
  32:../../DaisyExamples/libDaisy//src/hid/usb.h ****         FS_EXTERNAL, /**< FS External D+ pin is Pin 38 (GPIO32). FS External D- pin is Pin 37 (GPIO
  33:../../DaisyExamples/libDaisy//src/hid/usb.h ****         FS_BOTH,     /**< Both */
  34:../../DaisyExamples/libDaisy//src/hid/usb.h ****     };
  35:../../DaisyExamples/libDaisy//src/hid/usb.h **** 
  36:../../DaisyExamples/libDaisy//src/hid/usb.h **** 
  37:../../DaisyExamples/libDaisy//src/hid/usb.h ****     /** Function called upon reception of a buffer */
  38:../../DaisyExamples/libDaisy//src/hid/usb.h ****     typedef void (*ReceiveCallback)(uint8_t* buff, uint32_t* len);
  39:../../DaisyExamples/libDaisy//src/hid/usb.h **** 
  40:../../DaisyExamples/libDaisy//src/hid/usb.h ****     UsbHandle() {}
  41:../../DaisyExamples/libDaisy//src/hid/usb.h **** 
  42:../../DaisyExamples/libDaisy//src/hid/usb.h ****     ~UsbHandle() {}
  92              		.loc 5 42 5 is_stmt 1 view .LVU7
  93              		.loc 5 42 5 is_stmt 0 view .LVU8
  94              	.LBE382:
  95              	.LBB383:
  96              	.LBI383:
  97              		.loc 1 93 5 is_stmt 1 view .LVU9
  98              		.loc 1 93 5 is_stmt 0 view .LVU10
  99              	.LBE383:
 100              	.LBB384:
 101              	.LBI384:
 102              		.file 6 "../../DaisyExamples/libDaisy//src/hid/audio.h"
   1:../../DaisyExamples/libDaisy//src/hid/audio.h **** #ifndef DSY_AUDIO_H
   2:../../DaisyExamples/libDaisy//src/hid/audio.h **** #define DSY_AUDIO_H /**< & */
   3:../../DaisyExamples/libDaisy//src/hid/audio.h **** 
   4:../../DaisyExamples/libDaisy//src/hid/audio.h **** #include "per/sai.h"
   5:../../DaisyExamples/libDaisy//src/hid/audio.h **** 
   6:../../DaisyExamples/libDaisy//src/hid/audio.h **** namespace daisy
   7:../../DaisyExamples/libDaisy//src/hid/audio.h **** {
   8:../../DaisyExamples/libDaisy//src/hid/audio.h **** /** @brief Audio Engine Handle
   9:../../DaisyExamples/libDaisy//src/hid/audio.h ****  *  @ingroup audio 
  10:../../DaisyExamples/libDaisy//src/hid/audio.h ****  *  @details This class allows for higher level access to an audio engine.
  11:../../DaisyExamples/libDaisy//src/hid/audio.h ****  *           If you're using a SOM like the DaisySeed or DaisyPatchSM (or any 
  12:../../DaisyExamples/libDaisy//src/hid/audio.h ****  *            board that includes one of those objects) then the intialization
  13:../../DaisyExamples/libDaisy//src/hid/audio.h ****  *            is already taken  care of.
  14:../../DaisyExamples/libDaisy//src/hid/audio.h ****  *           If you're setting up your own custom hardware, or need to make changes
  15:../../DaisyExamples/libDaisy//src/hid/audio.h ****  *           you will have to take the following steps:
  16:../../DaisyExamples/libDaisy//src/hid/audio.h ****  *             1. Create and Initialize an SaiHandle or two depending on your requirements
  17:../../DaisyExamples/libDaisy//src/hid/audio.h ****  *             2. Initialize the Audio Handle with the desired settings and the Initialized SaiHand
  18:../../DaisyExamples/libDaisy//src/hid/audio.h ****  *             3. If the connected codec requires special configuration or initialization, do so
  19:../../DaisyExamples/libDaisy//src/hid/audio.h ****  *             4. Write a callback method using either the AudioCallback or the InterleavingAudioCa
  20:../../DaisyExamples/libDaisy//src/hid/audio.h ****  *             5. Start the Audio using one of the StartAudio function
  21:../../DaisyExamples/libDaisy//src/hid/audio.h ****  */
  22:../../DaisyExamples/libDaisy//src/hid/audio.h **** class AudioHandle
  23:../../DaisyExamples/libDaisy//src/hid/audio.h **** {
  24:../../DaisyExamples/libDaisy//src/hid/audio.h ****   public:
  25:../../DaisyExamples/libDaisy//src/hid/audio.h ****     /** Manually configurable details about the Audio Engine */
ARM GAS  /var/folders/b5/3l92j93d5t1__l78tfntmwyr0000gn/T//ccqKg67w.s 			page 8


  26:../../DaisyExamples/libDaisy//src/hid/audio.h ****     /** TODO: Figure out how to get samplerate in here. */
  27:../../DaisyExamples/libDaisy//src/hid/audio.h ****     struct Config
  28:../../DaisyExamples/libDaisy//src/hid/audio.h ****     {
  29:../../DaisyExamples/libDaisy//src/hid/audio.h ****         /** number of samples to process per callback */
  30:../../DaisyExamples/libDaisy//src/hid/audio.h ****         size_t blocksize;
  31:../../DaisyExamples/libDaisy//src/hid/audio.h **** 
  32:../../DaisyExamples/libDaisy//src/hid/audio.h ****         /**< Sample rate of audio */
  33:../../DaisyExamples/libDaisy//src/hid/audio.h ****         SaiHandle::Config::SampleRate samplerate;
  34:../../DaisyExamples/libDaisy//src/hid/audio.h **** 
  35:../../DaisyExamples/libDaisy//src/hid/audio.h ****         /** factor for adjustment before and after callback for hardware that may have extra headro
  36:../../DaisyExamples/libDaisy//src/hid/audio.h ****         float postgain;
  37:../../DaisyExamples/libDaisy//src/hid/audio.h **** 
  38:../../DaisyExamples/libDaisy//src/hid/audio.h ****         /** factor for additional one-sided compensation to audio path for hardware that may
  39:../../DaisyExamples/libDaisy//src/hid/audio.h ****          *  have unequal input/output ranges
  40:../../DaisyExamples/libDaisy//src/hid/audio.h ****          */
  41:../../DaisyExamples/libDaisy//src/hid/audio.h ****         float output_compensation;
  42:../../DaisyExamples/libDaisy//src/hid/audio.h **** 
  43:../../DaisyExamples/libDaisy//src/hid/audio.h ****         /** Sets default values for config struct */
  44:../../DaisyExamples/libDaisy//src/hid/audio.h ****         Config()
  45:../../DaisyExamples/libDaisy//src/hid/audio.h ****         : blocksize(48),
  46:../../DaisyExamples/libDaisy//src/hid/audio.h ****           samplerate(SaiHandle::Config::SampleRate::SAI_48KHZ),
  47:../../DaisyExamples/libDaisy//src/hid/audio.h ****           postgain(1.f),
  48:../../DaisyExamples/libDaisy//src/hid/audio.h ****           output_compensation(1.f)
  49:../../DaisyExamples/libDaisy//src/hid/audio.h ****         {
  50:../../DaisyExamples/libDaisy//src/hid/audio.h ****         }
  51:../../DaisyExamples/libDaisy//src/hid/audio.h ****     };
  52:../../DaisyExamples/libDaisy//src/hid/audio.h **** 
  53:../../DaisyExamples/libDaisy//src/hid/audio.h ****     enum class Result
  54:../../DaisyExamples/libDaisy//src/hid/audio.h ****     {
  55:../../DaisyExamples/libDaisy//src/hid/audio.h ****         OK,
  56:../../DaisyExamples/libDaisy//src/hid/audio.h ****         ERR,
  57:../../DaisyExamples/libDaisy//src/hid/audio.h ****     };
  58:../../DaisyExamples/libDaisy//src/hid/audio.h **** 
  59:../../DaisyExamples/libDaisy//src/hid/audio.h ****     /** Non-Interleaving input buffer
  60:../../DaisyExamples/libDaisy//src/hid/audio.h ****      * Buffer arranged by float[chn][sample] 
  61:../../DaisyExamples/libDaisy//src/hid/audio.h ****      * const so that the user can't modify the input
  62:../../DaisyExamples/libDaisy//src/hid/audio.h ****      */
  63:../../DaisyExamples/libDaisy//src/hid/audio.h ****     typedef const float* const* InputBuffer;
  64:../../DaisyExamples/libDaisy//src/hid/audio.h **** 
  65:../../DaisyExamples/libDaisy//src/hid/audio.h ****     /** Non-Interleaving output buffer
  66:../../DaisyExamples/libDaisy//src/hid/audio.h ****      * Arranged by float[chn][sample] 
  67:../../DaisyExamples/libDaisy//src/hid/audio.h ****      */
  68:../../DaisyExamples/libDaisy//src/hid/audio.h ****     typedef float** OutputBuffer;
  69:../../DaisyExamples/libDaisy//src/hid/audio.h **** 
  70:../../DaisyExamples/libDaisy//src/hid/audio.h ****     /** Type for a Non-Interleaving audio callback 
  71:../../DaisyExamples/libDaisy//src/hid/audio.h ****      * Non-Interleaving audio callbacks in daisy will be of this type
  72:../../DaisyExamples/libDaisy//src/hid/audio.h ****      */
  73:../../DaisyExamples/libDaisy//src/hid/audio.h ****     typedef void (*AudioCallback)(InputBuffer  in,
  74:../../DaisyExamples/libDaisy//src/hid/audio.h ****                                   OutputBuffer out,
  75:../../DaisyExamples/libDaisy//src/hid/audio.h ****                                   size_t       size);
  76:../../DaisyExamples/libDaisy//src/hid/audio.h **** 
  77:../../DaisyExamples/libDaisy//src/hid/audio.h ****     /** Interleaving Input buffer
  78:../../DaisyExamples/libDaisy//src/hid/audio.h ****      ** audio is prepared as { L0, R0, L1, R1, . . . LN, RN }]
  79:../../DaisyExamples/libDaisy//src/hid/audio.h ****      ** this is const, as the user shouldn't modify it
  80:../../DaisyExamples/libDaisy//src/hid/audio.h ****     */
  81:../../DaisyExamples/libDaisy//src/hid/audio.h ****     typedef const float* InterleavingInputBuffer;
  82:../../DaisyExamples/libDaisy//src/hid/audio.h **** 
ARM GAS  /var/folders/b5/3l92j93d5t1__l78tfntmwyr0000gn/T//ccqKg67w.s 			page 9


  83:../../DaisyExamples/libDaisy//src/hid/audio.h ****     /** Interleaving Output buffer 
  84:../../DaisyExamples/libDaisy//src/hid/audio.h ****      ** audio is prepared as { L0, R0, L1, R1, . . . LN, RN }
  85:../../DaisyExamples/libDaisy//src/hid/audio.h ****     */
  86:../../DaisyExamples/libDaisy//src/hid/audio.h ****     typedef float* InterleavingOutputBuffer;
  87:../../DaisyExamples/libDaisy//src/hid/audio.h **** 
  88:../../DaisyExamples/libDaisy//src/hid/audio.h ****     /** Interleaving Audio Callback 
  89:../../DaisyExamples/libDaisy//src/hid/audio.h ****      * Interleaving audio callbacks in daisy must be of this type
  90:../../DaisyExamples/libDaisy//src/hid/audio.h ****      */
  91:../../DaisyExamples/libDaisy//src/hid/audio.h ****     typedef void (*InterleavingAudioCallback)(InterleavingInputBuffer  in,
  92:../../DaisyExamples/libDaisy//src/hid/audio.h ****                                               InterleavingOutputBuffer out,
  93:../../DaisyExamples/libDaisy//src/hid/audio.h ****                                               size_t                   size);
  94:../../DaisyExamples/libDaisy//src/hid/audio.h **** 
  95:../../DaisyExamples/libDaisy//src/hid/audio.h ****     AudioHandle() : pimpl_(nullptr) {}
  96:../../DaisyExamples/libDaisy//src/hid/audio.h ****     ~AudioHandle() {}
 103              		.loc 6 96 5 is_stmt 1 view .LVU11
 104              		.loc 6 96 5 is_stmt 0 view .LVU12
 105              	.LBE384:
 106              		.loc 3 22 19 view .LVU13
 107 0000 7047     		bx	lr
 108              		.cfi_endproc
 109              	.LFE2529:
 111              		.weak	_ZN5daisy9DaisySeedD1Ev
 112              		.thumb_set _ZN5daisy9DaisySeedD1Ev,_ZN5daisy9DaisySeedD2Ev
 113 0002 00BF     		.section	.text._ZN7daisysp5AdEnvD2Ev,"axG",%progbits,_ZN7daisysp5AdEnvD5Ev,comdat
 114              		.align	1
 115              		.p2align 2,,3
 116              		.weak	_ZN7daisysp5AdEnvD2Ev
 117              		.syntax unified
 118              		.thumb
 119              		.thumb_func
 121              	_ZN7daisysp5AdEnvD2Ev:
 122              	.LVL3:
 123              	.LFB2538:
 124              		.file 7 "../../DaisyExamples/DaisySP//Source/Control/adenv.h"
   1:../../DaisyExamples/DaisySP//Source/Control/adenv.h **** #pragma once
   2:../../DaisyExamples/DaisySP//Source/Control/adenv.h **** #ifndef ADENV_H
   3:../../DaisyExamples/DaisySP//Source/Control/adenv.h **** #define ADENV_H
   4:../../DaisyExamples/DaisySP//Source/Control/adenv.h **** #include <stdint.h>
   5:../../DaisyExamples/DaisySP//Source/Control/adenv.h **** #ifdef __cplusplus
   6:../../DaisyExamples/DaisySP//Source/Control/adenv.h **** 
   7:../../DaisyExamples/DaisySP//Source/Control/adenv.h **** namespace daisysp
   8:../../DaisyExamples/DaisySP//Source/Control/adenv.h **** {
   9:../../DaisyExamples/DaisySP//Source/Control/adenv.h **** /** Distinct stages that the phase of the envelope can be located in.
  10:../../DaisyExamples/DaisySP//Source/Control/adenv.h ****     @see AdEnv
  11:../../DaisyExamples/DaisySP//Source/Control/adenv.h **** */
  12:../../DaisyExamples/DaisySP//Source/Control/adenv.h **** enum AdEnvSegment
  13:../../DaisyExamples/DaisySP//Source/Control/adenv.h **** {
  14:../../DaisyExamples/DaisySP//Source/Control/adenv.h ****     /** located at phase location 0, and not currently running */
  15:../../DaisyExamples/DaisySP//Source/Control/adenv.h ****     ADENV_SEG_IDLE,
  16:../../DaisyExamples/DaisySP//Source/Control/adenv.h ****     /** First segment of envelope where phase moves from MIN value to MAX value */
  17:../../DaisyExamples/DaisySP//Source/Control/adenv.h ****     ADENV_SEG_ATTACK,
  18:../../DaisyExamples/DaisySP//Source/Control/adenv.h ****     /** Second segment of envelope where phase moves from MAX to MIN value */
  19:../../DaisyExamples/DaisySP//Source/Control/adenv.h ****     ADENV_SEG_DECAY,
  20:../../DaisyExamples/DaisySP//Source/Control/adenv.h ****     /** The final segment of the envelope (currently decay) */
  21:../../DaisyExamples/DaisySP//Source/Control/adenv.h ****     ADENV_SEG_LAST,
  22:../../DaisyExamples/DaisySP//Source/Control/adenv.h **** };
  23:../../DaisyExamples/DaisySP//Source/Control/adenv.h **** 
ARM GAS  /var/folders/b5/3l92j93d5t1__l78tfntmwyr0000gn/T//ccqKg67w.s 			page 10


  24:../../DaisyExamples/DaisySP//Source/Control/adenv.h **** /** Trigger-able envelope with adjustable min/max, and independent per-segment time control.
  25:../../DaisyExamples/DaisySP//Source/Control/adenv.h **** 
  26:../../DaisyExamples/DaisySP//Source/Control/adenv.h ****     \author shensley
  27:../../DaisyExamples/DaisySP//Source/Control/adenv.h ****     \todo - Add Cycling
  28:../../DaisyExamples/DaisySP//Source/Control/adenv.h ****     \todo - Implement Curve (its only linear for now).
  29:../../DaisyExamples/DaisySP//Source/Control/adenv.h ****     \todo - Maybe make this an ADsr_ that has AD/AR/Asr_ modes.
  30:../../DaisyExamples/DaisySP//Source/Control/adenv.h ****  */
  31:../../DaisyExamples/DaisySP//Source/Control/adenv.h **** class AdEnv
  32:../../DaisyExamples/DaisySP//Source/Control/adenv.h **** {
  33:../../DaisyExamples/DaisySP//Source/Control/adenv.h ****   public:
  34:../../DaisyExamples/DaisySP//Source/Control/adenv.h ****     AdEnv() {}
  35:../../DaisyExamples/DaisySP//Source/Control/adenv.h ****     ~AdEnv() {}
 125              		.loc 7 35 5 is_stmt 1 view -0
 126              		.cfi_startproc
 127              		@ args = 0, pretend = 0, frame = 0
 128              		@ frame_needed = 0, uses_anonymous_args = 0
 129              		@ link register save eliminated.
 130              		.loc 7 35 15 is_stmt 0 view .LVU15
 131 0000 7047     		bx	lr
 132              		.cfi_endproc
 133              	.LFE2538:
 135              		.weak	_ZN7daisysp5AdEnvD1Ev
 136              		.thumb_set _ZN7daisysp5AdEnvD1Ev,_ZN7daisysp5AdEnvD2Ev
 137 0002 00BF     		.section	.text._ZN7daisysp14AnalogBassDrumD2Ev,"axG",%progbits,_ZN7daisysp14AnalogBassDrumD5Ev,com
 138              		.align	1
 139              		.p2align 2,,3
 140              		.weak	_ZN7daisysp14AnalogBassDrumD2Ev
 141              		.syntax unified
 142              		.thumb
 143              		.thumb_func
 145              	_ZN7daisysp14AnalogBassDrumD2Ev:
 146              	.LVL4:
 147              	.LFB4247:
 148              		.file 8 "../../DaisyExamples/DaisySP//Source/Drums/analogbassdrum.h"
   1:../../DaisyExamples/DaisySP//Source/Drums/analogbassdrum.h **** #pragma once
   2:../../DaisyExamples/DaisySP//Source/Drums/analogbassdrum.h **** #ifndef DSY_ANALOG_BD_H
   3:../../DaisyExamples/DaisySP//Source/Drums/analogbassdrum.h **** #define DSY_ANALOG_BD_H
   4:../../DaisyExamples/DaisySP//Source/Drums/analogbassdrum.h **** 
   5:../../DaisyExamples/DaisySP//Source/Drums/analogbassdrum.h **** #include <stdint.h>
   6:../../DaisyExamples/DaisySP//Source/Drums/analogbassdrum.h **** #ifdef __cplusplus
   7:../../DaisyExamples/DaisySP//Source/Drums/analogbassdrum.h **** 
   8:../../DaisyExamples/DaisySP//Source/Drums/analogbassdrum.h **** #include "Synthesis/oscillator.h"
   9:../../DaisyExamples/DaisySP//Source/Drums/analogbassdrum.h **** #include "Filters/svf.h"
  10:../../DaisyExamples/DaisySP//Source/Drums/analogbassdrum.h **** 
  11:../../DaisyExamples/DaisySP//Source/Drums/analogbassdrum.h **** /** @file analogbassdrum.h */
  12:../../DaisyExamples/DaisySP//Source/Drums/analogbassdrum.h **** 
  13:../../DaisyExamples/DaisySP//Source/Drums/analogbassdrum.h **** namespace daisysp
  14:../../DaisyExamples/DaisySP//Source/Drums/analogbassdrum.h **** {
  15:../../DaisyExamples/DaisySP//Source/Drums/analogbassdrum.h **** /**  
  16:../../DaisyExamples/DaisySP//Source/Drums/analogbassdrum.h ****        @brief 808 bass drum model, revisited.
  17:../../DaisyExamples/DaisySP//Source/Drums/analogbassdrum.h ****        @author Ben Sergentanis
  18:../../DaisyExamples/DaisySP//Source/Drums/analogbassdrum.h ****        @date Jan 2021 
  19:../../DaisyExamples/DaisySP//Source/Drums/analogbassdrum.h ****        Ported from pichenettes/eurorack/plaits/dsp/drums/analog_bass_drum.h \n
  20:../../DaisyExamples/DaisySP//Source/Drums/analogbassdrum.h ****        to an independent module. \n
  21:../../DaisyExamples/DaisySP//Source/Drums/analogbassdrum.h ****        Original code written by Emilie Gillet in 2016. \n
  22:../../DaisyExamples/DaisySP//Source/Drums/analogbassdrum.h **** */
  23:../../DaisyExamples/DaisySP//Source/Drums/analogbassdrum.h **** class AnalogBassDrum
ARM GAS  /var/folders/b5/3l92j93d5t1__l78tfntmwyr0000gn/T//ccqKg67w.s 			page 11


  24:../../DaisyExamples/DaisySP//Source/Drums/analogbassdrum.h **** {
  25:../../DaisyExamples/DaisySP//Source/Drums/analogbassdrum.h ****   public:
  26:../../DaisyExamples/DaisySP//Source/Drums/analogbassdrum.h ****     AnalogBassDrum() {}
  27:../../DaisyExamples/DaisySP//Source/Drums/analogbassdrum.h ****     ~AnalogBassDrum() {}
 149              		.loc 8 27 5 is_stmt 1 view -0
 150              		.cfi_startproc
 151              		@ args = 0, pretend = 0, frame = 0
 152              		@ frame_needed = 0, uses_anonymous_args = 0
 153              		@ link register save eliminated.
 154              	.LBB385:
 155              	.LBI385:
 156              		.file 9 "../../DaisyExamples/DaisySP//Source/Filters/svf.h"
   1:../../DaisyExamples/DaisySP//Source/Filters/svf.h **** #pragma once
   2:../../DaisyExamples/DaisySP//Source/Filters/svf.h **** #ifndef DSY_SVF_H
   3:../../DaisyExamples/DaisySP//Source/Filters/svf.h **** #define DSY_SVF_H
   4:../../DaisyExamples/DaisySP//Source/Filters/svf.h **** 
   5:../../DaisyExamples/DaisySP//Source/Filters/svf.h **** namespace daisysp
   6:../../DaisyExamples/DaisySP//Source/Filters/svf.h **** {
   7:../../DaisyExamples/DaisySP//Source/Filters/svf.h **** /**      Double Sampled, Stable State Variable Filter
   8:../../DaisyExamples/DaisySP//Source/Filters/svf.h **** 
   9:../../DaisyExamples/DaisySP//Source/Filters/svf.h **** Credit to Andrew Simper from musicdsp.org
  10:../../DaisyExamples/DaisySP//Source/Filters/svf.h **** 
  11:../../DaisyExamples/DaisySP//Source/Filters/svf.h **** This is his "State Variable Filter (Double Sampled, Stable)"
  12:../../DaisyExamples/DaisySP//Source/Filters/svf.h **** 
  13:../../DaisyExamples/DaisySP//Source/Filters/svf.h **** Additional thanks to Laurent de Soras for stability limit, and 
  14:../../DaisyExamples/DaisySP//Source/Filters/svf.h **** Stefan Diedrichsen for the correct notch output
  15:../../DaisyExamples/DaisySP//Source/Filters/svf.h **** 
  16:../../DaisyExamples/DaisySP//Source/Filters/svf.h **** Ported by: Stephen Hensley
  17:../../DaisyExamples/DaisySP//Source/Filters/svf.h **** */
  18:../../DaisyExamples/DaisySP//Source/Filters/svf.h **** class Svf
  19:../../DaisyExamples/DaisySP//Source/Filters/svf.h **** {
  20:../../DaisyExamples/DaisySP//Source/Filters/svf.h ****   public:
  21:../../DaisyExamples/DaisySP//Source/Filters/svf.h ****     Svf() {}
  22:../../DaisyExamples/DaisySP//Source/Filters/svf.h ****     ~Svf() {}
 157              		.loc 9 22 5 view .LVU17
 158              		.loc 9 22 5 is_stmt 0 view .LVU18
 159              	.LBE385:
 160              		.loc 8 27 24 view .LVU19
 161 0000 7047     		bx	lr
 162              		.cfi_endproc
 163              	.LFE4247:
 165              		.weak	_ZN7daisysp14AnalogBassDrumD1Ev
 166              		.thumb_set _ZN7daisysp14AnalogBassDrumD1Ev,_ZN7daisysp14AnalogBassDrumD2Ev
 167 0002 00BF     		.section	.text._ZN7daisysp17SyntheticBassDrumD2Ev,"axG",%progbits,_ZN7daisysp17SyntheticBassDrumD5
 168              		.align	1
 169              		.p2align 2,,3
 170              		.weak	_ZN7daisysp17SyntheticBassDrumD2Ev
 171              		.syntax unified
 172              		.thumb
 173              		.thumb_func
 175              	_ZN7daisysp17SyntheticBassDrumD2Ev:
 176              	.LVL5:
 177              	.LFB4297:
 178              		.file 10 "../../DaisyExamples/DaisySP//Source/Drums/synthbassdrum.h"
   1:../../DaisyExamples/DaisySP//Source/Drums/synthbassdrum.h **** #pragma once
   2:../../DaisyExamples/DaisySP//Source/Drums/synthbassdrum.h **** #ifndef DSY_SYNTHBD_H
   3:../../DaisyExamples/DaisySP//Source/Drums/synthbassdrum.h **** #define DSY_SYNTHBD_H
ARM GAS  /var/folders/b5/3l92j93d5t1__l78tfntmwyr0000gn/T//ccqKg67w.s 			page 12


   4:../../DaisyExamples/DaisySP//Source/Drums/synthbassdrum.h **** 
   5:../../DaisyExamples/DaisySP//Source/Drums/synthbassdrum.h **** #include "Filters/svf.h"
   6:../../DaisyExamples/DaisySP//Source/Drums/synthbassdrum.h **** #include "Utility/dsp.h"
   7:../../DaisyExamples/DaisySP//Source/Drums/synthbassdrum.h **** 
   8:../../DaisyExamples/DaisySP//Source/Drums/synthbassdrum.h **** #include <stdint.h>
   9:../../DaisyExamples/DaisySP//Source/Drums/synthbassdrum.h **** #ifdef __cplusplus
  10:../../DaisyExamples/DaisySP//Source/Drums/synthbassdrum.h **** 
  11:../../DaisyExamples/DaisySP//Source/Drums/synthbassdrum.h **** /** @file synthbassdrum.h */
  12:../../DaisyExamples/DaisySP//Source/Drums/synthbassdrum.h **** 
  13:../../DaisyExamples/DaisySP//Source/Drums/synthbassdrum.h **** namespace daisysp
  14:../../DaisyExamples/DaisySP//Source/Drums/synthbassdrum.h **** {
  15:../../DaisyExamples/DaisySP//Source/Drums/synthbassdrum.h **** /**  
  16:../../DaisyExamples/DaisySP//Source/Drums/synthbassdrum.h ****        @brief Click noise for SyntheticBassDrum
  17:../../DaisyExamples/DaisySP//Source/Drums/synthbassdrum.h ****        @author Ben Sergentanis
  18:../../DaisyExamples/DaisySP//Source/Drums/synthbassdrum.h ****        @date Jan 2021
  19:../../DaisyExamples/DaisySP//Source/Drums/synthbassdrum.h ****        Ported from pichenettes/eurorack/plaits/dsp/drums/synthetic_bass_drum.h \n
  20:../../DaisyExamples/DaisySP//Source/Drums/synthbassdrum.h ****        to an independent module. \n
  21:../../DaisyExamples/DaisySP//Source/Drums/synthbassdrum.h ****        Original code written by Emilie Gillet in 2016. \n
  22:../../DaisyExamples/DaisySP//Source/Drums/synthbassdrum.h **** */
  23:../../DaisyExamples/DaisySP//Source/Drums/synthbassdrum.h **** class SyntheticBassDrumClick
  24:../../DaisyExamples/DaisySP//Source/Drums/synthbassdrum.h **** {
  25:../../DaisyExamples/DaisySP//Source/Drums/synthbassdrum.h ****   public:
  26:../../DaisyExamples/DaisySP//Source/Drums/synthbassdrum.h ****     SyntheticBassDrumClick() {}
  27:../../DaisyExamples/DaisySP//Source/Drums/synthbassdrum.h ****     ~SyntheticBassDrumClick() {}
  28:../../DaisyExamples/DaisySP//Source/Drums/synthbassdrum.h **** 
  29:../../DaisyExamples/DaisySP//Source/Drums/synthbassdrum.h ****     /** Init the module
  30:../../DaisyExamples/DaisySP//Source/Drums/synthbassdrum.h ****         \param sample_rate Audio engine sample rate.
  31:../../DaisyExamples/DaisySP//Source/Drums/synthbassdrum.h ****     */
  32:../../DaisyExamples/DaisySP//Source/Drums/synthbassdrum.h ****     void Init(float sample_rate);
  33:../../DaisyExamples/DaisySP//Source/Drums/synthbassdrum.h **** 
  34:../../DaisyExamples/DaisySP//Source/Drums/synthbassdrum.h ****     /** Get the next sample.
  35:../../DaisyExamples/DaisySP//Source/Drums/synthbassdrum.h ****         \param in Trigger the click.
  36:../../DaisyExamples/DaisySP//Source/Drums/synthbassdrum.h ****     */
  37:../../DaisyExamples/DaisySP//Source/Drums/synthbassdrum.h ****     float Process(float in);
  38:../../DaisyExamples/DaisySP//Source/Drums/synthbassdrum.h **** 
  39:../../DaisyExamples/DaisySP//Source/Drums/synthbassdrum.h ****   private:
  40:../../DaisyExamples/DaisySP//Source/Drums/synthbassdrum.h ****     float lp_;
  41:../../DaisyExamples/DaisySP//Source/Drums/synthbassdrum.h ****     float hp_;
  42:../../DaisyExamples/DaisySP//Source/Drums/synthbassdrum.h ****     Svf   filter_;
  43:../../DaisyExamples/DaisySP//Source/Drums/synthbassdrum.h **** };
  44:../../DaisyExamples/DaisySP//Source/Drums/synthbassdrum.h **** 
  45:../../DaisyExamples/DaisySP//Source/Drums/synthbassdrum.h **** /**  
  46:../../DaisyExamples/DaisySP//Source/Drums/synthbassdrum.h ****        @brief Attack Noise generator for SyntheticBassDrum. 
  47:../../DaisyExamples/DaisySP//Source/Drums/synthbassdrum.h ****        @author Ben Sergentanis
  48:../../DaisyExamples/DaisySP//Source/Drums/synthbassdrum.h ****        @date Jan 2021
  49:../../DaisyExamples/DaisySP//Source/Drums/synthbassdrum.h ****        Ported from pichenettes/eurorack/plaits/dsp/drums/synthetic_bass_drum.h \n
  50:../../DaisyExamples/DaisySP//Source/Drums/synthbassdrum.h ****        to an independent module. \n
  51:../../DaisyExamples/DaisySP//Source/Drums/synthbassdrum.h ****        Original code written by Emilie Gillet in 2016. \n
  52:../../DaisyExamples/DaisySP//Source/Drums/synthbassdrum.h **** */
  53:../../DaisyExamples/DaisySP//Source/Drums/synthbassdrum.h **** class SyntheticBassDrumAttackNoise
  54:../../DaisyExamples/DaisySP//Source/Drums/synthbassdrum.h **** {
  55:../../DaisyExamples/DaisySP//Source/Drums/synthbassdrum.h ****   public:
  56:../../DaisyExamples/DaisySP//Source/Drums/synthbassdrum.h ****     SyntheticBassDrumAttackNoise() {}
  57:../../DaisyExamples/DaisySP//Source/Drums/synthbassdrum.h ****     ~SyntheticBassDrumAttackNoise() {}
  58:../../DaisyExamples/DaisySP//Source/Drums/synthbassdrum.h **** 
  59:../../DaisyExamples/DaisySP//Source/Drums/synthbassdrum.h ****     /** Init the module */
  60:../../DaisyExamples/DaisySP//Source/Drums/synthbassdrum.h ****     void Init();
ARM GAS  /var/folders/b5/3l92j93d5t1__l78tfntmwyr0000gn/T//ccqKg67w.s 			page 13


  61:../../DaisyExamples/DaisySP//Source/Drums/synthbassdrum.h **** 
  62:../../DaisyExamples/DaisySP//Source/Drums/synthbassdrum.h ****     /** Get the next sample. */
  63:../../DaisyExamples/DaisySP//Source/Drums/synthbassdrum.h ****     float Process();
  64:../../DaisyExamples/DaisySP//Source/Drums/synthbassdrum.h **** 
  65:../../DaisyExamples/DaisySP//Source/Drums/synthbassdrum.h ****   private:
  66:../../DaisyExamples/DaisySP//Source/Drums/synthbassdrum.h ****     float lp_;
  67:../../DaisyExamples/DaisySP//Source/Drums/synthbassdrum.h ****     float hp_;
  68:../../DaisyExamples/DaisySP//Source/Drums/synthbassdrum.h **** };
  69:../../DaisyExamples/DaisySP//Source/Drums/synthbassdrum.h **** 
  70:../../DaisyExamples/DaisySP//Source/Drums/synthbassdrum.h **** /**  
  71:../../DaisyExamples/DaisySP//Source/Drums/synthbassdrum.h ****        @brief Naive bass drum model (modulated oscillator with FM + envelope).
  72:../../DaisyExamples/DaisySP//Source/Drums/synthbassdrum.h ****        @author Ben Sergentanis
  73:../../DaisyExamples/DaisySP//Source/Drums/synthbassdrum.h ****        @date Jan 2021
  74:../../DaisyExamples/DaisySP//Source/Drums/synthbassdrum.h ****        Inadvertently 909-ish. \n \n 
  75:../../DaisyExamples/DaisySP//Source/Drums/synthbassdrum.h ****        Ported from pichenettes/eurorack/plaits/dsp/drums/synthetic_bass_drum.h \n
  76:../../DaisyExamples/DaisySP//Source/Drums/synthbassdrum.h ****        to an independent module. \n
  77:../../DaisyExamples/DaisySP//Source/Drums/synthbassdrum.h ****        Original code written by Emilie Gillet in 2016. \n
  78:../../DaisyExamples/DaisySP//Source/Drums/synthbassdrum.h **** */
  79:../../DaisyExamples/DaisySP//Source/Drums/synthbassdrum.h **** class SyntheticBassDrum
  80:../../DaisyExamples/DaisySP//Source/Drums/synthbassdrum.h **** {
  81:../../DaisyExamples/DaisySP//Source/Drums/synthbassdrum.h ****   public:
  82:../../DaisyExamples/DaisySP//Source/Drums/synthbassdrum.h ****     SyntheticBassDrum() {}
  83:../../DaisyExamples/DaisySP//Source/Drums/synthbassdrum.h ****     ~SyntheticBassDrum() {}
 179              		.loc 10 83 5 is_stmt 1 view -0
 180              		.cfi_startproc
 181              		@ args = 0, pretend = 0, frame = 0
 182              		@ frame_needed = 0, uses_anonymous_args = 0
 183              		@ link register save eliminated.
 184              	.LBB386:
 185              	.LBI386:
  57:../../DaisyExamples/DaisySP//Source/Drums/synthbassdrum.h **** 
 186              		.loc 10 57 5 view .LVU21
  57:../../DaisyExamples/DaisySP//Source/Drums/synthbassdrum.h **** 
 187              		.loc 10 57 5 is_stmt 0 view .LVU22
 188              	.LBE386:
 189              	.LBB387:
 190              	.LBI387:
  27:../../DaisyExamples/DaisySP//Source/Drums/synthbassdrum.h **** 
 191              		.loc 10 27 5 is_stmt 1 view .LVU23
 192              	.LBB388:
 193              	.LBI388:
 194              		.loc 9 22 5 view .LVU24
 195              		.loc 9 22 5 is_stmt 0 view .LVU25
 196              	.LBE388:
 197              	.LBE387:
 198              		.loc 10 83 27 view .LVU26
 199 0000 7047     		bx	lr
 200              		.cfi_endproc
 201              	.LFE4297:
 203              		.weak	_ZN7daisysp17SyntheticBassDrumD1Ev
 204              		.thumb_set _ZN7daisysp17SyntheticBassDrumD1Ev,_ZN7daisysp17SyntheticBassDrumD2Ev
 205 0002 00BF     		.section	.text._ZN7daisysp18SyntheticSnareDrumD2Ev,"axG",%progbits,_ZN7daisysp18SyntheticSnareDrum
 206              		.align	1
 207              		.p2align 2,,3
 208              		.weak	_ZN7daisysp18SyntheticSnareDrumD2Ev
 209              		.syntax unified
 210              		.thumb
ARM GAS  /var/folders/b5/3l92j93d5t1__l78tfntmwyr0000gn/T//ccqKg67w.s 			page 14


 211              		.thumb_func
 213              	_ZN7daisysp18SyntheticSnareDrumD2Ev:
 214              	.LVL6:
 215              	.LFB4303:
 216              		.file 11 "../../DaisyExamples/DaisySP//Source/Drums/synthsnaredrum.h"
   1:../../DaisyExamples/DaisySP//Source/Drums/synthsnaredrum.h **** #pragma once
   2:../../DaisyExamples/DaisySP//Source/Drums/synthsnaredrum.h **** #ifndef DSY_SYNTHSD_H
   3:../../DaisyExamples/DaisySP//Source/Drums/synthsnaredrum.h **** #define DSY_SYNTHSD_H
   4:../../DaisyExamples/DaisySP//Source/Drums/synthsnaredrum.h **** 
   5:../../DaisyExamples/DaisySP//Source/Drums/synthsnaredrum.h **** #include "Filters/svf.h"
   6:../../DaisyExamples/DaisySP//Source/Drums/synthsnaredrum.h **** 
   7:../../DaisyExamples/DaisySP//Source/Drums/synthsnaredrum.h **** #include <stdint.h>
   8:../../DaisyExamples/DaisySP//Source/Drums/synthsnaredrum.h **** #ifdef __cplusplus
   9:../../DaisyExamples/DaisySP//Source/Drums/synthsnaredrum.h **** 
  10:../../DaisyExamples/DaisySP//Source/Drums/synthsnaredrum.h **** /** @file synthsnaredrum.h */
  11:../../DaisyExamples/DaisySP//Source/Drums/synthsnaredrum.h **** 
  12:../../DaisyExamples/DaisySP//Source/Drums/synthsnaredrum.h **** namespace daisysp
  13:../../DaisyExamples/DaisySP//Source/Drums/synthsnaredrum.h **** {
  14:../../DaisyExamples/DaisySP//Source/Drums/synthsnaredrum.h **** /**  
  15:../../DaisyExamples/DaisySP//Source/Drums/synthsnaredrum.h ****        @brief Naive snare drum model (two modulated oscillators + filtered noise).
  16:../../DaisyExamples/DaisySP//Source/Drums/synthsnaredrum.h ****        @author Ben Sergentanis
  17:../../DaisyExamples/DaisySP//Source/Drums/synthsnaredrum.h ****        @date Jan 2021
  18:../../DaisyExamples/DaisySP//Source/Drums/synthsnaredrum.h ****        Uses a few magic numbers taken from the 909 schematics: \n 
  19:../../DaisyExamples/DaisySP//Source/Drums/synthsnaredrum.h ****        - Ratio between the two modes of the drum set to 1.47. \n
  20:../../DaisyExamples/DaisySP//Source/Drums/synthsnaredrum.h ****        - Funky coupling between the two modes. \n
  21:../../DaisyExamples/DaisySP//Source/Drums/synthsnaredrum.h ****        - Noise coloration filters and envelope shapes for the snare. \n \n
  22:../../DaisyExamples/DaisySP//Source/Drums/synthsnaredrum.h ****        Ported from pichenettes/eurorack/plaits/dsp/drums/synthetic_snare_drum.h \n
  23:../../DaisyExamples/DaisySP//Source/Drums/synthsnaredrum.h ****        to an independent module. \n
  24:../../DaisyExamples/DaisySP//Source/Drums/synthsnaredrum.h ****        Original code written by Emilie Gillet in 2016. \n
  25:../../DaisyExamples/DaisySP//Source/Drums/synthsnaredrum.h **** */
  26:../../DaisyExamples/DaisySP//Source/Drums/synthsnaredrum.h **** class SyntheticSnareDrum
  27:../../DaisyExamples/DaisySP//Source/Drums/synthsnaredrum.h **** {
  28:../../DaisyExamples/DaisySP//Source/Drums/synthsnaredrum.h ****   public:
  29:../../DaisyExamples/DaisySP//Source/Drums/synthsnaredrum.h ****     SyntheticSnareDrum() {}
  30:../../DaisyExamples/DaisySP//Source/Drums/synthsnaredrum.h ****     ~SyntheticSnareDrum() {}
 217              		.loc 11 30 5 is_stmt 1 view -0
 218              		.cfi_startproc
 219              		@ args = 0, pretend = 0, frame = 0
 220              		@ frame_needed = 0, uses_anonymous_args = 0
 221              		@ link register save eliminated.
 222              	.LBB389:
 223              	.LBI389:
 224              		.loc 9 22 5 view .LVU28
 225              		.loc 9 22 5 is_stmt 0 view .LVU29
 226              	.LBE389:
 227              	.LBB390:
 228              	.LBI390:
 229              		.loc 9 22 5 is_stmt 1 view .LVU30
 230              		.loc 9 22 5 is_stmt 0 view .LVU31
 231              	.LBE390:
 232              	.LBB391:
 233              	.LBI391:
 234              		.loc 9 22 5 is_stmt 1 view .LVU32
 235              		.loc 9 22 5 is_stmt 0 view .LVU33
 236              	.LBE391:
 237              		.loc 11 30 28 view .LVU34
 238 0000 7047     		bx	lr
ARM GAS  /var/folders/b5/3l92j93d5t1__l78tfntmwyr0000gn/T//ccqKg67w.s 			page 15


 239              		.cfi_endproc
 240              	.LFE4303:
 242              		.weak	_ZN7daisysp18SyntheticSnareDrumD1Ev
 243              		.thumb_set _ZN7daisysp18SyntheticSnareDrumD1Ev,_ZN7daisysp18SyntheticSnareDrumD2Ev
 244 0002 00BF     		.section	.text._ZN7daisysp5MetroD2Ev,"axG",%progbits,_ZN7daisysp5MetroD5Ev,comdat
 245              		.align	1
 246              		.p2align 2,,3
 247              		.weak	_ZN7daisysp5MetroD2Ev
 248              		.syntax unified
 249              		.thumb
 250              		.thumb_func
 252              	_ZN7daisysp5MetroD2Ev:
 253              	.LVL7:
 254              	.LFB4760:
 255              		.file 12 "../../DaisyExamples/DaisySP//Source/Utility/metro.h"
   1:../../DaisyExamples/DaisySP//Source/Utility/metro.h **** #pragma once
   2:../../DaisyExamples/DaisySP//Source/Utility/metro.h **** #ifndef DSY_METRO_H
   3:../../DaisyExamples/DaisySP//Source/Utility/metro.h **** #define DSY_METRO_H
   4:../../DaisyExamples/DaisySP//Source/Utility/metro.h **** #include <stdint.h>
   5:../../DaisyExamples/DaisySP//Source/Utility/metro.h **** #ifdef __cplusplus
   6:../../DaisyExamples/DaisySP//Source/Utility/metro.h **** 
   7:../../DaisyExamples/DaisySP//Source/Utility/metro.h **** namespace daisysp
   8:../../DaisyExamples/DaisySP//Source/Utility/metro.h **** {
   9:../../DaisyExamples/DaisySP//Source/Utility/metro.h **** /** Creates a clock signal at a specific frequency.
  10:../../DaisyExamples/DaisySP//Source/Utility/metro.h **** */
  11:../../DaisyExamples/DaisySP//Source/Utility/metro.h **** class Metro
  12:../../DaisyExamples/DaisySP//Source/Utility/metro.h **** {
  13:../../DaisyExamples/DaisySP//Source/Utility/metro.h ****   public:
  14:../../DaisyExamples/DaisySP//Source/Utility/metro.h ****     Metro() {}
  15:../../DaisyExamples/DaisySP//Source/Utility/metro.h ****     ~Metro() {}
 256              		.loc 12 15 5 is_stmt 1 view -0
 257              		.cfi_startproc
 258              		@ args = 0, pretend = 0, frame = 0
 259              		@ frame_needed = 0, uses_anonymous_args = 0
 260              		@ link register save eliminated.
 261              		.loc 12 15 15 is_stmt 0 view .LVU36
 262 0000 7047     		bx	lr
 263              		.cfi_endproc
 264              	.LFE4760:
 266              		.weak	_ZN7daisysp5MetroD1Ev
 267              		.thumb_set _ZN7daisysp5MetroD1Ev,_ZN7daisysp5MetroD2Ev
 268 0002 00BF     		.section	.text._ZN7daisysp5HiHatINS_11SquareNoiseENS_9LinearVCAELb1EED2Ev,"axG",%progbits,_ZN7dais
 269              		.align	1
 270              		.p2align 2,,3
 271              		.weak	_ZN7daisysp5HiHatINS_11SquareNoiseENS_9LinearVCAELb1EED2Ev
 272              		.syntax unified
 273              		.thumb
 274              		.thumb_func
 276              	_ZN7daisysp5HiHatINS_11SquareNoiseENS_9LinearVCAELb1EED2Ev:
 277              	.LVL8:
 278              	.LFB5441:
 279              		.file 13 "../../DaisyExamples/DaisySP//Source/Drums/hihat.h"
   1:../../DaisyExamples/DaisySP//Source/Drums/hihat.h **** #pragma once
   2:../../DaisyExamples/DaisySP//Source/Drums/hihat.h **** #ifndef DSY_HIHAT_H
   3:../../DaisyExamples/DaisySP//Source/Drums/hihat.h **** #define DSY_HIHAT_H
   4:../../DaisyExamples/DaisySP//Source/Drums/hihat.h **** 
   5:../../DaisyExamples/DaisySP//Source/Drums/hihat.h **** #include "Filters/svf.h"
ARM GAS  /var/folders/b5/3l92j93d5t1__l78tfntmwyr0000gn/T//ccqKg67w.s 			page 16


   6:../../DaisyExamples/DaisySP//Source/Drums/hihat.h **** #include "Synthesis/oscillator.h"
   7:../../DaisyExamples/DaisySP//Source/Drums/hihat.h **** 
   8:../../DaisyExamples/DaisySP//Source/Drums/hihat.h **** #include <stdint.h>
   9:../../DaisyExamples/DaisySP//Source/Drums/hihat.h **** #include <stdlib.h>
  10:../../DaisyExamples/DaisySP//Source/Drums/hihat.h **** #ifdef __cplusplus
  11:../../DaisyExamples/DaisySP//Source/Drums/hihat.h **** 
  12:../../DaisyExamples/DaisySP//Source/Drums/hihat.h **** /** @file hihat.h */
  13:../../DaisyExamples/DaisySP//Source/Drums/hihat.h **** 
  14:../../DaisyExamples/DaisySP//Source/Drums/hihat.h **** namespace daisysp
  15:../../DaisyExamples/DaisySP//Source/Drums/hihat.h **** {
  16:../../DaisyExamples/DaisySP//Source/Drums/hihat.h **** /**  
  17:../../DaisyExamples/DaisySP//Source/Drums/hihat.h ****        @brief 808 style "metallic noise" with 6 square oscillators.
  18:../../DaisyExamples/DaisySP//Source/Drums/hihat.h ****        @author Ben Sergentanis
  19:../../DaisyExamples/DaisySP//Source/Drums/hihat.h ****        @date Jan 2021
  20:../../DaisyExamples/DaisySP//Source/Drums/hihat.h ****        Ported from pichenettes/eurorack/plaits/dsp/drums/hihat.h \n
  21:../../DaisyExamples/DaisySP//Source/Drums/hihat.h ****        to an independent module. \n
  22:../../DaisyExamples/DaisySP//Source/Drums/hihat.h ****        Original code written by Emilie Gillet in 2016. \n
  23:../../DaisyExamples/DaisySP//Source/Drums/hihat.h **** */
  24:../../DaisyExamples/DaisySP//Source/Drums/hihat.h **** class SquareNoise
  25:../../DaisyExamples/DaisySP//Source/Drums/hihat.h **** {
  26:../../DaisyExamples/DaisySP//Source/Drums/hihat.h ****   public:
  27:../../DaisyExamples/DaisySP//Source/Drums/hihat.h ****     SquareNoise() {}
  28:../../DaisyExamples/DaisySP//Source/Drums/hihat.h ****     ~SquareNoise() {}
  29:../../DaisyExamples/DaisySP//Source/Drums/hihat.h **** 
  30:../../DaisyExamples/DaisySP//Source/Drums/hihat.h ****     void Init(float sample_rate);
  31:../../DaisyExamples/DaisySP//Source/Drums/hihat.h **** 
  32:../../DaisyExamples/DaisySP//Source/Drums/hihat.h ****     float Process(float f0);
  33:../../DaisyExamples/DaisySP//Source/Drums/hihat.h **** 
  34:../../DaisyExamples/DaisySP//Source/Drums/hihat.h ****   private:
  35:../../DaisyExamples/DaisySP//Source/Drums/hihat.h ****     uint32_t phase_[6];
  36:../../DaisyExamples/DaisySP//Source/Drums/hihat.h **** };
  37:../../DaisyExamples/DaisySP//Source/Drums/hihat.h **** 
  38:../../DaisyExamples/DaisySP//Source/Drums/hihat.h **** /**  
  39:../../DaisyExamples/DaisySP//Source/Drums/hihat.h ****        @brief Ring mod style metallic noise generator.
  40:../../DaisyExamples/DaisySP//Source/Drums/hihat.h ****        @author Ben Sergentanis
  41:../../DaisyExamples/DaisySP//Source/Drums/hihat.h ****        @date Jan 2021
  42:../../DaisyExamples/DaisySP//Source/Drums/hihat.h ****        Ported from pichenettes/eurorack/plaits/dsp/drums/hihat.h \n
  43:../../DaisyExamples/DaisySP//Source/Drums/hihat.h ****        to an independent module. \n
  44:../../DaisyExamples/DaisySP//Source/Drums/hihat.h ****        Original code written by Emilie Gillet in 2016. \n
  45:../../DaisyExamples/DaisySP//Source/Drums/hihat.h **** */
  46:../../DaisyExamples/DaisySP//Source/Drums/hihat.h **** class RingModNoise
  47:../../DaisyExamples/DaisySP//Source/Drums/hihat.h **** {
  48:../../DaisyExamples/DaisySP//Source/Drums/hihat.h ****   public:
  49:../../DaisyExamples/DaisySP//Source/Drums/hihat.h ****     RingModNoise() {}
  50:../../DaisyExamples/DaisySP//Source/Drums/hihat.h ****     ~RingModNoise() {}
  51:../../DaisyExamples/DaisySP//Source/Drums/hihat.h **** 
  52:../../DaisyExamples/DaisySP//Source/Drums/hihat.h ****     void Init(float sample_rate);
  53:../../DaisyExamples/DaisySP//Source/Drums/hihat.h **** 
  54:../../DaisyExamples/DaisySP//Source/Drums/hihat.h ****     float Process(float f0);
  55:../../DaisyExamples/DaisySP//Source/Drums/hihat.h **** 
  56:../../DaisyExamples/DaisySP//Source/Drums/hihat.h ****   private:
  57:../../DaisyExamples/DaisySP//Source/Drums/hihat.h ****     float      ProcessPair(Oscillator* osc, float f1, float f2);
  58:../../DaisyExamples/DaisySP//Source/Drums/hihat.h ****     Oscillator oscillator_[6];
  59:../../DaisyExamples/DaisySP//Source/Drums/hihat.h **** 
  60:../../DaisyExamples/DaisySP//Source/Drums/hihat.h ****     float sample_rate_;
  61:../../DaisyExamples/DaisySP//Source/Drums/hihat.h **** };
  62:../../DaisyExamples/DaisySP//Source/Drums/hihat.h **** 
ARM GAS  /var/folders/b5/3l92j93d5t1__l78tfntmwyr0000gn/T//ccqKg67w.s 			page 17


  63:../../DaisyExamples/DaisySP//Source/Drums/hihat.h **** /**  
  64:../../DaisyExamples/DaisySP//Source/Drums/hihat.h ****        @brief Swing type VCA
  65:../../DaisyExamples/DaisySP//Source/Drums/hihat.h ****        @author Ben Sergentanis
  66:../../DaisyExamples/DaisySP//Source/Drums/hihat.h ****        @date Jan 2021
  67:../../DaisyExamples/DaisySP//Source/Drums/hihat.h ****        Ported from pichenettes/eurorack/plaits/dsp/drums/hihat.h \n
  68:../../DaisyExamples/DaisySP//Source/Drums/hihat.h ****        to an independent module. \n
  69:../../DaisyExamples/DaisySP//Source/Drums/hihat.h ****        Original code written by Emilie Gillet in 2016. \n
  70:../../DaisyExamples/DaisySP//Source/Drums/hihat.h **** */
  71:../../DaisyExamples/DaisySP//Source/Drums/hihat.h **** class SwingVCA
  72:../../DaisyExamples/DaisySP//Source/Drums/hihat.h **** {
  73:../../DaisyExamples/DaisySP//Source/Drums/hihat.h ****   public:
  74:../../DaisyExamples/DaisySP//Source/Drums/hihat.h ****     float operator()(float s, float gain)
  75:../../DaisyExamples/DaisySP//Source/Drums/hihat.h ****     {
  76:../../DaisyExamples/DaisySP//Source/Drums/hihat.h ****         s *= s > 0.0f ? 10.0f : 0.1f;
  77:../../DaisyExamples/DaisySP//Source/Drums/hihat.h ****         s = s / (1.0f + fabsf(s));
  78:../../DaisyExamples/DaisySP//Source/Drums/hihat.h ****         return (s + 1.0f) * gain;
  79:../../DaisyExamples/DaisySP//Source/Drums/hihat.h ****     }
  80:../../DaisyExamples/DaisySP//Source/Drums/hihat.h **** };
  81:../../DaisyExamples/DaisySP//Source/Drums/hihat.h **** 
  82:../../DaisyExamples/DaisySP//Source/Drums/hihat.h **** /**  
  83:../../DaisyExamples/DaisySP//Source/Drums/hihat.h ****        @brief Linear type VCA
  84:../../DaisyExamples/DaisySP//Source/Drums/hihat.h ****        @author Ben Sergentanis
  85:../../DaisyExamples/DaisySP//Source/Drums/hihat.h ****        @date Jan 2021
  86:../../DaisyExamples/DaisySP//Source/Drums/hihat.h ****        Ported from pichenettes/eurorack/plaits/dsp/drums/hihat.h \n
  87:../../DaisyExamples/DaisySP//Source/Drums/hihat.h ****        to an independent module. \n
  88:../../DaisyExamples/DaisySP//Source/Drums/hihat.h ****        Original code written by Emilie Gillet in 2016. \n
  89:../../DaisyExamples/DaisySP//Source/Drums/hihat.h **** */
  90:../../DaisyExamples/DaisySP//Source/Drums/hihat.h **** class LinearVCA
  91:../../DaisyExamples/DaisySP//Source/Drums/hihat.h **** {
  92:../../DaisyExamples/DaisySP//Source/Drums/hihat.h ****   public:
  93:../../DaisyExamples/DaisySP//Source/Drums/hihat.h ****     float operator()(float s, float gain) { return s * gain; }
  94:../../DaisyExamples/DaisySP//Source/Drums/hihat.h **** };
  95:../../DaisyExamples/DaisySP//Source/Drums/hihat.h **** 
  96:../../DaisyExamples/DaisySP//Source/Drums/hihat.h **** /**  
  97:../../DaisyExamples/DaisySP//Source/Drums/hihat.h ****        @brief 808 HH, with a few extra parameters to push things to the CY territory...
  98:../../DaisyExamples/DaisySP//Source/Drums/hihat.h ****        @author Ben Sergentanis
  99:../../DaisyExamples/DaisySP//Source/Drums/hihat.h ****        @date Jan 2021
 100:../../DaisyExamples/DaisySP//Source/Drums/hihat.h ****        The template parameter MetallicNoiseSource allows another kind of "metallic \n
 101:../../DaisyExamples/DaisySP//Source/Drums/hihat.h ****        noise" to be used, for results which are more similar to KR-55 or FM hi-hats. \n \n 
 102:../../DaisyExamples/DaisySP//Source/Drums/hihat.h ****        Ported from pichenettes/eurorack/plaits/dsp/drums/hihat.h \n
 103:../../DaisyExamples/DaisySP//Source/Drums/hihat.h ****        to an independent module. \n
 104:../../DaisyExamples/DaisySP//Source/Drums/hihat.h ****        Original code written by Emilie Gillet in 2016. \n
 105:../../DaisyExamples/DaisySP//Source/Drums/hihat.h **** */
 106:../../DaisyExamples/DaisySP//Source/Drums/hihat.h **** template <typename MetallicNoiseSource = SquareNoise,
 107:../../DaisyExamples/DaisySP//Source/Drums/hihat.h ****           typename VCA                 = LinearVCA,
 108:../../DaisyExamples/DaisySP//Source/Drums/hihat.h ****           bool resonance               = true>
 109:../../DaisyExamples/DaisySP//Source/Drums/hihat.h **** class HiHat
 110:../../DaisyExamples/DaisySP//Source/Drums/hihat.h **** {
 111:../../DaisyExamples/DaisySP//Source/Drums/hihat.h ****   public:
 112:../../DaisyExamples/DaisySP//Source/Drums/hihat.h ****     HiHat() {}
 113:../../DaisyExamples/DaisySP//Source/Drums/hihat.h ****     ~HiHat() {}
 280              		.loc 13 113 5 is_stmt 1 view -0
 281              		.cfi_startproc
 282              		@ args = 0, pretend = 0, frame = 0
 283              		@ frame_needed = 0, uses_anonymous_args = 0
 284              		@ link register save eliminated.
 285              	.LBB392:
ARM GAS  /var/folders/b5/3l92j93d5t1__l78tfntmwyr0000gn/T//ccqKg67w.s 			page 18


 286              	.LBI392:
 287              		.loc 9 22 5 view .LVU38
 288              		.loc 9 22 5 is_stmt 0 view .LVU39
 289              	.LBE392:
 290              	.LBB393:
 291              	.LBI393:
 292              		.loc 9 22 5 is_stmt 1 view .LVU40
 293              		.loc 9 22 5 is_stmt 0 view .LVU41
 294              	.LBE393:
 295              	.LBB394:
 296              	.LBI394:
  28:../../DaisyExamples/DaisySP//Source/Drums/hihat.h **** 
 297              		.loc 13 28 5 is_stmt 1 view .LVU42
  28:../../DaisyExamples/DaisySP//Source/Drums/hihat.h **** 
 298              		.loc 13 28 5 is_stmt 0 view .LVU43
 299              	.LBE394:
 300              		.loc 13 113 15 view .LVU44
 301 0000 7047     		bx	lr
 302              		.cfi_endproc
 303              	.LFE5441:
 305              		.weak	_ZN7daisysp5HiHatINS_11SquareNoiseENS_9LinearVCAELb1EED1Ev
 306              		.thumb_set _ZN7daisysp5HiHatINS_11SquareNoiseENS_9LinearVCAELb1EED1Ev,_ZN7daisysp5HiHatINS_11Squar
 307 0002 00BF     		.section	.text._Z12clearPatternv,"ax",%progbits
 308              		.align	1
 309              		.p2align 2,,3
 310              		.global	_Z12clearPatternv
 311              		.syntax unified
 312              		.thumb
 313              		.thumb_func
 315              	_Z12clearPatternv:
 316              	.LFB4852:
 317              		.file 14 "MachineDaisyFile.cpp"
   1:MachineDaisyFile.cpp **** #include "daisy_seed.h"
   2:MachineDaisyFile.cpp **** #include "daisysp.h"
   3:MachineDaisyFile.cpp **** #include "../EZ_DSP/EZ_DSP.h"
   4:MachineDaisyFile.cpp **** 
   5:MachineDaisyFile.cpp **** #define MAX_DELAY 96000
   6:MachineDaisyFile.cpp **** #define NUM_STEPS 8
   7:MachineDaisyFile.cpp **** 
   8:MachineDaisyFile.cpp **** using namespace daisy;
   9:MachineDaisyFile.cpp **** using namespace daisysp;
  10:MachineDaisyFile.cpp **** 
  11:MachineDaisyFile.cpp **** constexpr Pin BUTTONS     = seed::D15;
  12:MachineDaisyFile.cpp **** constexpr Pin SELECTOR    = seed::D16;
  13:MachineDaisyFile.cpp **** constexpr Pin TEMPO_MULT   = seed::D17;
  14:MachineDaisyFile.cpp **** constexpr Pin TEMPO       = seed::D18;
  15:MachineDaisyFile.cpp **** constexpr Pin TEMPO_MOD   = seed::D19;
  16:MachineDaisyFile.cpp **** 
  17:MachineDaisyFile.cpp **** static DaisySeed hw;
  18:MachineDaisyFile.cpp **** static AdcHandle adc;
  19:MachineDaisyFile.cpp **** 
  20:MachineDaisyFile.cpp **** 
  21:MachineDaisyFile.cpp **** enum drumModes
  22:MachineDaisyFile.cpp **** {
  23:MachineDaisyFile.cpp **** 	KICK, SNARE, HAT, SYNTH_KICK
  24:MachineDaisyFile.cpp **** };
  25:MachineDaisyFile.cpp **** 
ARM GAS  /var/folders/b5/3l92j93d5t1__l78tfntmwyr0000gn/T//ccqKg67w.s 			page 19


  26:MachineDaisyFile.cpp **** int drumMode = 0;
  27:MachineDaisyFile.cpp **** Switch selector, tempoModON;// selector: Drum sound changes when pressed, tempoModOn: holding down 
  28:MachineDaisyFile.cpp **** float buttonValue;
  29:MachineDaisyFile.cpp **** 
  30:MachineDaisyFile.cpp **** //====================================================================================
  31:MachineDaisyFile.cpp **** Metro tick;
  32:MachineDaisyFile.cpp **** AnalogBassDrum kick;
  33:MachineDaisyFile.cpp **** HiHat<SquareNoise, LinearVCA, true> hat;
  34:MachineDaisyFile.cpp **** SyntheticBassDrum synthKick;
  35:MachineDaisyFile.cpp **** SyntheticSnareDrum snare;
  36:MachineDaisyFile.cpp **** AdEnv kickEnv, snareEnv, hatEnv, synthEnv;
  37:MachineDaisyFile.cpp **** //EZ_DSP::DelayLine<float, MAX_DELAY> DSY_SDRAM_BSS del;
  38:MachineDaisyFile.cpp **** 
  39:MachineDaisyFile.cpp **** //EZ_DSP::kickDrum ourKick;
  40:MachineDaisyFile.cpp **** 
  41:MachineDaisyFile.cpp **** bool snares[8] = {false, false, false, false, false, false, false, false};
  42:MachineDaisyFile.cpp **** bool kicks[8] = {false, false, false, false, false, false, false, false};
  43:MachineDaisyFile.cpp **** bool hats[8] = {false, false, false, false, false, false, false, false};
  44:MachineDaisyFile.cpp **** bool synths[8] = {false, false, false, false, false, false, false, false};
  45:MachineDaisyFile.cpp **** 
  46:MachineDaisyFile.cpp **** int step=0;
  47:MachineDaisyFile.cpp **** bool patternIn = false;
  48:MachineDaisyFile.cpp **** bool tempoMode = true; //true = Double Time when timeMod pressed, false = half-time
  49:MachineDaisyFile.cpp **** float tempoKnobValue, onSwitchValue, tempoMult;
  50:MachineDaisyFile.cpp **** uint32_t debounceDelay = 100000; // 100000us 100ms
  51:MachineDaisyFile.cpp **** uint32_t lastDebounceTime = 0;
  52:MachineDaisyFile.cpp **** 
  53:MachineDaisyFile.cpp **** float delFeedback = .5f, delTime = .25f*48000, delWet = .5f;
  54:MachineDaisyFile.cpp **** //====================================================================================
  55:MachineDaisyFile.cpp **** // clears drum pattern 
  56:MachineDaisyFile.cpp **** void clearPattern()
  57:MachineDaisyFile.cpp **** {
 318              		.loc 14 57 1 is_stmt 1 view -0
 319              		.cfi_startproc
 320              		@ args = 0, pretend = 0, frame = 0
 321              		@ frame_needed = 0, uses_anonymous_args = 0
 322              		@ link register save eliminated.
  58:MachineDaisyFile.cpp **** 	for (int i=0; i < NUM_STEPS; i++)
 323              		.loc 14 58 2 view .LVU46
 324              	.LVL9:
 325              	.LBB396:
 326              		.loc 14 58 18 view .LVU47
  59:MachineDaisyFile.cpp **** 	{
  60:MachineDaisyFile.cpp **** 		snares[i] = kicks[i] = hats[i] = synths[i] = false;
 327              		.loc 14 60 46 is_stmt 0 view .LVU48
 328 0000 0023     		movs	r3, #0
 329              		.loc 14 60 34 view .LVU49
 330 0002 0948     		ldr	r0, .L13
 331              		.loc 14 60 24 view .LVU50
 332 0004 0949     		ldr	r1, .L13+4
 333              		.loc 14 60 13 view .LVU51
 334 0006 0A4A     		ldr	r2, .L13+8
 335              	.LBE396:
  57:MachineDaisyFile.cpp **** 	for (int i=0; i < NUM_STEPS; i++)
 336              		.loc 14 57 1 view .LVU52
 337 0008 10B4     		push	{r4}
 338              		.cfi_def_cfa_offset 4
ARM GAS  /var/folders/b5/3l92j93d5t1__l78tfntmwyr0000gn/T//ccqKg67w.s 			page 20


 339              		.cfi_offset 4, -4
 340              	.LBB397:
 341              		.loc 14 60 34 view .LVU53
 342 000a C0E90033 		strd	r3, r3, [r0]
 343              		.loc 14 60 46 view .LVU54
 344 000e 094C     		ldr	r4, .L13+12
 345              	.LBE397:
  61:MachineDaisyFile.cpp **** 	}
  62:MachineDaisyFile.cpp **** 	patternIn = false;
 346              		.loc 14 62 12 view .LVU55
 347 0010 0948     		ldr	r0, .L13+16
 348              	.LBB398:
  60:MachineDaisyFile.cpp **** 	}
 349              		.loc 14 60 46 view .LVU56
 350 0012 C4E90033 		strd	r3, r3, [r4]
  60:MachineDaisyFile.cpp **** 	}
 351              		.loc 14 60 24 view .LVU57
 352 0016 C1E90033 		strd	r3, r3, [r1]
  60:MachineDaisyFile.cpp **** 	}
 353              		.loc 14 60 13 view .LVU58
 354 001a C2E90033 		strd	r3, r3, [r2]
 355              	.LVL10:
  60:MachineDaisyFile.cpp **** 	}
 356              		.loc 14 60 13 view .LVU59
 357              	.LBE398:
 358              		.loc 14 62 2 is_stmt 1 view .LVU60
 359              		.loc 14 62 12 is_stmt 0 view .LVU61
 360 001e 0370     		strb	r3, [r0]
  63:MachineDaisyFile.cpp **** }
 361              		.loc 14 63 1 view .LVU62
 362 0020 5DF8044B 		ldr	r4, [sp], #4
 363              		.cfi_restore 4
 364              		.cfi_def_cfa_offset 0
 365 0024 7047     		bx	lr
 366              	.L14:
 367 0026 00BF     		.align	2
 368              	.L13:
 369 0028 00000000 		.word	.LANCHOR1
 370 002c 00000000 		.word	.LANCHOR2
 371 0030 00000000 		.word	.LANCHOR3
 372 0034 00000000 		.word	.LANCHOR0
 373 0038 00000000 		.word	.LANCHOR4
 374              		.cfi_endproc
 375              	.LFE4852:
 377              		.section	.text._Z15isButtonPressedi,"ax",%progbits
 378              		.align	1
 379              		.p2align 2,,3
 380              		.global	_Z15isButtonPressedi
 381              		.syntax unified
 382              		.thumb
 383              		.thumb_func
 385              	_Z15isButtonPressedi:
 386              	.LVL11:
 387              	.LFB4853:
  64:MachineDaisyFile.cpp **** //====================================================================================
  65:MachineDaisyFile.cpp **** // gets button press for a specific button in the ladder
  66:MachineDaisyFile.cpp **** bool isButtonPressed(int buttonIdx)
ARM GAS  /var/folders/b5/3l92j93d5t1__l78tfntmwyr0000gn/T//ccqKg67w.s 			page 21


  67:MachineDaisyFile.cpp **** {
 388              		.loc 14 67 1 is_stmt 1 view -0
 389              		.cfi_startproc
 390              		@ args = 0, pretend = 0, frame = 0
 391              		@ frame_needed = 0, uses_anonymous_args = 0
  68:MachineDaisyFile.cpp **** 	buttonValue = hw.adc.GetFloat(0);
 392              		.loc 14 68 2 view .LVU64
  67:MachineDaisyFile.cpp **** 	buttonValue = hw.adc.GetFloat(0);
 393              		.loc 14 67 1 is_stmt 0 view .LVU65
 394 0000 10B5     		push	{r4, lr}
 395              		.cfi_def_cfa_offset 8
 396              		.cfi_offset 4, -8
 397              		.cfi_offset 14, -4
 398              		.loc 14 68 31 view .LVU66
 399 0002 0021     		movs	r1, #0
  67:MachineDaisyFile.cpp **** 	buttonValue = hw.adc.GetFloat(0);
 400              		.loc 14 67 1 view .LVU67
 401 0004 0446     		mov	r4, r0
 402              		.loc 14 68 31 view .LVU68
 403 0006 6248     		ldr	r0, .L44
 404              	.LVL12:
 405              		.loc 14 68 31 view .LVU69
 406 0008 FFF7FEFF 		bl	_ZNK5daisy9AdcHandle8GetFloatEh
 407              	.LVL13:
  69:MachineDaisyFile.cpp **** 	buttonValue = EZ_DSP::fmap(buttonValue, 0, 3300); // maps 0-1 value to milliamp values
 408              		.loc 14 69 2 is_stmt 1 view .LVU70
 409              	.LBB399:
 410              	.LBI399:
 411              		.file 15 "../EZ_DSP/dsp.h"
   1:../EZ_DSP/dsp.h **** #pragma once
   2:../EZ_DSP/dsp.h **** #ifndef EZ_DSP_UTIL
   3:../EZ_DSP/dsp.h **** #define EZ_DSP_UTIL
   4:../EZ_DSP/dsp.h **** #include <cassert>
   5:../EZ_DSP/dsp.h **** #include <cstdint>
   6:../EZ_DSP/dsp.h **** #include <random>
   7:../EZ_DSP/dsp.h **** #include <cmath>
   8:../EZ_DSP/dsp.h **** 
   9:../EZ_DSP/dsp.h **** #define PI_F 3.1415927410125732421875f
  10:../EZ_DSP/dsp.h **** #define TWOPI_F (2.0f * PI_F)
  11:../EZ_DSP/dsp.h **** #define HALFPI_F (PI_F * 0.5f)
  12:../EZ_DSP/dsp.h **** namespace EZ_DSP 
  13:../EZ_DSP/dsp.h **** {
  14:../EZ_DSP/dsp.h ****     // fast maximum and minimum for floats, uses assembly if arm architecture
  15:../EZ_DSP/dsp.h ****     inline float fmax(float a, float b)
  16:../EZ_DSP/dsp.h ****     {
  17:../EZ_DSP/dsp.h ****         float max;
  18:../EZ_DSP/dsp.h ****         #ifdef __arm__
  19:../EZ_DSP/dsp.h ****             asm("vmaxnm.f32 %[d], %[n], %[m]" : [d] "=t"(max) : [n] "t"(a), [m] "t"(b) :);
  20:../EZ_DSP/dsp.h ****         #else
  21:../EZ_DSP/dsp.h ****             max = (a > b) ? a : b;
  22:../EZ_DSP/dsp.h ****         #endif // __arm__
  23:../EZ_DSP/dsp.h ****             return max;
  24:../EZ_DSP/dsp.h ****     }
  25:../EZ_DSP/dsp.h **** 
  26:../EZ_DSP/dsp.h ****     inline float fmin(float a, float b)
  27:../EZ_DSP/dsp.h ****     {
  28:../EZ_DSP/dsp.h ****         float min;
ARM GAS  /var/folders/b5/3l92j93d5t1__l78tfntmwyr0000gn/T//ccqKg67w.s 			page 22


  29:../EZ_DSP/dsp.h ****         #ifdef __arm__
  30:../EZ_DSP/dsp.h ****             asm("vminnm.f32 %[d], %[n], %[m]" : [d] "=t"(min) : [n] "t"(a), [m] "t"(b) :);
  31:../EZ_DSP/dsp.h ****         #else 
  32:../EZ_DSP/dsp.h ****             min = a < b ? a : b;
  33:../EZ_DSP/dsp.h ****         #endif //__arm__
  34:../EZ_DSP/dsp.h ****             return min;
  35:../EZ_DSP/dsp.h ****     }
  36:../EZ_DSP/dsp.h ****     // clamp for floats
  37:../EZ_DSP/dsp.h ****     inline float fclamp(float in, float min, float max)
  38:../EZ_DSP/dsp.h ****     {
  39:../EZ_DSP/dsp.h ****         return fmin(fmax(in,min),max);
  40:../EZ_DSP/dsp.h ****     }    
  41:../EZ_DSP/dsp.h ****     // max, min and clamp for integers
  42:../EZ_DSP/dsp.h ****    inline int maxInt(int a, int b)
  43:../EZ_DSP/dsp.h ****     {
  44:../EZ_DSP/dsp.h ****         int max;
  45:../EZ_DSP/dsp.h ****         max = (a > b) ? a : b;
  46:../EZ_DSP/dsp.h ****         return max;
  47:../EZ_DSP/dsp.h ****     }
  48:../EZ_DSP/dsp.h ****     inline int minInt(int a, int b)
  49:../EZ_DSP/dsp.h ****     {
  50:../EZ_DSP/dsp.h ****         int min;
  51:../EZ_DSP/dsp.h ****         min = (a < b) ? a : b;
  52:../EZ_DSP/dsp.h ****         return min;
  53:../EZ_DSP/dsp.h ****     }
  54:../EZ_DSP/dsp.h ****     inline int clampInt(int in, int min, int max)
  55:../EZ_DSP/dsp.h ****     {
  56:../EZ_DSP/dsp.h ****         return minInt(maxInt(in,min), max);
  57:../EZ_DSP/dsp.h ****     }
  58:../EZ_DSP/dsp.h ****     // maps a float input to values between float mininmum and maximum
  59:../EZ_DSP/dsp.h ****     // assumes 0-1 input
  60:../EZ_DSP/dsp.h ****     inline float fmap(float in, float min, float max)
 412              		.loc 15 60 18 view .LVU71
 413              	.LBB400:
  61:../EZ_DSP/dsp.h ****     {
  62:../EZ_DSP/dsp.h **** 	    return fclamp(min + in * (max - min), min, max);
 414              		.loc 15 62 6 view .LVU72
 415              		.loc 15 62 19 is_stmt 0 view .LVU73
 416 000c DFED617A 		vldr.32	s15, .L44+4
 417 0010 DFED616A 		vldr.32	s13, .L44+8
 418 0014 B0EE677A 		vmov.f32	s14, s15
 419              	.LBE400:
 420              	.LBE399:
  70:MachineDaisyFile.cpp **** 	if (buttonValue < 100 && buttonIdx == 0)
 421              		.loc 14 70 2 view .LVU74
 422 0018 9FED606A 		vldr.32	s12, .L44+12
  69:MachineDaisyFile.cpp **** 	if (buttonValue < 100 && buttonIdx == 0)
 423              		.loc 14 69 14 view .LVU75
 424 001c 604B     		ldr	r3, .L44+16
 425              	.LBB409:
 426              	.LBB407:
 427              		.loc 15 62 19 view .LVU76
 428 001e A0EE267A 		vfma.f32	s14, s0, s13
 429              	.LVL14:
 430              	.LBB401:
 431              	.LBI401:
  37:../EZ_DSP/dsp.h ****     {
ARM GAS  /var/folders/b5/3l92j93d5t1__l78tfntmwyr0000gn/T//ccqKg67w.s 			page 23


 432              		.loc 15 37 18 is_stmt 1 view .LVU77
 433              	.LBE401:
 434              	.LBE407:
 435              	.LBE409:
  39:../EZ_DSP/dsp.h ****     }    
 436              		.loc 15 39 9 view .LVU78
 437              	.LBB410:
 438              	.LBB408:
 439              	.LBB406:
 440              	.LBB402:
 441              	.LBI402:
  15:../EZ_DSP/dsp.h ****     {
 442              		.loc 15 15 18 view .LVU79
 443              	.LBB403:
  17:../EZ_DSP/dsp.h ****         #ifdef __arm__
 444              		.loc 15 17 9 view .LVU80
  19:../EZ_DSP/dsp.h ****         #else
 445              		.loc 15 19 13 view .LVU81
 446              		.syntax unified
 447              	@ 19 "../EZ_DSP/dsp.h" 1
 448 0022 C7FE277A 		vmaxnm.f32 s15, s14, s15
 449              	@ 0 "" 2
 450              	.LVL15:
  23:../EZ_DSP/dsp.h ****     }
 451              		.loc 15 23 13 view .LVU82
  23:../EZ_DSP/dsp.h ****     }
 452              		.loc 15 23 13 is_stmt 0 view .LVU83
 453              		.thumb
 454              		.syntax unified
 455              	.LBE403:
 456              	.LBE402:
 457              	.LBB404:
 458              	.LBI404:
  26:../EZ_DSP/dsp.h ****     {
 459              		.loc 15 26 18 is_stmt 1 view .LVU84
 460              	.LBB405:
  28:../EZ_DSP/dsp.h ****         #ifdef __arm__
 461              		.loc 15 28 9 view .LVU85
  30:../EZ_DSP/dsp.h ****         #else 
 462              		.loc 15 30 13 view .LVU86
 463              		.syntax unified
 464              	@ 30 "../EZ_DSP/dsp.h" 1
 465 0026 C7FEE67A 		vminnm.f32 s15, s15, s13
 466              	@ 0 "" 2
 467              	.LVL16:
  34:../EZ_DSP/dsp.h ****     }
 468              		.loc 15 34 13 view .LVU87
  34:../EZ_DSP/dsp.h ****     }
 469              		.loc 15 34 13 is_stmt 0 view .LVU88
 470              		.thumb
 471              		.syntax unified
 472              	.LBE405:
 473              	.LBE404:
 474              	.LBE406:
 475              	.LBE408:
 476              	.LBE410:
 477              		.loc 14 70 2 view .LVU89
ARM GAS  /var/folders/b5/3l92j93d5t1__l78tfntmwyr0000gn/T//ccqKg67w.s 			page 24


 478 002a F4EEC67A 		vcmpe.f32	s15, s12
  69:MachineDaisyFile.cpp **** 	if (buttonValue < 100 && buttonIdx == 0)
 479              		.loc 14 69 14 view .LVU90
 480 002e C3ED007A 		vstr.32	s15, [r3]
 481              		.loc 14 70 2 is_stmt 1 view .LVU91
 482 0032 F1EE10FA 		vmrs	APSR_nzcv, FPSCR
 483 0036 4CBF     		ite	mi
 484 0038 0120     		movmi	r0, #1
 485 003a 0020     		movpl	r0, #0
 486              		.loc 14 70 24 is_stmt 0 view .LVU92
 487 003c 002C     		cmp	r4, #0
 488 003e 14BF     		ite	ne
 489 0040 0020     		movne	r0, #0
 490 0042 00F00100 		andeq	r0, r0, #1
 491 0046 0028     		cmp	r0, #0
 492 0048 40F09E80 		bne	.L16
  71:MachineDaisyFile.cpp **** 		return true;
  72:MachineDaisyFile.cpp **** 	if (buttonValue > 200 && buttonValue < 600 && buttonIdx == 1)
 493              		.loc 14 72 2 is_stmt 1 view .LVU93
 494 004c 9FED557A 		vldr.32	s14, .L44+20
 495 0050 F4EEC77A 		vcmpe.f32	s15, s14
 496 0054 F1EE10FA 		vmrs	APSR_nzcv, FPSCR
 497 0058 10DD     		ble	.L17
 498              		.loc 14 72 24 is_stmt 0 discriminator 2 view .LVU94
 499 005a 9FED537A 		vldr.32	s14, .L44+24
 500 005e F4EEC77A 		vcmpe.f32	s15, s14
 501 0062 F1EE10FA 		vmrs	APSR_nzcv, FPSCR
 502 0066 4CBF     		ite	mi
 503 0068 0123     		movmi	r3, #1
 504 006a 0023     		movpl	r3, #0
 505              		.loc 14 72 45 discriminator 2 view .LVU95
 506 006c 012C     		cmp	r4, #1
 507 006e 14BF     		ite	ne
 508 0070 0023     		movne	r3, #0
 509 0072 03F00103 		andeq	r3, r3, #1
 510 0076 002B     		cmp	r3, #0
 511 0078 40F08780 		bne	.L35
 512              	.L17:
  73:MachineDaisyFile.cpp **** 		return true;
  74:MachineDaisyFile.cpp **** 	if (buttonValue > 600 && buttonValue < 1000 && buttonIdx == 2)
 513              		.loc 14 74 2 is_stmt 1 view .LVU96
 514 007c 9FED4A7A 		vldr.32	s14, .L44+24
 515 0080 F4EEC77A 		vcmpe.f32	s15, s14
 516 0084 F1EE10FA 		vmrs	APSR_nzcv, FPSCR
 517 0088 0FDD     		ble	.L19
 518              		.loc 14 74 24 is_stmt 0 discriminator 2 view .LVU97
 519 008a 9FED487A 		vldr.32	s14, .L44+28
 520 008e F4EEC77A 		vcmpe.f32	s15, s14
 521 0092 F1EE10FA 		vmrs	APSR_nzcv, FPSCR
 522 0096 4CBF     		ite	mi
 523 0098 0123     		movmi	r3, #1
 524 009a 0023     		movpl	r3, #0
 525              		.loc 14 74 46 discriminator 2 view .LVU98
 526 009c 022C     		cmp	r4, #2
 527 009e 14BF     		ite	ne
 528 00a0 0023     		movne	r3, #0
 529 00a2 03F00103 		andeq	r3, r3, #1
ARM GAS  /var/folders/b5/3l92j93d5t1__l78tfntmwyr0000gn/T//ccqKg67w.s 			page 25


 530 00a6 002B     		cmp	r3, #0
 531 00a8 6FD1     		bne	.L35
 532              	.L19:
  75:MachineDaisyFile.cpp **** 		return true;
  76:MachineDaisyFile.cpp **** 	if (buttonValue > 1000 && buttonValue < 1400 && buttonIdx == 3)
 533              		.loc 14 76 2 is_stmt 1 view .LVU99
 534 00aa 9FED407A 		vldr.32	s14, .L44+28
 535 00ae F4EEC77A 		vcmpe.f32	s15, s14
 536 00b2 F1EE10FA 		vmrs	APSR_nzcv, FPSCR
 537 00b6 0FDD     		ble	.L21
 538              		.loc 14 76 25 is_stmt 0 discriminator 2 view .LVU100
 539 00b8 9FED3D7A 		vldr.32	s14, .L44+32
 540 00bc F4EEC77A 		vcmpe.f32	s15, s14
 541 00c0 F1EE10FA 		vmrs	APSR_nzcv, FPSCR
 542 00c4 4CBF     		ite	mi
 543 00c6 0123     		movmi	r3, #1
 544 00c8 0023     		movpl	r3, #0
 545              		.loc 14 76 47 discriminator 2 view .LVU101
 546 00ca 032C     		cmp	r4, #3
 547 00cc 14BF     		ite	ne
 548 00ce 0023     		movne	r3, #0
 549 00d0 03F00103 		andeq	r3, r3, #1
 550 00d4 002B     		cmp	r3, #0
 551 00d6 58D1     		bne	.L35
 552              	.L21:
  77:MachineDaisyFile.cpp **** 		return true;
  78:MachineDaisyFile.cpp **** 	if (buttonValue > 1400 && buttonValue < 1800 && buttonIdx == 4)
 553              		.loc 14 78 2 is_stmt 1 view .LVU102
 554 00d8 9FED357A 		vldr.32	s14, .L44+32
 555 00dc F4EEC77A 		vcmpe.f32	s15, s14
 556 00e0 F1EE10FA 		vmrs	APSR_nzcv, FPSCR
 557 00e4 0FDD     		ble	.L23
 558              		.loc 14 78 25 is_stmt 0 discriminator 2 view .LVU103
 559 00e6 9FED337A 		vldr.32	s14, .L44+36
 560 00ea F4EEC77A 		vcmpe.f32	s15, s14
 561 00ee F1EE10FA 		vmrs	APSR_nzcv, FPSCR
 562 00f2 4CBF     		ite	mi
 563 00f4 0123     		movmi	r3, #1
 564 00f6 0023     		movpl	r3, #0
 565              		.loc 14 78 47 discriminator 2 view .LVU104
 566 00f8 042C     		cmp	r4, #4
 567 00fa 14BF     		ite	ne
 568 00fc 0023     		movne	r3, #0
 569 00fe 03F00103 		andeq	r3, r3, #1
 570 0102 002B     		cmp	r3, #0
 571 0104 41D1     		bne	.L35
 572              	.L23:
  79:MachineDaisyFile.cpp **** 		return true;
  80:MachineDaisyFile.cpp **** 	if (buttonValue > 1800 && buttonValue < 2200 && buttonIdx == 5)
 573              		.loc 14 80 2 is_stmt 1 view .LVU105
 574 0106 9FED2B7A 		vldr.32	s14, .L44+36
 575 010a F4EEC77A 		vcmpe.f32	s15, s14
 576 010e F1EE10FA 		vmrs	APSR_nzcv, FPSCR
 577 0112 0EDD     		ble	.L25
 578              		.loc 14 80 25 is_stmt 0 discriminator 2 view .LVU106
 579 0114 9FED287A 		vldr.32	s14, .L44+40
 580 0118 F4EEC77A 		vcmpe.f32	s15, s14
ARM GAS  /var/folders/b5/3l92j93d5t1__l78tfntmwyr0000gn/T//ccqKg67w.s 			page 26


 581 011c F1EE10FA 		vmrs	APSR_nzcv, FPSCR
 582 0120 4CBF     		ite	mi
 583 0122 0123     		movmi	r3, #1
 584 0124 0023     		movpl	r3, #0
 585              		.loc 14 80 47 discriminator 2 view .LVU107
 586 0126 052C     		cmp	r4, #5
 587 0128 14BF     		ite	ne
 588 012a 0023     		movne	r3, #0
 589 012c 03F00103 		andeq	r3, r3, #1
 590 0130 5BBB     		cbnz	r3, .L35
 591              	.L25:
  81:MachineDaisyFile.cpp **** 		return true;
  82:MachineDaisyFile.cpp **** 	if (buttonValue > 2200 && buttonValue < 2600 && buttonIdx == 6)
 592              		.loc 14 82 2 is_stmt 1 view .LVU108
 593 0132 9FED217A 		vldr.32	s14, .L44+40
 594 0136 F4EEC77A 		vcmpe.f32	s15, s14
 595 013a F1EE10FA 		vmrs	APSR_nzcv, FPSCR
 596 013e 0EDD     		ble	.L27
 597              		.loc 14 82 25 is_stmt 0 discriminator 2 view .LVU109
 598 0140 9FED1E7A 		vldr.32	s14, .L44+44
 599 0144 F4EEC77A 		vcmpe.f32	s15, s14
 600 0148 F1EE10FA 		vmrs	APSR_nzcv, FPSCR
 601 014c 4CBF     		ite	mi
 602 014e 0123     		movmi	r3, #1
 603 0150 0023     		movpl	r3, #0
 604              		.loc 14 82 47 discriminator 2 view .LVU110
 605 0152 062C     		cmp	r4, #6
 606 0154 14BF     		ite	ne
 607 0156 0023     		movne	r3, #0
 608 0158 03F00103 		andeq	r3, r3, #1
 609 015c ABB9     		cbnz	r3, .L35
 610              	.L27:
  83:MachineDaisyFile.cpp **** 		return true;
  84:MachineDaisyFile.cpp **** 	if (buttonValue > 2600 && buttonValue < 3000 && buttonIdx == 7)
 611              		.loc 14 84 2 is_stmt 1 view .LVU111
 612 015e 9FED177A 		vldr.32	s14, .L44+44
 613 0162 F4EEC77A 		vcmpe.f32	s15, s14
 614 0166 F1EE10FA 		vmrs	APSR_nzcv, FPSCR
 615 016a 0DDD     		ble	.L16
 616              		.loc 14 84 25 is_stmt 0 discriminator 2 view .LVU112
 617 016c 9FED147A 		vldr.32	s14, .L44+48
 618 0170 F4EEC77A 		vcmpe.f32	s15, s14
 619 0174 F1EE10FA 		vmrs	APSR_nzcv, FPSCR
 620 0178 4CBF     		ite	mi
 621 017a 0120     		movmi	r0, #1
 622 017c 0020     		movpl	r0, #0
 623              		.loc 14 84 47 discriminator 2 view .LVU113
 624 017e 072C     		cmp	r4, #7
 625 0180 14BF     		ite	ne
 626 0182 0020     		movne	r0, #0
 627 0184 00F00100 		andeq	r0, r0, #1
 628              	.L16:
  85:MachineDaisyFile.cpp **** 		return true;
  86:MachineDaisyFile.cpp **** 	else return false;
  87:MachineDaisyFile.cpp **** }
 629              		.loc 14 87 1 view .LVU114
 630 0188 10BD     		pop	{r4, pc}
ARM GAS  /var/folders/b5/3l92j93d5t1__l78tfntmwyr0000gn/T//ccqKg67w.s 			page 27


 631              	.LVL17:
 632              	.L35:
  71:MachineDaisyFile.cpp **** 	if (buttonValue > 200 && buttonValue < 600 && buttonIdx == 1)
 633              		.loc 14 71 10 view .LVU115
 634 018a 1846     		mov	r0, r3
 635              		.loc 14 87 1 view .LVU116
 636 018c 10BD     		pop	{r4, pc}
 637              	.LVL18:
 638              	.L45:
 639              		.loc 14 87 1 view .LVU117
 640 018e 00BF     		.align	2
 641              	.L44:
 642 0190 18000000 		.word	.LANCHOR5+24
 643 0194 00000000 		.word	0
 644 0198 00404E45 		.word	1162756096
 645 019c 0000C842 		.word	1120403456
 646 01a0 00000000 		.word	.LANCHOR6
 647 01a4 00004843 		.word	1128792064
 648 01a8 00001644 		.word	1142292480
 649 01ac 00007A44 		.word	1148846080
 650 01b0 0000AF44 		.word	1152319488
 651 01b4 0000E144 		.word	1155596288
 652 01b8 00800945 		.word	1158250496
 653 01bc 00802245 		.word	1159888896
 654 01c0 00803B45 		.word	1161527296
 655              		.cfi_endproc
 656              	.LFE4853:
 658              		.section	.text._Z14processButtonsv.part.0,"ax",%progbits
 659              		.align	1
 660              		.p2align 2,,3
 661              		.syntax unified
 662              		.thumb
 663              		.thumb_func
 665              	_Z14processButtonsv.part.0:
 666              	.LFB5445:
  88:MachineDaisyFile.cpp **** //====================================================================================
  89:MachineDaisyFile.cpp **** // gets button ladder presses and assigns them to boolean arrays 
  90:MachineDaisyFile.cpp **** void processButtons()
 667              		.loc 14 90 6 is_stmt 1 view -0
 668              		.cfi_startproc
 669              		@ args = 0, pretend = 0, frame = 0
 670              		@ frame_needed = 0, uses_anonymous_args = 0
 671              	.LVL19:
 672              	.LBB411:
 673              	.LBB412:
  91:MachineDaisyFile.cpp **** {
  92:MachineDaisyFile.cpp **** 	if (System::GetUs() - lastDebounceTime > debounceDelay)
  93:MachineDaisyFile.cpp **** 	{
  94:MachineDaisyFile.cpp **** 		for (int i = 0; i < NUM_STEPS; i++)
 674              		.loc 14 94 21 view .LVU119
 675              	.LBE412:
 676              	.LBE411:
  90:MachineDaisyFile.cpp **** {
 677              		.loc 14 90 6 is_stmt 0 view .LVU120
 678 0000 2DE9F843 		push	{r3, r4, r5, r6, r7, r8, r9, lr}
 679              		.cfi_def_cfa_offset 32
 680              		.cfi_offset 3, -32
ARM GAS  /var/folders/b5/3l92j93d5t1__l78tfntmwyr0000gn/T//ccqKg67w.s 			page 28


 681              		.cfi_offset 4, -28
 682              		.cfi_offset 5, -24
 683              		.cfi_offset 6, -20
 684              		.cfi_offset 7, -16
 685              		.cfi_offset 8, -12
 686              		.cfi_offset 9, -8
 687              		.cfi_offset 14, -4
 688 0004 DFF88480 		ldr	r8, .L60+24
 689 0008 1A4F     		ldr	r7, .L60
 690 000a 1B4E     		ldr	r6, .L60+4
 691 000c 08F10809 		add	r9, r8, #8
 692 0010 1A4D     		ldr	r5, .L60+8
  90:MachineDaisyFile.cpp **** {
 693              		.loc 14 90 6 view .LVU121
 694 0012 4446     		mov	r4, r8
 695              	.LVL20:
 696              	.L54:
 697              	.LBB415:
 698              	.LBB413:
  95:MachineDaisyFile.cpp **** 	    {
  96:MachineDaisyFile.cpp **** 			if (isButtonPressed(i))
 699              		.loc 14 96 4 is_stmt 1 view .LVU122
 700              		.loc 14 96 23 is_stmt 0 view .LVU123
 701 0014 A4EB0800 		sub	r0, r4, r8
 702              	.LVL21:
 703              		.loc 14 96 23 view .LVU124
 704 0018 FFF7FEFF 		bl	_Z15isButtonPressedi
 705              	.LVL22:
  97:MachineDaisyFile.cpp **** 	    	{
  98:MachineDaisyFile.cpp **** 	    	    switch (drumMode)
 706              		.loc 14 98 11 is_stmt 1 view .LVU125
 707 001c 184B     		ldr	r3, .L60+12
  96:MachineDaisyFile.cpp **** 	    	{
 708              		.loc 14 96 4 is_stmt 0 view .LVU126
 709 001e 68B1     		cbz	r0, .L47
 710              		.loc 14 98 11 view .LVU127
 711 0020 1B68     		ldr	r3, [r3]
 712 0022 032B     		cmp	r3, #3
 713 0024 07D8     		bhi	.L48
 714 0026 DFE803F0 		tbb	[pc, r3]
 715              	.L50:
 716 002a 1F       		.byte	(.L53-.L50)/2
 717 002b 1A       		.byte	(.L52-.L50)/2
 718 002c 15       		.byte	(.L51-.L50)/2
 719 002d 02       		.byte	(.L49-.L50)/2
 720              		.p2align 1
 721              	.L49:
  99:MachineDaisyFile.cpp **** 	    	    {
 100:MachineDaisyFile.cpp **** 	    	        case KICK:
 101:MachineDaisyFile.cpp **** 	    	            // Activate the kick drum note in the sequence
 102:MachineDaisyFile.cpp **** 	    	            kicks[i] = !kicks[i];
 103:MachineDaisyFile.cpp **** 	    	            break;
 104:MachineDaisyFile.cpp **** 	    	        case SNARE:
 105:MachineDaisyFile.cpp **** 	    	            // Activate the snare drum note in the sequence
 106:MachineDaisyFile.cpp **** 	    	            snares[i] = !snares[i];
 107:MachineDaisyFile.cpp **** 	    	            break;
 108:MachineDaisyFile.cpp **** 	    	        case HAT:
ARM GAS  /var/folders/b5/3l92j93d5t1__l78tfntmwyr0000gn/T//ccqKg67w.s 			page 29


 109:MachineDaisyFile.cpp **** 	    	            // Activate the hi-hat note in the sequence
 110:MachineDaisyFile.cpp **** 	    	            hats[i] = !hats[i];
 111:MachineDaisyFile.cpp **** 	    	            break;
 112:MachineDaisyFile.cpp **** 	    	        case SYNTH_KICK:
 722              		.loc 14 112 15 is_stmt 1 view .LVU128
 113:MachineDaisyFile.cpp **** 	    	            // Activate the synthetic kick drum note in the sequence
 114:MachineDaisyFile.cpp **** 	    	            synths[i] = !synths[i];
 723              		.loc 14 114 19 view .LVU129
 724              		.loc 14 114 31 is_stmt 0 view .LVU130
 725 002e 3B78     		ldrb	r3, [r7]	@ zero_extendqisi2
 726 0030 83F00103 		eor	r3, r3, #1
 727              		.loc 14 114 29 view .LVU131
 728 0034 3B70     		strb	r3, [r7]
 115:MachineDaisyFile.cpp **** 	    	            break;
 729              		.loc 14 115 19 is_stmt 1 view .LVU132
 730              	.L48:
 116:MachineDaisyFile.cpp **** 	    	        // Add more cases for other drum modes if needed
 117:MachineDaisyFile.cpp **** 	    	    }
 118:MachineDaisyFile.cpp **** 				patternIn = true;
 731              		.loc 14 118 5 view .LVU133
 732              		.loc 14 118 15 is_stmt 0 view .LVU134
 733 0036 134B     		ldr	r3, .L60+16
 734 0038 0122     		movs	r2, #1
 735 003a 1A70     		strb	r2, [r3]
 736              	.L47:
  94:MachineDaisyFile.cpp **** 	    {
 737              		.loc 14 94 3 is_stmt 1 view .LVU135
 738              	.LVL23:
  94:MachineDaisyFile.cpp **** 	    {
 739              		.loc 14 94 21 view .LVU136
 740 003c 0134     		adds	r4, r4, #1
 741              	.LVL24:
  94:MachineDaisyFile.cpp **** 	    {
 742              		.loc 14 94 21 is_stmt 0 view .LVU137
 743 003e 0137     		adds	r7, r7, #1
 744 0040 0136     		adds	r6, r6, #1
 745 0042 0135     		adds	r5, r5, #1
 746 0044 4C45     		cmp	r4, r9
 747 0046 E5D1     		bne	.L54
 748              	.LBE413:
 119:MachineDaisyFile.cpp **** 	    	}
 120:MachineDaisyFile.cpp **** 	    }
 121:MachineDaisyFile.cpp **** 		lastDebounceTime = System::GetUs();	
 749              		.loc 14 121 3 is_stmt 1 view .LVU138
 750              		.loc 14 121 35 is_stmt 0 view .LVU139
 751 0048 FFF7FEFF 		bl	_ZN5daisy6System5GetUsEv
 752              	.LVL25:
 753              		.loc 14 121 20 view .LVU140
 754 004c 0E4B     		ldr	r3, .L60+20
 755 004e 1860     		str	r0, [r3]
 756              	.LBE415:
 122:MachineDaisyFile.cpp **** 	}
 123:MachineDaisyFile.cpp **** }
 757              		.loc 14 123 1 view .LVU141
 758 0050 BDE8F883 		pop	{r3, r4, r5, r6, r7, r8, r9, pc}
 759              	.LVL26:
 760              	.L51:
ARM GAS  /var/folders/b5/3l92j93d5t1__l78tfntmwyr0000gn/T//ccqKg67w.s 			page 30


 761              	.LBB416:
 762              	.LBB414:
 108:MachineDaisyFile.cpp **** 	    	            // Activate the hi-hat note in the sequence
 763              		.loc 14 108 15 is_stmt 1 view .LVU142
 110:MachineDaisyFile.cpp **** 	    	            break;
 764              		.loc 14 110 19 view .LVU143
 110:MachineDaisyFile.cpp **** 	    	            break;
 765              		.loc 14 110 29 is_stmt 0 view .LVU144
 766 0054 2378     		ldrb	r3, [r4]	@ zero_extendqisi2
 767 0056 83F00103 		eor	r3, r3, #1
 110:MachineDaisyFile.cpp **** 	    	            break;
 768              		.loc 14 110 27 view .LVU145
 769 005a 2370     		strb	r3, [r4]
 111:MachineDaisyFile.cpp **** 	    	        case SYNTH_KICK:
 770              		.loc 14 111 19 is_stmt 1 view .LVU146
 771 005c EBE7     		b	.L48
 772              	.L52:
 104:MachineDaisyFile.cpp **** 	    	            // Activate the snare drum note in the sequence
 773              		.loc 14 104 15 view .LVU147
 106:MachineDaisyFile.cpp **** 	    	            break;
 774              		.loc 14 106 19 view .LVU148
 106:MachineDaisyFile.cpp **** 	    	            break;
 775              		.loc 14 106 31 is_stmt 0 view .LVU149
 776 005e 2B78     		ldrb	r3, [r5]	@ zero_extendqisi2
 777 0060 83F00103 		eor	r3, r3, #1
 106:MachineDaisyFile.cpp **** 	    	            break;
 778              		.loc 14 106 29 view .LVU150
 779 0064 2B70     		strb	r3, [r5]
 107:MachineDaisyFile.cpp **** 	    	        case HAT:
 780              		.loc 14 107 19 is_stmt 1 view .LVU151
 781 0066 E6E7     		b	.L48
 782              	.L53:
 100:MachineDaisyFile.cpp **** 	    	            // Activate the kick drum note in the sequence
 783              		.loc 14 100 15 view .LVU152
 102:MachineDaisyFile.cpp **** 	    	            break;
 784              		.loc 14 102 19 view .LVU153
 102:MachineDaisyFile.cpp **** 	    	            break;
 785              		.loc 14 102 30 is_stmt 0 view .LVU154
 786 0068 3378     		ldrb	r3, [r6]	@ zero_extendqisi2
 787 006a 83F00103 		eor	r3, r3, #1
 102:MachineDaisyFile.cpp **** 	    	            break;
 788              		.loc 14 102 28 view .LVU155
 789 006e 3370     		strb	r3, [r6]
 103:MachineDaisyFile.cpp **** 	    	        case SNARE:
 790              		.loc 14 103 19 is_stmt 1 view .LVU156
 791 0070 E1E7     		b	.L48
 792              	.L61:
 793 0072 00BF     		.align	2
 794              	.L60:
 795 0074 00000000 		.word	.LANCHOR0
 796 0078 00000000 		.word	.LANCHOR2
 797 007c 00000000 		.word	.LANCHOR3
 798 0080 00000000 		.word	.LANCHOR7
 799 0084 00000000 		.word	.LANCHOR4
 800 0088 00000000 		.word	.LANCHOR8
 801 008c 00000000 		.word	.LANCHOR1
 802              	.LBE414:
ARM GAS  /var/folders/b5/3l92j93d5t1__l78tfntmwyr0000gn/T//ccqKg67w.s 			page 31


 803              	.LBE416:
 804              		.cfi_endproc
 805              	.LFE5445:
 807              		.section	.text._Z14processButtonsv,"ax",%progbits
 808              		.align	1
 809              		.p2align 2,,3
 810              		.global	_Z14processButtonsv
 811              		.syntax unified
 812              		.thumb
 813              		.thumb_func
 815              	_Z14processButtonsv:
 816              	.LFB4854:
  91:MachineDaisyFile.cpp **** 	if (System::GetUs() - lastDebounceTime > debounceDelay)
 817              		.loc 14 91 1 view -0
 818              		.cfi_startproc
 819              		@ args = 0, pretend = 0, frame = 0
 820              		@ frame_needed = 0, uses_anonymous_args = 0
  92:MachineDaisyFile.cpp **** 	{
 821              		.loc 14 92 2 view .LVU158
  91:MachineDaisyFile.cpp **** 	if (System::GetUs() - lastDebounceTime > debounceDelay)
 822              		.loc 14 91 1 is_stmt 0 view .LVU159
 823 0000 08B5     		push	{r3, lr}
 824              		.cfi_def_cfa_offset 8
 825              		.cfi_offset 3, -8
 826              		.cfi_offset 14, -4
 827              	.LBB419:
  92:MachineDaisyFile.cpp **** 	{
 828              		.loc 14 92 19 view .LVU160
 829 0002 FFF7FEFF 		bl	_ZN5daisy6System5GetUsEv
 830              	.LVL27:
  92:MachineDaisyFile.cpp **** 	{
 831              		.loc 14 92 22 view .LVU161
 832 0006 064A     		ldr	r2, .L65
  92:MachineDaisyFile.cpp **** 	{
 833              		.loc 14 92 41 view .LVU162
 834 0008 064B     		ldr	r3, .L65+4
  92:MachineDaisyFile.cpp **** 	{
 835              		.loc 14 92 22 view .LVU163
 836 000a 1268     		ldr	r2, [r2]
  92:MachineDaisyFile.cpp **** 	{
 837              		.loc 14 92 2 view .LVU164
 838 000c 1B68     		ldr	r3, [r3]
  92:MachineDaisyFile.cpp **** 	{
 839              		.loc 14 92 22 view .LVU165
 840 000e 801A     		subs	r0, r0, r2
  92:MachineDaisyFile.cpp **** 	{
 841              		.loc 14 92 2 view .LVU166
 842 0010 9842     		cmp	r0, r3
 843 0012 03D9     		bls	.L62
 844              	.LBE419:
 845              		.loc 14 123 1 discriminator 1 view .LVU167
 846 0014 BDE80840 		pop	{r3, lr}
 847              		.cfi_remember_state
 848              		.cfi_restore 14
 849              		.cfi_restore 3
 850              		.cfi_def_cfa_offset 0
 851 0018 FFF7FEBF 		b	_Z14processButtonsv.part.0
ARM GAS  /var/folders/b5/3l92j93d5t1__l78tfntmwyr0000gn/T//ccqKg67w.s 			page 32


 852              	.LVL28:
 853              	.L62:
 854              		.cfi_restore_state
 855              		.loc 14 123 1 view .LVU168
 856 001c 08BD     		pop	{r3, pc}
 857              	.L66:
 858 001e 00BF     		.align	2
 859              	.L65:
 860 0020 00000000 		.word	.LANCHOR8
 861 0024 00000000 		.word	.LANCHOR9
 862              		.cfi_endproc
 863              	.LFE4854:
 865              		.section	.text._Z13setDrumParamsv,"ax",%progbits
 866              		.align	1
 867              		.p2align 2,,3
 868              		.global	_Z13setDrumParamsv
 869              		.syntax unified
 870              		.thumb
 871              		.thumb_func
 873              	_Z13setDrumParamsv:
 874              	.LFB4855:
 124:MachineDaisyFile.cpp **** //====================================================================================
 125:MachineDaisyFile.cpp **** // sets drum parameters
 126:MachineDaisyFile.cpp **** void setDrumParams()
 127:MachineDaisyFile.cpp **** {
 875              		.loc 14 127 1 is_stmt 1 view -0
 876              		.cfi_startproc
 877              		@ args = 0, pretend = 0, frame = 0
 878              		@ frame_needed = 0, uses_anonymous_args = 0
 128:MachineDaisyFile.cpp **** 	kick.SetFreq(100.f);
 879              		.loc 14 128 2 view .LVU170
 127:MachineDaisyFile.cpp **** 	kick.SetFreq(100.f);
 880              		.loc 14 127 1 is_stmt 0 view .LVU171
 881 0000 08B5     		push	{r3, lr}
 882              		.cfi_def_cfa_offset 8
 883              		.cfi_offset 3, -8
 884              		.cfi_offset 14, -4
 885              		.loc 14 128 14 view .LVU172
 886 0002 9FED230A 		vldr.32	s0, .L69+16
 887 0006 2348     		ldr	r0, .L69+20
 888 0008 FFF7FEFF 		bl	_ZN7daisysp14AnalogBassDrum7SetFreqEf
 889              	.LVL29:
 129:MachineDaisyFile.cpp **** 
 130:MachineDaisyFile.cpp **** 
 131:MachineDaisyFile.cpp **** 	hat.SetAccent(.5f);
 890              		.loc 14 131 2 is_stmt 1 view .LVU173
 891              	.LBB420:
 892              	.LBI420:
 114:../../DaisyExamples/DaisySP//Source/Drums/hihat.h **** 
 115:../../DaisyExamples/DaisySP//Source/Drums/hihat.h ****     /** Initialize the module
 116:../../DaisyExamples/DaisySP//Source/Drums/hihat.h ****         \param sample_rate Audio engine sample rate
 117:../../DaisyExamples/DaisySP//Source/Drums/hihat.h ****     */
 118:../../DaisyExamples/DaisySP//Source/Drums/hihat.h ****     void Init(float sample_rate)
 119:../../DaisyExamples/DaisySP//Source/Drums/hihat.h ****     {
 120:../../DaisyExamples/DaisySP//Source/Drums/hihat.h ****         sample_rate_ = sample_rate;
 121:../../DaisyExamples/DaisySP//Source/Drums/hihat.h **** 
 122:../../DaisyExamples/DaisySP//Source/Drums/hihat.h ****         trig_ = false;
ARM GAS  /var/folders/b5/3l92j93d5t1__l78tfntmwyr0000gn/T//ccqKg67w.s 			page 33


 123:../../DaisyExamples/DaisySP//Source/Drums/hihat.h **** 
 124:../../DaisyExamples/DaisySP//Source/Drums/hihat.h ****         envelope_     = 0.0f;
 125:../../DaisyExamples/DaisySP//Source/Drums/hihat.h ****         noise_clock_  = 0.0f;
 126:../../DaisyExamples/DaisySP//Source/Drums/hihat.h ****         noise_sample_ = 0.0f;
 127:../../DaisyExamples/DaisySP//Source/Drums/hihat.h ****         sustain_gain_ = 0.0f;
 128:../../DaisyExamples/DaisySP//Source/Drums/hihat.h **** 
 129:../../DaisyExamples/DaisySP//Source/Drums/hihat.h ****         SetFreq(3000.f);
 130:../../DaisyExamples/DaisySP//Source/Drums/hihat.h ****         SetTone(.5f);
 131:../../DaisyExamples/DaisySP//Source/Drums/hihat.h ****         SetDecay(.2f);
 132:../../DaisyExamples/DaisySP//Source/Drums/hihat.h ****         SetNoisiness(.8f);
 133:../../DaisyExamples/DaisySP//Source/Drums/hihat.h ****         SetAccent(.8f);
 134:../../DaisyExamples/DaisySP//Source/Drums/hihat.h ****         SetSustain(false);
 135:../../DaisyExamples/DaisySP//Source/Drums/hihat.h **** 
 136:../../DaisyExamples/DaisySP//Source/Drums/hihat.h ****         metallic_noise_.Init(sample_rate_);
 137:../../DaisyExamples/DaisySP//Source/Drums/hihat.h ****         noise_coloration_svf_.Init(sample_rate_);
 138:../../DaisyExamples/DaisySP//Source/Drums/hihat.h ****         hpf_.Init(sample_rate_);
 139:../../DaisyExamples/DaisySP//Source/Drums/hihat.h ****     }
 140:../../DaisyExamples/DaisySP//Source/Drums/hihat.h **** 
 141:../../DaisyExamples/DaisySP//Source/Drums/hihat.h ****     /** Get the next sample
 142:../../DaisyExamples/DaisySP//Source/Drums/hihat.h ****         \param trigger Hit the hihat with true. Defaults to false.
 143:../../DaisyExamples/DaisySP//Source/Drums/hihat.h ****     */
 144:../../DaisyExamples/DaisySP//Source/Drums/hihat.h ****     float Process(bool trigger = false)
 145:../../DaisyExamples/DaisySP//Source/Drums/hihat.h ****     {
 146:../../DaisyExamples/DaisySP//Source/Drums/hihat.h ****         const float envelope_decay
 147:../../DaisyExamples/DaisySP//Source/Drums/hihat.h ****             = 1.0f - 0.003f * SemitonesToRatio(-decay_ * 84.0f);
 148:../../DaisyExamples/DaisySP//Source/Drums/hihat.h ****         const float cut_decay
 149:../../DaisyExamples/DaisySP//Source/Drums/hihat.h ****             = 1.0f - 0.0025f * SemitonesToRatio(-decay_ * 36.0f);
 150:../../DaisyExamples/DaisySP//Source/Drums/hihat.h **** 
 151:../../DaisyExamples/DaisySP//Source/Drums/hihat.h ****         if(trigger || trig_)
 152:../../DaisyExamples/DaisySP//Source/Drums/hihat.h ****         {
 153:../../DaisyExamples/DaisySP//Source/Drums/hihat.h ****             trig_ = false;
 154:../../DaisyExamples/DaisySP//Source/Drums/hihat.h **** 
 155:../../DaisyExamples/DaisySP//Source/Drums/hihat.h ****             envelope_
 156:../../DaisyExamples/DaisySP//Source/Drums/hihat.h ****                 = (1.5f + 0.5f * (1.0f - decay_)) * (0.3f + 0.7f * accent_);
 157:../../DaisyExamples/DaisySP//Source/Drums/hihat.h ****         }
 158:../../DaisyExamples/DaisySP//Source/Drums/hihat.h **** 
 159:../../DaisyExamples/DaisySP//Source/Drums/hihat.h ****         // Process the metallic noise.
 160:../../DaisyExamples/DaisySP//Source/Drums/hihat.h ****         float out = metallic_noise_.Process(2.0f * f0_);
 161:../../DaisyExamples/DaisySP//Source/Drums/hihat.h **** 
 162:../../DaisyExamples/DaisySP//Source/Drums/hihat.h ****         // Apply BPF on the metallic noise.
 163:../../DaisyExamples/DaisySP//Source/Drums/hihat.h ****         float cutoff = 150.0f / sample_rate_ * SemitonesToRatio(tone_ * 72.0f);
 164:../../DaisyExamples/DaisySP//Source/Drums/hihat.h **** 
 165:../../DaisyExamples/DaisySP//Source/Drums/hihat.h ****         cutoff = fclamp(cutoff, 0.0f, 16000.0f / sample_rate_);
 166:../../DaisyExamples/DaisySP//Source/Drums/hihat.h **** 
 167:../../DaisyExamples/DaisySP//Source/Drums/hihat.h **** 
 168:../../DaisyExamples/DaisySP//Source/Drums/hihat.h ****         noise_coloration_svf_.SetFreq(cutoff * sample_rate_);
 169:../../DaisyExamples/DaisySP//Source/Drums/hihat.h ****         noise_coloration_svf_.SetRes(resonance ? 3.0f + 6.0f * tone_ : 1.0f);
 170:../../DaisyExamples/DaisySP//Source/Drums/hihat.h **** 
 171:../../DaisyExamples/DaisySP//Source/Drums/hihat.h ****         noise_coloration_svf_.Process(out);
 172:../../DaisyExamples/DaisySP//Source/Drums/hihat.h ****         out = noise_coloration_svf_.Band();
 173:../../DaisyExamples/DaisySP//Source/Drums/hihat.h **** 
 174:../../DaisyExamples/DaisySP//Source/Drums/hihat.h ****         // This is not at all part of the 808 circuit! But to add more variety, we
 175:../../DaisyExamples/DaisySP//Source/Drums/hihat.h ****         // add a variable amount of clocked noise to the output of the 6 schmitt
 176:../../DaisyExamples/DaisySP//Source/Drums/hihat.h ****         // trigger oscillators.
 177:../../DaisyExamples/DaisySP//Source/Drums/hihat.h ****         float noise_f = f0_ * (16.0f + 16.0f * (1.0f - noisiness_));
 178:../../DaisyExamples/DaisySP//Source/Drums/hihat.h ****         noise_f       = fclamp(noise_f, 0.0f, 0.5f);
 179:../../DaisyExamples/DaisySP//Source/Drums/hihat.h **** 
ARM GAS  /var/folders/b5/3l92j93d5t1__l78tfntmwyr0000gn/T//ccqKg67w.s 			page 34


 180:../../DaisyExamples/DaisySP//Source/Drums/hihat.h ****         noise_clock_ += noise_f;
 181:../../DaisyExamples/DaisySP//Source/Drums/hihat.h ****         if(noise_clock_ >= 1.0f)
 182:../../DaisyExamples/DaisySP//Source/Drums/hihat.h ****         {
 183:../../DaisyExamples/DaisySP//Source/Drums/hihat.h ****             noise_clock_ -= 1.0f;
 184:../../DaisyExamples/DaisySP//Source/Drums/hihat.h ****             noise_sample_ = rand() * kRandFrac - 0.5f;
 185:../../DaisyExamples/DaisySP//Source/Drums/hihat.h ****         }
 186:../../DaisyExamples/DaisySP//Source/Drums/hihat.h ****         out += noisiness_ * (noise_sample_ - out);
 187:../../DaisyExamples/DaisySP//Source/Drums/hihat.h **** 
 188:../../DaisyExamples/DaisySP//Source/Drums/hihat.h ****         // Apply VCA.
 189:../../DaisyExamples/DaisySP//Source/Drums/hihat.h ****         sustain_gain_ = accent_ * decay_;
 190:../../DaisyExamples/DaisySP//Source/Drums/hihat.h ****         VCA vca;
 191:../../DaisyExamples/DaisySP//Source/Drums/hihat.h ****         envelope_ *= envelope_ > 0.5f ? envelope_decay : cut_decay;
 192:../../DaisyExamples/DaisySP//Source/Drums/hihat.h ****         out = vca(out, sustain_ ? sustain_gain_ : envelope_);
 193:../../DaisyExamples/DaisySP//Source/Drums/hihat.h **** 
 194:../../DaisyExamples/DaisySP//Source/Drums/hihat.h ****         hpf_.SetFreq(cutoff * sample_rate_);
 195:../../DaisyExamples/DaisySP//Source/Drums/hihat.h ****         hpf_.SetRes(.5f);
 196:../../DaisyExamples/DaisySP//Source/Drums/hihat.h ****         hpf_.Process(out);
 197:../../DaisyExamples/DaisySP//Source/Drums/hihat.h ****         out = hpf_.High();
 198:../../DaisyExamples/DaisySP//Source/Drums/hihat.h **** 
 199:../../DaisyExamples/DaisySP//Source/Drums/hihat.h ****         return out;
 200:../../DaisyExamples/DaisySP//Source/Drums/hihat.h ****     }
 201:../../DaisyExamples/DaisySP//Source/Drums/hihat.h **** 
 202:../../DaisyExamples/DaisySP//Source/Drums/hihat.h ****     /** Trigger the hihat */
 203:../../DaisyExamples/DaisySP//Source/Drums/hihat.h ****     void Trig() { trig_ = true; }
 204:../../DaisyExamples/DaisySP//Source/Drums/hihat.h **** 
 205:../../DaisyExamples/DaisySP//Source/Drums/hihat.h ****     /** Make the hihat ring out infinitely.
 206:../../DaisyExamples/DaisySP//Source/Drums/hihat.h ****         \param sustain True = infinite sustain.
 207:../../DaisyExamples/DaisySP//Source/Drums/hihat.h ****     */
 208:../../DaisyExamples/DaisySP//Source/Drums/hihat.h ****     void SetSustain(bool sustain) { sustain_ = sustain; }
 209:../../DaisyExamples/DaisySP//Source/Drums/hihat.h **** 
 210:../../DaisyExamples/DaisySP//Source/Drums/hihat.h ****     /** Set how much accent to use
 211:../../DaisyExamples/DaisySP//Source/Drums/hihat.h ****         \param accent Works 0-1.
 212:../../DaisyExamples/DaisySP//Source/Drums/hihat.h ****     */
 213:../../DaisyExamples/DaisySP//Source/Drums/hihat.h ****     void SetAccent(float accent) { accent_ = fclamp(accent, 0.f, 1.f); }
 893              		.loc 13 213 10 view .LVU174
 894              	.LBB421:
 895              	.LBB422:
 896              	.LBI422:
 897              		.file 16 "../../DaisyExamples/DaisySP//Source/Utility/dsp.h"
   1:../../DaisyExamples/DaisySP//Source/Utility/dsp.h **** /** Helpful defines, functions, and other utilities for use in/with daisysp modules.
   2:../../DaisyExamples/DaisySP//Source/Utility/dsp.h **** */
   3:../../DaisyExamples/DaisySP//Source/Utility/dsp.h **** #pragma once
   4:../../DaisyExamples/DaisySP//Source/Utility/dsp.h **** #ifndef DSY_CORE_DSP
   5:../../DaisyExamples/DaisySP//Source/Utility/dsp.h **** #define DSY_CORE_DSP
   6:../../DaisyExamples/DaisySP//Source/Utility/dsp.h **** #include <cassert>
   7:../../DaisyExamples/DaisySP//Source/Utility/dsp.h **** #include <cstdint>
   8:../../DaisyExamples/DaisySP//Source/Utility/dsp.h **** #include <random>
   9:../../DaisyExamples/DaisySP//Source/Utility/dsp.h **** #include <cmath>
  10:../../DaisyExamples/DaisySP//Source/Utility/dsp.h **** 
  11:../../DaisyExamples/DaisySP//Source/Utility/dsp.h **** /** PIs
  12:../../DaisyExamples/DaisySP//Source/Utility/dsp.h **** */
  13:../../DaisyExamples/DaisySP//Source/Utility/dsp.h **** #define PI_F 3.1415927410125732421875f
  14:../../DaisyExamples/DaisySP//Source/Utility/dsp.h **** #define TWOPI_F (2.0f * PI_F)
  15:../../DaisyExamples/DaisySP//Source/Utility/dsp.h **** #define HALFPI_F (PI_F * 0.5f)
  16:../../DaisyExamples/DaisySP//Source/Utility/dsp.h **** #define DSY_MIN(in, mn) (in < mn ? in : mn)
  17:../../DaisyExamples/DaisySP//Source/Utility/dsp.h **** #define DSY_MAX(in, mx) (in > mx ? in : mx)
  18:../../DaisyExamples/DaisySP//Source/Utility/dsp.h **** #define DSY_CLAMP(in, mn, mx) (DSY_MIN(DSY_MAX(in, mn), mx))
ARM GAS  /var/folders/b5/3l92j93d5t1__l78tfntmwyr0000gn/T//ccqKg67w.s 			page 35


  19:../../DaisyExamples/DaisySP//Source/Utility/dsp.h **** #define DSY_COUNTOF(_arr) (sizeof(_arr) / sizeof(_arr[0]))
  20:../../DaisyExamples/DaisySP//Source/Utility/dsp.h **** 
  21:../../DaisyExamples/DaisySP//Source/Utility/dsp.h **** namespace daisysp
  22:../../DaisyExamples/DaisySP//Source/Utility/dsp.h **** {
  23:../../DaisyExamples/DaisySP//Source/Utility/dsp.h **** //Avoids division for random floats. e.g. rand() * kRandFrac
  24:../../DaisyExamples/DaisySP//Source/Utility/dsp.h **** static constexpr float kRandFrac = 1.f / (float)RAND_MAX;
  25:../../DaisyExamples/DaisySP//Source/Utility/dsp.h **** 
  26:../../DaisyExamples/DaisySP//Source/Utility/dsp.h **** //Convert from semitones to other units. e.g. 2 ^ (kOneTwelfth * x)
  27:../../DaisyExamples/DaisySP//Source/Utility/dsp.h **** static constexpr float kOneTwelfth = 1.f / 12.f;
  28:../../DaisyExamples/DaisySP//Source/Utility/dsp.h **** 
  29:../../DaisyExamples/DaisySP//Source/Utility/dsp.h **** /** efficient floating point min/max
  30:../../DaisyExamples/DaisySP//Source/Utility/dsp.h **** c/o stephen mccaul
  31:../../DaisyExamples/DaisySP//Source/Utility/dsp.h **** */
  32:../../DaisyExamples/DaisySP//Source/Utility/dsp.h **** inline float fmax(float a, float b)
  33:../../DaisyExamples/DaisySP//Source/Utility/dsp.h **** {
  34:../../DaisyExamples/DaisySP//Source/Utility/dsp.h ****     float r;
  35:../../DaisyExamples/DaisySP//Source/Utility/dsp.h **** #ifdef __arm__
  36:../../DaisyExamples/DaisySP//Source/Utility/dsp.h ****     asm("vmaxnm.f32 %[d], %[n], %[m]" : [d] "=t"(r) : [n] "t"(a), [m] "t"(b) :);
  37:../../DaisyExamples/DaisySP//Source/Utility/dsp.h **** #else
  38:../../DaisyExamples/DaisySP//Source/Utility/dsp.h ****     r = (a > b) ? a : b;
  39:../../DaisyExamples/DaisySP//Source/Utility/dsp.h **** #endif // __arm__
  40:../../DaisyExamples/DaisySP//Source/Utility/dsp.h ****     return r;
  41:../../DaisyExamples/DaisySP//Source/Utility/dsp.h **** }
  42:../../DaisyExamples/DaisySP//Source/Utility/dsp.h **** 
  43:../../DaisyExamples/DaisySP//Source/Utility/dsp.h **** inline float fmin(float a, float b)
  44:../../DaisyExamples/DaisySP//Source/Utility/dsp.h **** {
  45:../../DaisyExamples/DaisySP//Source/Utility/dsp.h ****     float r;
  46:../../DaisyExamples/DaisySP//Source/Utility/dsp.h **** #ifdef __arm__
  47:../../DaisyExamples/DaisySP//Source/Utility/dsp.h ****     asm("vminnm.f32 %[d], %[n], %[m]" : [d] "=t"(r) : [n] "t"(a), [m] "t"(b) :);
  48:../../DaisyExamples/DaisySP//Source/Utility/dsp.h **** #else
  49:../../DaisyExamples/DaisySP//Source/Utility/dsp.h ****     r = (a < b) ? a : b;
  50:../../DaisyExamples/DaisySP//Source/Utility/dsp.h **** #endif // __arm__
  51:../../DaisyExamples/DaisySP//Source/Utility/dsp.h ****     return r;
  52:../../DaisyExamples/DaisySP//Source/Utility/dsp.h **** }
  53:../../DaisyExamples/DaisySP//Source/Utility/dsp.h **** 
  54:../../DaisyExamples/DaisySP//Source/Utility/dsp.h **** /** quick fp clamp
  55:../../DaisyExamples/DaisySP//Source/Utility/dsp.h **** */
  56:../../DaisyExamples/DaisySP//Source/Utility/dsp.h **** inline float fclamp(float in, float min, float max)
 898              		.loc 16 56 14 view .LVU175
 899              	.LBE422:
 900              	.LBE421:
 901              	.LBE420:
  57:../../DaisyExamples/DaisySP//Source/Utility/dsp.h **** {
  58:../../DaisyExamples/DaisySP//Source/Utility/dsp.h ****     return fmin(fmax(in, min), max);
 902              		.loc 16 58 5 view .LVU176
 903              	.LBB444:
 904              	.LBB439:
 905              	.LBB435:
 906              	.LBB423:
 907              	.LBI423:
  32:../../DaisyExamples/DaisySP//Source/Utility/dsp.h **** {
 908              		.loc 16 32 14 view .LVU177
 909              	.LBB424:
  34:../../DaisyExamples/DaisySP//Source/Utility/dsp.h **** #ifdef __arm__
 910              		.loc 16 34 5 view .LVU178
  36:../../DaisyExamples/DaisySP//Source/Utility/dsp.h **** #else
 911              		.loc 16 36 5 view .LVU179
ARM GAS  /var/folders/b5/3l92j93d5t1__l78tfntmwyr0000gn/T//ccqKg67w.s 			page 36


 912 000c DFED226A 		vldr.32	s13, .L69+24
 913              	.LBE424:
 914              	.LBE423:
 915              	.LBE435:
 916              	.LBE439:
 917              	.LBE444:
 918              	.LBB445:
 919              	.LBB446:
 920              	.LBB447:
 921              	.LBB448:
 922 0010 9FED227A 		vldr.32	s14, .L69+28
 923              	.LBE448:
 924              	.LBE447:
 925              	.LBE446:
 926              	.LBE445:
 927              	.LBB457:
 928              	.LBB440:
 929              	.LBB436:
 930              	.LBB427:
 931              	.LBB425:
 932 0014 B6EE000A 		vmov.f32	s0, #5.0e-1
 933              	.LBE425:
 934              	.LBE427:
 935              	.LBE436:
 936              	.LBE440:
 937              	.LBE457:
 938              	.LBB458:
 939              	.LBB453:
 940              	.LBB451:
 941              	.LBB449:
 942              		.syntax unified
 943              	@ 36 "../../DaisyExamples/DaisySP//Source/Utility/dsp.h" 1
 944 0018 87FE267A 		vmaxnm.f32 s14, s14, s13
 945              	@ 0 "" 2
 946              		.thumb
 947              		.syntax unified
 948              	.LBE449:
 949              	.LBE451:
 214:../../DaisyExamples/DaisySP//Source/Drums/hihat.h **** 
 215:../../DaisyExamples/DaisySP//Source/Drums/hihat.h ****     /** Set the hihat tone's root frequency
 216:../../DaisyExamples/DaisySP//Source/Drums/hihat.h ****         \param f0 Freq in Hz
 217:../../DaisyExamples/DaisySP//Source/Drums/hihat.h ****     */
 218:../../DaisyExamples/DaisySP//Source/Drums/hihat.h ****     void SetFreq(float f0)
 219:../../DaisyExamples/DaisySP//Source/Drums/hihat.h ****     {
 220:../../DaisyExamples/DaisySP//Source/Drums/hihat.h ****         f0 /= sample_rate_;
 221:../../DaisyExamples/DaisySP//Source/Drums/hihat.h ****         f0_ = fclamp(f0, 0.f, 1.f);
 222:../../DaisyExamples/DaisySP//Source/Drums/hihat.h ****     }
 223:../../DaisyExamples/DaisySP//Source/Drums/hihat.h **** 
 224:../../DaisyExamples/DaisySP//Source/Drums/hihat.h ****     /** Set the overall brightness / darkness of the hihat.
 225:../../DaisyExamples/DaisySP//Source/Drums/hihat.h ****         \param tone Works from 0-1.
 226:../../DaisyExamples/DaisySP//Source/Drums/hihat.h ****     */
 227:../../DaisyExamples/DaisySP//Source/Drums/hihat.h ****     void SetTone(float tone) { tone_ = fclamp(tone, 0.f, 1.f); }
 228:../../DaisyExamples/DaisySP//Source/Drums/hihat.h **** 
 229:../../DaisyExamples/DaisySP//Source/Drums/hihat.h ****     /** Set the length of the hihat decay
 230:../../DaisyExamples/DaisySP//Source/Drums/hihat.h ****         \param decay Works > 0. Tuned for 0-1.
 231:../../DaisyExamples/DaisySP//Source/Drums/hihat.h ****     */
 232:../../DaisyExamples/DaisySP//Source/Drums/hihat.h ****     void SetDecay(float decay)
ARM GAS  /var/folders/b5/3l92j93d5t1__l78tfntmwyr0000gn/T//ccqKg67w.s 			page 37


 233:../../DaisyExamples/DaisySP//Source/Drums/hihat.h ****     {
 234:../../DaisyExamples/DaisySP//Source/Drums/hihat.h ****         decay_ = fmax(decay, 0.f);
 235:../../DaisyExamples/DaisySP//Source/Drums/hihat.h ****         decay_ *= 1.7;
 950              		.loc 13 235 16 is_stmt 0 view .LVU180
 951 001c 9FED184B 		vldr.64	d4, .L69
 952 0020 B7EEC77A 		vcvt.f64.f32	d7, s14
 953              	.LBE453:
 954              	.LBE458:
 955              	.LBB459:
 956              	.LBB441:
 213:../../DaisyExamples/DaisySP//Source/Drums/hihat.h **** 
 957              		.loc 13 213 44 view .LVU181
 958 0024 1E4B     		ldr	r3, .L69+32
 959              	.LBE441:
 960              	.LBE459:
 132:MachineDaisyFile.cpp **** 	hat.SetDecay(.4f);
 133:MachineDaisyFile.cpp **** 	hat.SetTone(.5f);
 134:MachineDaisyFile.cpp **** 
 135:MachineDaisyFile.cpp **** 	synthKick.SetAccent(.5f);
 961              		.loc 14 135 21 view .LVU182
 962 0026 1F48     		ldr	r0, .L69+36
 963              	.LBB460:
 964              	.LBB442:
 965              	.LBB437:
 966              	.LBB428:
 967              	.LBB429:
  47:../../DaisyExamples/DaisySP//Source/Utility/dsp.h **** #else
 968              		.loc 16 47 5 view .LVU183
 969 0028 B7EE006A 		vmov.f32	s12, #1.0e+0
 970              	.LBE429:
 971              	.LBE428:
 972              	.LBB432:
 973              	.LBB426:
  36:../../DaisyExamples/DaisySP//Source/Utility/dsp.h **** #else
 974              		.loc 16 36 5 view .LVU184
 975              		.syntax unified
 976              	@ 36 "../../DaisyExamples/DaisySP//Source/Utility/dsp.h" 1
 977 002c C0FE266A 		vmaxnm.f32 s13, s0, s13
 978              	@ 0 "" 2
 979              	.LVL30:
  40:../../DaisyExamples/DaisySP//Source/Utility/dsp.h **** }
 980              		.loc 16 40 5 is_stmt 1 view .LVU185
  40:../../DaisyExamples/DaisySP//Source/Utility/dsp.h **** }
 981              		.loc 16 40 5 is_stmt 0 view .LVU186
 982              		.thumb
 983              		.syntax unified
 984              	.LBE426:
 985              	.LBE432:
 986              	.LBB433:
 987              	.LBI428:
  43:../../DaisyExamples/DaisySP//Source/Utility/dsp.h **** {
 988              		.loc 16 43 14 is_stmt 1 view .LVU187
 989              	.LBB430:
  45:../../DaisyExamples/DaisySP//Source/Utility/dsp.h **** #ifdef __arm__
 990              		.loc 16 45 5 view .LVU188
  47:../../DaisyExamples/DaisySP//Source/Utility/dsp.h **** #else
 991              		.loc 16 47 5 view .LVU189
ARM GAS  /var/folders/b5/3l92j93d5t1__l78tfntmwyr0000gn/T//ccqKg67w.s 			page 38


 992              	.LBE430:
 993              	.LBE433:
 994              	.LBE437:
 995              	.LBE442:
 996              	.LBE460:
 997              	.LBB461:
 998              	.LBB454:
 999              		.loc 13 235 16 is_stmt 0 view .LVU190
 1000 0030 27EE047B 		vmul.f64	d7, d7, d4
 1001              	.LBE454:
 1002              	.LBE461:
 1003              	.LBB462:
 1004              	.LBB443:
 1005              	.LBB438:
 1006              	.LBB434:
 1007              	.LBB431:
  47:../../DaisyExamples/DaisySP//Source/Utility/dsp.h **** #else
 1008              		.loc 16 47 5 view .LVU191
 1009              		.syntax unified
 1010              	@ 47 "../../DaisyExamples/DaisySP//Source/Utility/dsp.h" 1
 1011 0034 C6FEC66A 		vminnm.f32 s13, s13, s12
 1012              	@ 0 "" 2
 1013              	.LVL31:
  51:../../DaisyExamples/DaisySP//Source/Utility/dsp.h **** }
 1014              		.loc 16 51 5 is_stmt 1 view .LVU192
  51:../../DaisyExamples/DaisySP//Source/Utility/dsp.h **** }
 1015              		.loc 16 51 5 is_stmt 0 view .LVU193
 1016              		.thumb
 1017              		.syntax unified
 1018              	.LBE431:
 1019              	.LBE434:
 1020              	.LBE438:
 213:../../DaisyExamples/DaisySP//Source/Drums/hihat.h **** 
 1021              		.loc 13 213 44 view .LVU194
 1022 0038 C3ED016A 		vstr.32	s13, [r3, #4]
 1023              	.LVL32:
 213:../../DaisyExamples/DaisySP//Source/Drums/hihat.h **** 
 1024              		.loc 13 213 44 view .LVU195
 1025              	.LBE443:
 1026              	.LBE462:
 132:MachineDaisyFile.cpp **** 	hat.SetTone(.5f);
 1027              		.loc 14 132 2 is_stmt 1 view .LVU196
 1028              	.LBB463:
 1029              	.LBI445:
 232:../../DaisyExamples/DaisySP//Source/Drums/hihat.h ****     {
 1030              		.loc 13 232 10 view .LVU197
 1031              	.LBB455:
 1032              	.LBB452:
 1033              	.LBI447:
  32:../../DaisyExamples/DaisySP//Source/Utility/dsp.h **** {
 1034              		.loc 16 32 14 view .LVU198
 1035              	.LBB450:
  34:../../DaisyExamples/DaisySP//Source/Utility/dsp.h **** #ifdef __arm__
 1036              		.loc 16 34 5 view .LVU199
  36:../../DaisyExamples/DaisySP//Source/Utility/dsp.h **** #else
 1037              		.loc 16 36 5 view .LVU200
  40:../../DaisyExamples/DaisySP//Source/Utility/dsp.h **** }
ARM GAS  /var/folders/b5/3l92j93d5t1__l78tfntmwyr0000gn/T//ccqKg67w.s 			page 39


 1038              		.loc 16 40 5 view .LVU201
  40:../../DaisyExamples/DaisySP//Source/Utility/dsp.h **** }
 1039              		.loc 16 40 5 is_stmt 0 view .LVU202
 1040              	.LBE450:
 1041              	.LBE452:
 1042              	.LBE455:
 1043              	.LBE463:
 1044              	.LBB464:
 1045              	.LBB465:
 227:../../DaisyExamples/DaisySP//Source/Drums/hihat.h **** 
 1046              		.loc 13 227 38 view .LVU203
 1047 003c C3ED036A 		vstr.32	s13, [r3, #12]
 1048              	.LBE465:
 1049              	.LBE464:
 1050              	.LBB474:
 1051              	.LBB456:
 236:../../DaisyExamples/DaisySP//Source/Drums/hihat.h ****         decay_ -= 1.2;
 1052              		.loc 13 236 16 view .LVU204
 1053 0040 9FED115B 		vldr.64	d5, .L69+8
 235:../../DaisyExamples/DaisySP//Source/Drums/hihat.h ****         decay_ -= 1.2;
 1054              		.loc 13 235 16 view .LVU205
 1055 0044 B7EEC77B 		vcvt.f32.f64	s14, d7
 1056              		.loc 13 236 16 view .LVU206
 1057 0048 B7EEC77A 		vcvt.f64.f32	d7, s14
 1058 004c 37EE457B 		vsub.f64	d7, d7, d5
 1059 0050 B7EEC77B 		vcvt.f32.f64	s14, d7
 1060 0054 83ED047A 		vstr.32	s14, [r3, #16]
 1061              	.LVL33:
 1062              		.loc 13 236 16 view .LVU207
 1063              	.LBE456:
 1064              	.LBE474:
 133:MachineDaisyFile.cpp **** 
 1065              		.loc 14 133 2 is_stmt 1 view .LVU208
 1066              	.LBB475:
 1067              	.LBI464:
 227:../../DaisyExamples/DaisySP//Source/Drums/hihat.h **** 
 1068              		.loc 13 227 10 view .LVU209
 1069              	.LBB472:
 1070              	.LBB466:
 1071              	.LBI466:
  56:../../DaisyExamples/DaisySP//Source/Utility/dsp.h **** {
 1072              		.loc 16 56 14 view .LVU210
 1073              	.LBE466:
 1074              	.LBE472:
 1075              	.LBE475:
 1076              		.loc 16 58 5 view .LVU211
 1077              	.LBB476:
 1078              	.LBB473:
 1079              	.LBB471:
 1080              	.LBB467:
 1081              	.LBI467:
  32:../../DaisyExamples/DaisySP//Source/Utility/dsp.h **** {
 1082              		.loc 16 32 14 view .LVU212
 1083              	.LBB468:
  34:../../DaisyExamples/DaisySP//Source/Utility/dsp.h **** #ifdef __arm__
 1084              		.loc 16 34 5 view .LVU213
  36:../../DaisyExamples/DaisySP//Source/Utility/dsp.h **** #else
ARM GAS  /var/folders/b5/3l92j93d5t1__l78tfntmwyr0000gn/T//ccqKg67w.s 			page 40


 1085              		.loc 16 36 5 view .LVU214
  40:../../DaisyExamples/DaisySP//Source/Utility/dsp.h **** }
 1086              		.loc 16 40 5 view .LVU215
  40:../../DaisyExamples/DaisySP//Source/Utility/dsp.h **** }
 1087              		.loc 16 40 5 is_stmt 0 view .LVU216
 1088              	.LBE468:
 1089              	.LBE467:
 1090              	.LBB469:
 1091              	.LBI469:
  43:../../DaisyExamples/DaisySP//Source/Utility/dsp.h **** {
 1092              		.loc 16 43 14 is_stmt 1 view .LVU217
 1093              	.LBB470:
  45:../../DaisyExamples/DaisySP//Source/Utility/dsp.h **** #ifdef __arm__
 1094              		.loc 16 45 5 view .LVU218
  47:../../DaisyExamples/DaisySP//Source/Utility/dsp.h **** #else
 1095              		.loc 16 47 5 view .LVU219
  51:../../DaisyExamples/DaisySP//Source/Utility/dsp.h **** }
 1096              		.loc 16 51 5 view .LVU220
  51:../../DaisyExamples/DaisySP//Source/Utility/dsp.h **** }
 1097              		.loc 16 51 5 is_stmt 0 view .LVU221
 1098              	.LBE470:
 1099              	.LBE469:
 1100              	.LBE471:
 1101              	.LBE473:
 1102              	.LBE476:
 1103              		.loc 14 135 2 is_stmt 1 view .LVU222
 1104              		.loc 14 135 21 is_stmt 0 view .LVU223
 1105 0058 FFF7FEFF 		bl	_ZN7daisysp17SyntheticBassDrum9SetAccentEf
 1106              	.LVL34:
 136:MachineDaisyFile.cpp ****     synthKick.SetDirtiness(.1f);
 1107              		.loc 14 136 5 is_stmt 1 view .LVU224
 1108              		.loc 14 136 27 is_stmt 0 view .LVU225
 1109 005c 9FED120A 		vldr.32	s0, .L69+40
 1110 0060 1048     		ldr	r0, .L69+36
 1111 0062 FFF7FEFF 		bl	_ZN7daisysp17SyntheticBassDrum12SetDirtinessEf
 1112              	.LVL35:
 137:MachineDaisyFile.cpp ****     synthKick.SetDecay(.7f);
 1113              		.loc 14 137 5 is_stmt 1 view .LVU226
 1114              		.loc 14 137 23 is_stmt 0 view .LVU227
 1115 0066 9FED110A 		vldr.32	s0, .L69+44
 1116 006a 0E48     		ldr	r0, .L69+36
 1117 006c FFF7FEFF 		bl	_ZN7daisysp17SyntheticBassDrum8SetDecayEf
 1118              	.LVL36:
 138:MachineDaisyFile.cpp **** 	synthKick.SetFreq(150.f);
 1119              		.loc 14 138 2 is_stmt 1 view .LVU228
 1120              		.loc 14 138 19 is_stmt 0 view .LVU229
 1121 0070 9FED0F0A 		vldr.32	s0, .L69+48
 1122 0074 0B48     		ldr	r0, .L69+36
 139:MachineDaisyFile.cpp **** }
 1123              		.loc 14 139 1 view .LVU230
 1124 0076 BDE80840 		pop	{r3, lr}
 1125              		.cfi_restore 14
 1126              		.cfi_restore 3
 1127              		.cfi_def_cfa_offset 0
 138:MachineDaisyFile.cpp **** 	synthKick.SetFreq(150.f);
 1128              		.loc 14 138 19 view .LVU231
 1129 007a FFF7FEBF 		b	_ZN7daisysp17SyntheticBassDrum7SetFreqEf
ARM GAS  /var/folders/b5/3l92j93d5t1__l78tfntmwyr0000gn/T//ccqKg67w.s 			page 41


 1130              	.LVL37:
 1131              	.L70:
 1132 007e 00BF     		.align	3
 1133              	.L69:
 1134 0080 33333333 		.word	858993459
 1135 0084 3333FB3F 		.word	1073427251
 1136 0088 33333333 		.word	858993459
 1137 008c 3333F33F 		.word	1072902963
 1138 0090 0000C842 		.word	1120403456
 1139 0094 00000000 		.word	.LANCHOR10
 1140 0098 00000000 		.word	0
 1141 009c CDCCCC3E 		.word	1053609165
 1142 00a0 00000000 		.word	.LANCHOR11
 1143 00a4 00000000 		.word	.LANCHOR12
 1144 00a8 CDCCCC3D 		.word	1036831949
 1145 00ac 3333333F 		.word	1060320051
 1146 00b0 00001643 		.word	1125515264
 1147              		.cfi_endproc
 1148              	.LFE4855:
 1150              		.section	.text._Z14digitalButtonsv,"ax",%progbits
 1151              		.align	1
 1152              		.p2align 2,,3
 1153              		.global	_Z14digitalButtonsv
 1154              		.syntax unified
 1155              		.thumb
 1156              		.thumb_func
 1158              	_Z14digitalButtonsv:
 1159              	.LFB4856:
 140:MachineDaisyFile.cpp **** //====================================================================================
 141:MachineDaisyFile.cpp **** // processes selector button
 142:MachineDaisyFile.cpp **** void digitalButtons()
 143:MachineDaisyFile.cpp **** {
 1160              		.loc 14 143 1 is_stmt 1 view -0
 1161              		.cfi_startproc
 1162              		@ args = 0, pretend = 0, frame = 0
 1163              		@ frame_needed = 0, uses_anonymous_args = 0
 144:MachineDaisyFile.cpp **** 	selector.Debounce();
 1164              		.loc 14 144 2 view .LVU233
 143:MachineDaisyFile.cpp **** 	selector.Debounce();
 1165              		.loc 14 143 1 is_stmt 0 view .LVU234
 1166 0000 38B5     		push	{r3, r4, r5, lr}
 1167              		.cfi_def_cfa_offset 16
 1168              		.cfi_offset 3, -16
 1169              		.cfi_offset 4, -12
 1170              		.cfi_offset 5, -8
 1171              		.cfi_offset 14, -4
 1172              		.loc 14 144 19 view .LVU235
 1173 0002 374C     		ldr	r4, .L87
 143:MachineDaisyFile.cpp **** 	selector.Debounce();
 1174              		.loc 14 143 1 view .LVU236
 1175 0004 2DED028B 		vpush.64	{d8}
 1176              		.cfi_def_cfa_offset 24
 1177              		.cfi_offset 80, -24
 1178              		.cfi_offset 81, -20
 1179              		.loc 14 144 19 view .LVU237
 1180 0008 2046     		mov	r0, r4
 1181 000a FFF7FEFF 		bl	_ZN5daisy6Switch8DebounceEv
ARM GAS  /var/folders/b5/3l92j93d5t1__l78tfntmwyr0000gn/T//ccqKg67w.s 			page 42


 1182              	.LVL38:
 145:MachineDaisyFile.cpp **** 	tempoModON.Debounce();
 1183              		.loc 14 145 2 is_stmt 1 view .LVU238
 1184              		.loc 14 145 21 is_stmt 0 view .LVU239
 1185 000e 3548     		ldr	r0, .L87+4
 1186 0010 FFF7FEFF 		bl	_ZN5daisy6Switch8DebounceEv
 1187              	.LVL39:
 146:MachineDaisyFile.cpp **** 	if (selector.RisingEdge())
 1188              		.loc 14 146 2 is_stmt 1 view .LVU240
 1189              	.LBB500:
 1190              	.LBI500:
  43:../../DaisyExamples/libDaisy//src/hid/switch.h **** 
  44:../../DaisyExamples/libDaisy//src/hid/switch.h ****     /** 
  45:../../DaisyExamples/libDaisy//src/hid/switch.h ****     Initializes the switch object with a given port/pin combo.
  46:../../DaisyExamples/libDaisy//src/hid/switch.h ****     \param pin port/pin object to tell the switch which hardware pin to use.
  47:../../DaisyExamples/libDaisy//src/hid/switch.h ****     \param update_rate Does nothing. Backwards compatibility until next breaking update.
  48:../../DaisyExamples/libDaisy//src/hid/switch.h ****     \param t switch type -- Default: TYPE_MOMENTARY
  49:../../DaisyExamples/libDaisy//src/hid/switch.h ****     \param pol switch polarity -- Default: POLARITY_INVERTED
  50:../../DaisyExamples/libDaisy//src/hid/switch.h ****     \param pu switch pull up/down -- Default: PULL_UP
  51:../../DaisyExamples/libDaisy//src/hid/switch.h ****     */
  52:../../DaisyExamples/libDaisy//src/hid/switch.h ****     void
  53:../../DaisyExamples/libDaisy//src/hid/switch.h ****     Init(dsy_gpio_pin pin, float update_rate, Type t, Polarity pol, Pull pu);
  54:../../DaisyExamples/libDaisy//src/hid/switch.h **** 
  55:../../DaisyExamples/libDaisy//src/hid/switch.h ****     /**
  56:../../DaisyExamples/libDaisy//src/hid/switch.h ****        Simplified Init.
  57:../../DaisyExamples/libDaisy//src/hid/switch.h ****        \param pin port/pin object to tell the switch which hardware pin to use.
  58:../../DaisyExamples/libDaisy//src/hid/switch.h ****        \param update_rate Left for backwards compatibility until next breaking change.
  59:../../DaisyExamples/libDaisy//src/hid/switch.h ****     */
  60:../../DaisyExamples/libDaisy//src/hid/switch.h ****     void Init(dsy_gpio_pin pin, float update_rate = 0.f);
  61:../../DaisyExamples/libDaisy//src/hid/switch.h **** 
  62:../../DaisyExamples/libDaisy//src/hid/switch.h ****     /** 
  63:../../DaisyExamples/libDaisy//src/hid/switch.h ****     Called at update_rate to debounce and handle timing for the switch.
  64:../../DaisyExamples/libDaisy//src/hid/switch.h ****     In order for events not to be missed, its important that the Edge/Pressed checks
  65:../../DaisyExamples/libDaisy//src/hid/switch.h ****     be made at the same rate as the debounce function is being called.
  66:../../DaisyExamples/libDaisy//src/hid/switch.h ****     */
  67:../../DaisyExamples/libDaisy//src/hid/switch.h ****     void Debounce();
  68:../../DaisyExamples/libDaisy//src/hid/switch.h **** 
  69:../../DaisyExamples/libDaisy//src/hid/switch.h ****     /** \return true if a button was just pressed. */
  70:../../DaisyExamples/libDaisy//src/hid/switch.h ****     inline bool RisingEdge() const { return updated_ ? state_ == 0x7f : false; }
 1191              		.loc 2 70 17 view .LVU241
 1192              	.LBB501:
 1193              		.loc 2 70 38 view .LVU242
 1194              		.loc 2 70 54 is_stmt 0 view .LVU243
 1195 0014 2379     		ldrb	r3, [r4, #4]	@ zero_extendqisi2
 1196 0016 002B     		cmp	r3, #0
 1197 0018 42D1     		bne	.L72
 1198              		.loc 2 70 56 view .LVU244
 1199 001a A37A     		ldrb	r3, [r4, #10]	@ zero_extendqisi2
 1200              	.LVL40:
 1201              	.L73:
 1202              		.loc 2 70 56 view .LVU245
 1203              	.LBE501:
 1204              	.LBE500:
 147:MachineDaisyFile.cpp **** 	{
 148:MachineDaisyFile.cpp **** 		drumMode++;
 149:MachineDaisyFile.cpp **** 		drumMode = drumMode % 4;
 150:MachineDaisyFile.cpp **** 	}
ARM GAS  /var/folders/b5/3l92j93d5t1__l78tfntmwyr0000gn/T//ccqKg67w.s 			page 43


 151:MachineDaisyFile.cpp **** 	if (tempoModON.Pressed())
 1205              		.loc 14 151 2 is_stmt 1 view .LVU246
 1206              	.LBB503:
 1207              	.LBI503:
  71:../../DaisyExamples/libDaisy//src/hid/switch.h **** 
  72:../../DaisyExamples/libDaisy//src/hid/switch.h ****     /** \return true if the button was just released */
  73:../../DaisyExamples/libDaisy//src/hid/switch.h ****     inline bool FallingEdge() const
  74:../../DaisyExamples/libDaisy//src/hid/switch.h ****     {
  75:../../DaisyExamples/libDaisy//src/hid/switch.h ****         return updated_ ? state_ == 0x80 : false;
  76:../../DaisyExamples/libDaisy//src/hid/switch.h ****     }
  77:../../DaisyExamples/libDaisy//src/hid/switch.h **** 
  78:../../DaisyExamples/libDaisy//src/hid/switch.h ****     /** \return true if the button is held down (or if the toggle is on) */
  79:../../DaisyExamples/libDaisy//src/hid/switch.h ****     inline bool Pressed() const { return state_ == 0xff; }
 1208              		.loc 2 79 17 view .LVU247
 1209              	.LBB504:
 1210              		.loc 2 79 35 view .LVU248
 1211              		.loc 2 79 42 is_stmt 0 view .LVU249
 1212 001c 314D     		ldr	r5, .L87+4
 1213              	.LBE504:
 1214              	.LBE503:
 1215              		.loc 14 151 2 view .LVU250
 1216 001e AA7A     		ldrb	r2, [r5, #10]	@ zero_extendqisi2
 1217 0020 FF2A     		cmp	r2, #255
 1218 0022 4FD0     		beq	.L85
 1219              	.L74:
 152:MachineDaisyFile.cpp **** 	{
 153:MachineDaisyFile.cpp **** 		if (tempoMode)
 154:MachineDaisyFile.cpp **** 			tempoMult = 2.f;
 155:MachineDaisyFile.cpp **** 		else
 156:MachineDaisyFile.cpp **** 			tempoMult = .5f;
 157:MachineDaisyFile.cpp **** 	}
 158:MachineDaisyFile.cpp **** 	else	
 159:MachineDaisyFile.cpp **** 		tempoMult = 1.f;
 1220              		.loc 14 159 3 is_stmt 1 view .LVU251
 1221              		.loc 14 159 13 is_stmt 0 view .LVU252
 1222 0024 4FF07E51 		mov	r1, #1065353216
 1223 0028 2F4A     		ldr	r2, .L87+8
 1224 002a 1160     		str	r1, [r2]	@ float
 1225              	.L76:
 160:MachineDaisyFile.cpp **** 	if (selector.TimeHeldMs() > 2000.f && tempoModON.TimeHeldMs() > 2000)
 1226              		.loc 14 160 2 is_stmt 1 view .LVU253
 1227              	.LVL41:
 1228              	.LBB507:
 1229              	.LBI507:
  80:../../DaisyExamples/libDaisy//src/hid/switch.h **** 
  81:../../DaisyExamples/libDaisy//src/hid/switch.h ****     /** \return true if the button is held down, without debouncing */
  82:../../DaisyExamples/libDaisy//src/hid/switch.h ****     inline bool RawState()
  83:../../DaisyExamples/libDaisy//src/hid/switch.h ****     {
  84:../../DaisyExamples/libDaisy//src/hid/switch.h ****         return flip_ ? !dsy_gpio_read(&hw_gpio_) : dsy_gpio_read(&hw_gpio_);
  85:../../DaisyExamples/libDaisy//src/hid/switch.h ****     }
  86:../../DaisyExamples/libDaisy//src/hid/switch.h **** 
  87:../../DaisyExamples/libDaisy//src/hid/switch.h ****     /** \return the time in milliseconds that the button has been held (or toggle has been on) */
  88:../../DaisyExamples/libDaisy//src/hid/switch.h ****     inline float TimeHeldMs() const
 1230              		.loc 2 88 18 view .LVU254
 1231              	.LBB508:
  89:../../DaisyExamples/libDaisy//src/hid/switch.h ****     {
  90:../../DaisyExamples/libDaisy//src/hid/switch.h ****         return Pressed() ? System::GetNow() - rising_edge_time_ : 0;
ARM GAS  /var/folders/b5/3l92j93d5t1__l78tfntmwyr0000gn/T//ccqKg67w.s 			page 44


 1232              		.loc 2 90 9 view .LVU255
 1233              		.loc 2 90 9 is_stmt 0 view .LVU256
 1234              	.LBE508:
 1235              	.LBE507:
  79:../../DaisyExamples/libDaisy//src/hid/switch.h **** 
 1236              		.loc 2 79 35 is_stmt 1 view .LVU257
 1237              	.LBB516:
 1238              	.LBB513:
 1239              		.loc 2 90 26 is_stmt 0 view .LVU258
 1240 002c FF2B     		cmp	r3, #255
 1241 002e 02D0     		beq	.L86
 1242              	.LVL42:
 1243              	.L71:
 1244              		.loc 2 90 26 view .LVU259
 1245              	.LBE513:
 1246              	.LBE516:
 161:MachineDaisyFile.cpp **** 		clearPattern();
 162:MachineDaisyFile.cpp **** 
 163:MachineDaisyFile.cpp **** }
 1247              		.loc 14 163 1 view .LVU260
 1248 0030 BDEC028B 		vldm	sp!, {d8}
 1249              		.cfi_remember_state
 1250              		.cfi_restore 80
 1251              		.cfi_restore 81
 1252              		.cfi_def_cfa_offset 16
 1253 0034 38BD     		pop	{r3, r4, r5, pc}
 1254              	.LVL43:
 1255              	.L86:
 1256              		.cfi_restore_state
 1257              	.LBB517:
 1258              	.LBB514:
 1259              	.LBB509:
 1260              	.LBI509:
  88:../../DaisyExamples/libDaisy//src/hid/switch.h ****     {
 1261              		.loc 2 88 18 is_stmt 1 view .LVU261
 1262              	.LBB510:
 1263              		.loc 2 90 42 is_stmt 0 view .LVU262
 1264 0036 FFF7FEFF 		bl	_ZN5daisy6System6GetNowEv
 1265              	.LVL44:
 1266              		.loc 2 90 45 view .LVU263
 1267 003a 07EE900A 		vmov	s15, r0	@ int
 1268              		.loc 2 90 26 view .LVU264
 1269 003e 94ED037A 		vldr.32	s14, [r4, #12]
 1270              		.loc 2 90 45 view .LVU265
 1271 0042 F8EE677A 		vcvt.f32.u32	s15, s15
 1272              	.LBE510:
 1273              	.LBE509:
 1274              	.LBE514:
 1275              	.LBE517:
 160:MachineDaisyFile.cpp **** 		clearPattern();
 1276              		.loc 14 160 37 view .LVU266
 1277 0046 9FED298A 		vldr.32	s16, .L87+12
 1278              	.LBB518:
 1279              	.LBB515:
 1280              	.LBB512:
 1281              	.LBB511:
 1282              		.loc 2 90 26 view .LVU267
ARM GAS  /var/folders/b5/3l92j93d5t1__l78tfntmwyr0000gn/T//ccqKg67w.s 			page 45


 1283 004a 77EEC77A 		vsub.f32	s15, s15, s14
 1284              	.LBE511:
 1285              	.LBE512:
 1286              	.LBE515:
 1287              	.LBE518:
 160:MachineDaisyFile.cpp **** 		clearPattern();
 1288              		.loc 14 160 37 view .LVU268
 1289 004e F4EEC87A 		vcmpe.f32	s15, s16
 1290 0052 F1EE10FA 		vmrs	APSR_nzcv, FPSCR
 1291 0056 EBDD     		ble	.L71
 1292              	.LVL45:
 1293              	.LBB519:
 1294              	.LBI519:
  88:../../DaisyExamples/libDaisy//src/hid/switch.h ****     {
 1295              		.loc 2 88 18 is_stmt 1 view .LVU269
 1296              	.LBB520:
 1297              		.loc 2 90 9 view .LVU270
 1298              	.LBB521:
 1299              	.LBI521:
  79:../../DaisyExamples/libDaisy//src/hid/switch.h **** 
 1300              		.loc 2 79 17 view .LVU271
 1301              	.LBB522:
  79:../../DaisyExamples/libDaisy//src/hid/switch.h **** 
 1302              		.loc 2 79 35 view .LVU272
  79:../../DaisyExamples/libDaisy//src/hid/switch.h **** 
 1303              		.loc 2 79 35 is_stmt 0 view .LVU273
 1304              	.LBE522:
 1305              	.LBE521:
 1306              		.loc 2 90 26 view .LVU274
 1307 0058 AB7A     		ldrb	r3, [r5, #10]	@ zero_extendqisi2
 1308 005a FF2B     		cmp	r3, #255
 1309 005c E8D1     		bne	.L71
 1310              	.LVL46:
 1311              	.LBB523:
 1312              	.LBI523:
  88:../../DaisyExamples/libDaisy//src/hid/switch.h ****     {
 1313              		.loc 2 88 18 is_stmt 1 view .LVU275
 1314              	.LBB524:
 1315              		.loc 2 90 42 is_stmt 0 view .LVU276
 1316 005e FFF7FEFF 		bl	_ZN5daisy6System6GetNowEv
 1317              	.LVL47:
 1318              		.loc 2 90 45 view .LVU277
 1319 0062 07EE900A 		vmov	s15, r0	@ int
 1320              		.loc 2 90 26 view .LVU278
 1321 0066 95ED037A 		vldr.32	s14, [r5, #12]
 1322              		.loc 2 90 45 view .LVU279
 1323 006a F8EE677A 		vcvt.f32.u32	s15, s15
 1324              		.loc 2 90 26 view .LVU280
 1325 006e 77EEC77A 		vsub.f32	s15, s15, s14
 1326              	.LBE524:
 1327              	.LBE523:
 1328              	.LBE520:
 1329              	.LBE519:
 160:MachineDaisyFile.cpp **** 		clearPattern();
 1330              		.loc 14 160 37 view .LVU281
 1331 0072 F4EEC87A 		vcmpe.f32	s15, s16
 1332 0076 F1EE10FA 		vmrs	APSR_nzcv, FPSCR
ARM GAS  /var/folders/b5/3l92j93d5t1__l78tfntmwyr0000gn/T//ccqKg67w.s 			page 46


 1333 007a D9DD     		ble	.L71
 1334              	.LBB525:
 1335              	.LBB526:
 1336              	.LBB527:
  60:MachineDaisyFile.cpp **** 	}
 1337              		.loc 14 60 46 view .LVU282
 1338 007c 0023     		movs	r3, #0
  60:MachineDaisyFile.cpp **** 	}
 1339              		.loc 14 60 34 view .LVU283
 1340 007e 1C48     		ldr	r0, .L87+16
  60:MachineDaisyFile.cpp **** 	}
 1341              		.loc 14 60 46 view .LVU284
 1342 0080 1C4C     		ldr	r4, .L87+20
  60:MachineDaisyFile.cpp **** 	}
 1343              		.loc 14 60 24 view .LVU285
 1344 0082 1D49     		ldr	r1, .L87+24
  60:MachineDaisyFile.cpp **** 	}
 1345              		.loc 14 60 13 view .LVU286
 1346 0084 1D4A     		ldr	r2, .L87+28
  60:MachineDaisyFile.cpp **** 	}
 1347              		.loc 14 60 34 view .LVU287
 1348 0086 C0E90033 		strd	r3, r3, [r0]
  60:MachineDaisyFile.cpp **** 	}
 1349              		.loc 14 60 46 view .LVU288
 1350 008a C4E90033 		strd	r3, r3, [r4]
 1351              	.LBE527:
  62:MachineDaisyFile.cpp **** }
 1352              		.loc 14 62 12 view .LVU289
 1353 008e 1C48     		ldr	r0, .L87+32
 1354              	.LBB528:
  60:MachineDaisyFile.cpp **** 	}
 1355              		.loc 14 60 24 view .LVU290
 1356 0090 C1E90033 		strd	r3, r3, [r1]
  60:MachineDaisyFile.cpp **** 	}
 1357              		.loc 14 60 13 view .LVU291
 1358 0094 C2E90033 		strd	r3, r3, [r2]
 1359              	.LBE528:
  62:MachineDaisyFile.cpp **** }
 1360              		.loc 14 62 2 is_stmt 1 view .LVU292
 1361              	.LBE526:
 1362              	.LBE525:
 1363              		.loc 14 163 1 is_stmt 0 view .LVU293
 1364 0098 BDEC028B 		vldm	sp!, {d8}
 1365              		.cfi_remember_state
 1366              		.cfi_restore 80
 1367              		.cfi_restore 81
 1368              		.cfi_def_cfa_offset 16
 1369              	.LBB530:
 1370              	.LBB529:
  62:MachineDaisyFile.cpp **** }
 1371              		.loc 14 62 12 view .LVU294
 1372 009c 0370     		strb	r3, [r0]
 1373              	.LBE529:
 1374              	.LBE530:
 1375              		.loc 14 163 1 view .LVU295
 1376 009e 38BD     		pop	{r3, r4, r5, pc}
 1377              	.LVL48:
ARM GAS  /var/folders/b5/3l92j93d5t1__l78tfntmwyr0000gn/T//ccqKg67w.s 			page 47


 1378              	.L72:
 1379              		.cfi_restore_state
 1380              	.LBB531:
 1381              	.LBB502:
  70:../../DaisyExamples/libDaisy//src/hid/switch.h **** 
 1382              		.loc 2 70 56 view .LVU296
 1383 00a0 A37A     		ldrb	r3, [r4, #10]	@ zero_extendqisi2
 1384              	.LVL49:
  70:../../DaisyExamples/libDaisy//src/hid/switch.h **** 
 1385              		.loc 2 70 56 view .LVU297
 1386              	.LBE502:
 1387              	.LBE531:
 146:MachineDaisyFile.cpp **** 	{
 1388              		.loc 14 146 2 view .LVU298
 1389 00a2 7F2B     		cmp	r3, #127
 1390 00a4 BAD1     		bne	.L73
 148:MachineDaisyFile.cpp **** 		drumMode = drumMode % 4;
 1391              		.loc 14 148 3 is_stmt 1 view .LVU299
 149:MachineDaisyFile.cpp **** 	}
 1392              		.loc 14 149 3 view .LVU300
 149:MachineDaisyFile.cpp **** 	}
 1393              		.loc 14 149 12 is_stmt 0 view .LVU301
 1394 00a6 1748     		ldr	r0, .L87+36
 1395              	.LBB532:
 1396              	.LBB505:
  79:../../DaisyExamples/libDaisy//src/hid/switch.h **** 
 1397              		.loc 2 79 42 view .LVU302
 1398 00a8 0E4D     		ldr	r5, .L87+4
 1399              	.LBE505:
 1400              	.LBE532:
 148:MachineDaisyFile.cpp **** 		drumMode = drumMode % 4;
 1401              		.loc 14 148 11 view .LVU303
 1402 00aa 0268     		ldr	r2, [r0]
 1403 00ac 0132     		adds	r2, r2, #1
 149:MachineDaisyFile.cpp **** 	}
 1404              		.loc 14 149 23 view .LVU304
 1405 00ae 5142     		rsbs	r1, r2, #0
 1406 00b0 02F00302 		and	r2, r2, #3
 1407 00b4 01F00301 		and	r1, r1, #3
 1408 00b8 58BF     		it	pl
 1409 00ba 4A42     		rsbpl	r2, r1, #0
 149:MachineDaisyFile.cpp **** 	}
 1410              		.loc 14 149 12 view .LVU305
 1411 00bc 0260     		str	r2, [r0]
 151:MachineDaisyFile.cpp **** 	{
 1412              		.loc 14 151 2 is_stmt 1 view .LVU306
 1413              	.LVL50:
 1414              	.LBB533:
  79:../../DaisyExamples/libDaisy//src/hid/switch.h **** 
 1415              		.loc 2 79 17 view .LVU307
 1416              	.LBB506:
  79:../../DaisyExamples/libDaisy//src/hid/switch.h **** 
 1417              		.loc 2 79 35 view .LVU308
  79:../../DaisyExamples/libDaisy//src/hid/switch.h **** 
 1418              		.loc 2 79 35 is_stmt 0 view .LVU309
 1419              	.LBE506:
 1420              	.LBE533:
ARM GAS  /var/folders/b5/3l92j93d5t1__l78tfntmwyr0000gn/T//ccqKg67w.s 			page 48


 151:MachineDaisyFile.cpp **** 	{
 1421              		.loc 14 151 2 view .LVU310
 1422 00be AA7A     		ldrb	r2, [r5, #10]	@ zero_extendqisi2
 1423 00c0 FF2A     		cmp	r2, #255
 1424 00c2 AFD1     		bne	.L74
 1425              	.L85:
 153:MachineDaisyFile.cpp **** 			tempoMult = 2.f;
 1426              		.loc 14 153 3 is_stmt 1 view .LVU311
 1427 00c4 104A     		ldr	r2, .L87+40
 1428 00c6 1278     		ldrb	r2, [r2]	@ zero_extendqisi2
 1429 00c8 22B1     		cbz	r2, .L75
 154:MachineDaisyFile.cpp **** 		else
 1430              		.loc 14 154 4 view .LVU312
 154:MachineDaisyFile.cpp **** 		else
 1431              		.loc 14 154 14 is_stmt 0 view .LVU313
 1432 00ca 4FF08041 		mov	r1, #1073741824
 1433 00ce 064A     		ldr	r2, .L87+8
 1434 00d0 1160     		str	r1, [r2]	@ float
 1435 00d2 ABE7     		b	.L76
 1436              	.L75:
 156:MachineDaisyFile.cpp **** 	}
 1437              		.loc 14 156 4 is_stmt 1 view .LVU314
 156:MachineDaisyFile.cpp **** 	}
 1438              		.loc 14 156 14 is_stmt 0 view .LVU315
 1439 00d4 4FF07C51 		mov	r1, #1056964608
 1440 00d8 034A     		ldr	r2, .L87+8
 1441 00da 1160     		str	r1, [r2]	@ float
 1442 00dc A6E7     		b	.L76
 1443              	.L88:
 1444 00de 00BF     		.align	2
 1445              	.L87:
 1446 00e0 00000000 		.word	.LANCHOR13
 1447 00e4 00000000 		.word	.LANCHOR14
 1448 00e8 00000000 		.word	.LANCHOR16
 1449 00ec 0000FA44 		.word	1157234688
 1450 00f0 00000000 		.word	.LANCHOR1
 1451 00f4 00000000 		.word	.LANCHOR0
 1452 00f8 00000000 		.word	.LANCHOR2
 1453 00fc 00000000 		.word	.LANCHOR3
 1454 0100 00000000 		.word	.LANCHOR4
 1455 0104 00000000 		.word	.LANCHOR7
 1456 0108 00000000 		.word	.LANCHOR15
 1457              		.cfi_endproc
 1458              	.LFE4856:
 1460              		.section	.text._Z20processKnobAndSwitchv,"ax",%progbits
 1461              		.align	1
 1462              		.p2align 2,,3
 1463              		.global	_Z20processKnobAndSwitchv
 1464              		.syntax unified
 1465              		.thumb
 1466              		.thumb_func
 1468              	_Z20processKnobAndSwitchv:
 1469              	.LFB4857:
 164:MachineDaisyFile.cpp **** //====================================================================================
 165:MachineDaisyFile.cpp **** void processKnobAndSwitch()
 166:MachineDaisyFile.cpp **** {
 1470              		.loc 14 166 1 is_stmt 1 view -0
ARM GAS  /var/folders/b5/3l92j93d5t1__l78tfntmwyr0000gn/T//ccqKg67w.s 			page 49


 1471              		.cfi_startproc
 1472              		@ args = 0, pretend = 0, frame = 0
 1473              		@ frame_needed = 0, uses_anonymous_args = 0
 167:MachineDaisyFile.cpp **** 	tempoKnobValue = hw.adc.GetFloat(1);
 1474              		.loc 14 167 2 view .LVU317
 166:MachineDaisyFile.cpp **** 	tempoKnobValue = hw.adc.GetFloat(1);
 1475              		.loc 14 166 1 is_stmt 0 view .LVU318
 1476 0000 10B5     		push	{r4, lr}
 1477              		.cfi_def_cfa_offset 8
 1478              		.cfi_offset 4, -8
 1479              		.cfi_offset 14, -4
 1480              		.loc 14 167 34 view .LVU319
 1481 0002 1C48     		ldr	r0, .L91
 1482 0004 0121     		movs	r1, #1
 1483              		.loc 14 167 17 view .LVU320
 1484 0006 1C4C     		ldr	r4, .L91+4
 1485              		.loc 14 167 34 view .LVU321
 1486 0008 FFF7FEFF 		bl	_ZNK5daisy9AdcHandle8GetFloatEh
 1487              	.LVL51:
 168:MachineDaisyFile.cpp **** 	onSwitchValue = hw.adc.GetFloat(2);
 1488              		.loc 14 168 33 view .LVU322
 1489 000c 1948     		ldr	r0, .L91
 1490 000e 0221     		movs	r1, #2
 167:MachineDaisyFile.cpp **** 	tempoKnobValue = hw.adc.GetFloat(1);
 1491              		.loc 14 167 17 view .LVU323
 1492 0010 84ED000A 		vstr.32	s0, [r4]
 1493              		.loc 14 168 2 is_stmt 1 view .LVU324
 1494              		.loc 14 168 33 is_stmt 0 view .LVU325
 1495 0014 FFF7FEFF 		bl	_ZNK5daisy9AdcHandle8GetFloatEh
 1496              	.LVL52:
 1497              	.LBB534:
 1498              	.LBB535:
 1499              		.loc 15 62 19 view .LVU326
 1500 0018 B3EE0E7A 		vmov.f32	s14, #3.0e+1
 1501              	.LBE535:
 1502              	.LBE534:
 169:MachineDaisyFile.cpp **** 	// changes mode between sequencer and button mash
 170:MachineDaisyFile.cpp **** 	if (onSwitchValue > .5f)
 171:MachineDaisyFile.cpp **** 		tempoMode = true;
 172:MachineDaisyFile.cpp **** 	else	
 173:MachineDaisyFile.cpp **** 		tempoMode = false;
 174:MachineDaisyFile.cpp **** 
 175:MachineDaisyFile.cpp **** 	//knob stuff
 176:MachineDaisyFile.cpp **** 	float bpmValue = EZ_DSP::fmap(tempoKnobValue, 30.f, 250.f);
 177:MachineDaisyFile.cpp **** 	float msValue = EZ_DSP::bpmToHz(bpmValue * tempoMult, NUM_STEPS); 
 1503              		.loc 14 177 33 view .LVU327
 1504 001c 174B     		ldr	r3, .L91+8
 1505              	.LBB556:
 1506              	.LBB550:
 1507              		.loc 15 62 19 view .LVU328
 1508 001e D4ED004A 		vldr.32	s9, [r4]
 1509              	.LBE550:
 1510              	.LBE556:
 1511              		.loc 14 177 33 view .LVU329
 1512 0022 D3ED005A 		vldr.32	s11, [r3]
 1513              	.LBB557:
 1514              	.LBB551:
ARM GAS  /var/folders/b5/3l92j93d5t1__l78tfntmwyr0000gn/T//ccqKg67w.s 			page 50


 1515              		.loc 15 62 19 view .LVU330
 1516 0026 F0EE477A 		vmov.f32	s15, s14
 1517 002a 9FED156A 		vldr.32	s12, .L91+12
 1518              	.LBB536:
 1519              	.LBB537:
 1520              	.LBB538:
  30:../EZ_DSP/dsp.h ****         #else 
 1521              		.loc 15 30 13 view .LVU331
 1522 002e 9FED155A 		vldr.32	s10, .L91+16
 1523              	.LBE538:
 1524              	.LBE537:
 1525              	.LBE536:
 1526              	.LBE551:
 1527              	.LBE557:
 1528              	.LBB558:
 1529              	.LBB559:
  63:../EZ_DSP/dsp.h ****     }
  64:../EZ_DSP/dsp.h ****     // scales an input range to values between outMin and outMax
  65:../EZ_DSP/dsp.h ****     inline float fScale(float in, float inMin, float inMax, float outMin, float outMax)
  66:../EZ_DSP/dsp.h ****     {
  67:../EZ_DSP/dsp.h ****         in = fclamp(in, inMin, inMax);
  68:../EZ_DSP/dsp.h ****         float scaledValue = outMin + ((in - inMin) / (inMax-inMin) * (outMax - outMin));
  69:../EZ_DSP/dsp.h ****         return scaledValue;
  70:../EZ_DSP/dsp.h ****     }
  71:../EZ_DSP/dsp.h **** 
  72:../EZ_DSP/dsp.h **** 
  73:../EZ_DSP/dsp.h ****     /*
  74:../EZ_DSP/dsp.h ****     One Pole LOWPASS filter
  75:../EZ_DSP/dsp.h ****     out is passed by reference
  76:../EZ_DSP/dsp.h ****     coeff can be calculated with:
  77:../EZ_DSP/dsp.h ****     coeff = 1.0 / (time * sample_rate) ; where time is in seconds
  78:../EZ_DSP/dsp.h ****     FOR EXAMPLE:
  79:../EZ_DSP/dsp.h ****     float output = 0, input = 1, delay = 40ms;
  80:../EZ_DSP/dsp.h ****     fonepole(output, input, 1/(delay *.001 * 44100) )
  81:../EZ_DSP/dsp.h ****     cout<<output;     yields "0.000566893"
  82:../EZ_DSP/dsp.h ****     */
  83:../EZ_DSP/dsp.h ****    inline void fonepole(float &out, float in, float coeff)
  84:../EZ_DSP/dsp.h ****    {
  85:../EZ_DSP/dsp.h ****         out += coeff * (in - out);
  86:../EZ_DSP/dsp.h ****    }
  87:../EZ_DSP/dsp.h **** 
  88:../EZ_DSP/dsp.h ****    inline float bpmToMs(float bpm)
  89:../EZ_DSP/dsp.h ****    {
  90:../EZ_DSP/dsp.h ****         bpm = fclamp(bpm, 30.f, 250.f);
  91:../EZ_DSP/dsp.h ****         float milliseconds = 60000.0 / (bpm);
  92:../EZ_DSP/dsp.h ****         return milliseconds;
  93:../EZ_DSP/dsp.h ****    }
  94:../EZ_DSP/dsp.h **** 
  95:../EZ_DSP/dsp.h ****    inline float bpmToHz(float bpm, int numSteps)
  96:../EZ_DSP/dsp.h ****    {
  97:../EZ_DSP/dsp.h ****         float Hz = bpm / 60.f;
 1530              		.loc 15 97 15 view .LVU332
 1531 0032 DFED156A 		vldr.32	s13, .L91+20
 1532              	.LBE559:
 1533              	.LBE558:
 1534              	.LBB562:
 1535              	.LBB552:
ARM GAS  /var/folders/b5/3l92j93d5t1__l78tfntmwyr0000gn/T//ccqKg67w.s 			page 51


  62:../EZ_DSP/dsp.h ****     }
 1536              		.loc 15 62 19 view .LVU333
 1537 0036 E4EE867A 		vfma.f32	s15, s9, s12
 1538              	.LBE552:
 1539              	.LBE562:
 168:MachineDaisyFile.cpp **** 	// changes mode between sequencer and button mash
 1540              		.loc 14 168 16 view .LVU334
 1541 003a 144A     		ldr	r2, .L91+24
 1542              	.LBB563:
 1543              	.LBB553:
 1544              	.LBB547:
 1545              	.LBB541:
 1546              	.LBB542:
  19:../EZ_DSP/dsp.h ****         #else
 1547              		.loc 15 19 13 view .LVU335
 1548              		.syntax unified
 1549              	@ 19 "../EZ_DSP/dsp.h" 1
 1550 003c C7FE877A 		vmaxnm.f32 s15, s15, s14
 1551              	@ 0 "" 2
 1552              		.thumb
 1553              		.syntax unified
 1554              	.LBE542:
 1555              	.LBE541:
 1556              	.LBB544:
 1557              	.LBB539:
  30:../EZ_DSP/dsp.h ****         #else 
 1558              		.loc 15 30 13 view .LVU336
 1559              		.syntax unified
 1560              	@ 30 "../EZ_DSP/dsp.h" 1
 1561 0040 C7FEC57A 		vminnm.f32 s15, s15, s10
 1562              	@ 0 "" 2
 1563              		.thumb
 1564              		.syntax unified
 1565              	.LBE539:
 1566              	.LBE544:
 1567              	.LBE547:
 1568              	.LBE553:
 1569              	.LBE563:
 1570              		.loc 14 177 33 view .LVU337
 1571 0044 67EEA57A 		vmul.f32	s15, s15, s11
 168:MachineDaisyFile.cpp **** 	// changes mode between sequencer and button mash
 1572              		.loc 14 168 16 view .LVU338
 1573 0048 82ED000A 		vstr.32	s0, [r2]
 170:MachineDaisyFile.cpp **** 		tempoMode = true;
 1574              		.loc 14 170 2 view .LVU339
 1575 004c B6EE006A 		vmov.f32	s12, #5.0e-1
 170:MachineDaisyFile.cpp **** 		tempoMode = true;
 1576              		.loc 14 170 2 is_stmt 1 view .LVU340
 1577 0050 0F4B     		ldr	r3, .L91+28
 178:MachineDaisyFile.cpp **** 	tick.SetFreq(msValue);
 1578              		.loc 14 178 14 is_stmt 0 view .LVU341
 1579 0052 1048     		ldr	r0, .L91+32
 1580              	.LBB564:
 1581              	.LBB560:
 1582              		.loc 15 97 15 view .LVU342
 1583 0054 87EEA67A 		vdiv.f32	s14, s15, s13
 1584              	.LBE560:
ARM GAS  /var/folders/b5/3l92j93d5t1__l78tfntmwyr0000gn/T//ccqKg67w.s 			page 52


 1585              	.LBE564:
 170:MachineDaisyFile.cpp **** 		tempoMode = true;
 1586              		.loc 14 170 2 view .LVU343
 1587 0058 B4EEC60A 		vcmpe.f32	s0, s12
 179:MachineDaisyFile.cpp **** }
 1588              		.loc 14 179 1 view .LVU344
 1589 005c BDE81040 		pop	{r4, lr}
 1590              		.cfi_restore 14
 1591              		.cfi_restore 4
 1592              		.cfi_def_cfa_offset 0
 170:MachineDaisyFile.cpp **** 		tempoMode = true;
 1593              		.loc 14 170 2 view .LVU345
 1594 0060 F1EE10FA 		vmrs	APSR_nzcv, FPSCR
 1595 0064 CCBF     		ite	gt
 1596 0066 0122     		movgt	r2, #1
 1597 0068 0022     		movle	r2, #0
 1598 006a 1A70     		strb	r2, [r3]
 176:MachineDaisyFile.cpp **** 	float msValue = EZ_DSP::bpmToHz(bpmValue * tempoMult, NUM_STEPS); 
 1599              		.loc 14 176 2 is_stmt 1 view .LVU346
 1600              	.LVL53:
 1601              	.LBB565:
 1602              	.LBI534:
  60:../EZ_DSP/dsp.h ****     {
 1603              		.loc 15 60 18 view .LVU347
 1604              	.LBB554:
  62:../EZ_DSP/dsp.h ****     }
 1605              		.loc 15 62 6 view .LVU348
 1606              	.LBB548:
 1607              	.LBI536:
  37:../EZ_DSP/dsp.h ****     {
 1608              		.loc 15 37 18 view .LVU349
 1609              	.LBE548:
 1610              	.LBE554:
 1611              	.LBE565:
  39:../EZ_DSP/dsp.h ****     }    
 1612              		.loc 15 39 9 view .LVU350
 1613              	.LBB566:
 1614              	.LBB555:
 1615              	.LBB549:
 1616              	.LBB545:
 1617              	.LBI541:
  15:../EZ_DSP/dsp.h ****     {
 1618              		.loc 15 15 18 view .LVU351
 1619              	.LBB543:
  17:../EZ_DSP/dsp.h ****         #ifdef __arm__
 1620              		.loc 15 17 9 view .LVU352
  19:../EZ_DSP/dsp.h ****         #else
 1621              		.loc 15 19 13 view .LVU353
  23:../EZ_DSP/dsp.h ****     }
 1622              		.loc 15 23 13 view .LVU354
  23:../EZ_DSP/dsp.h ****     }
 1623              		.loc 15 23 13 is_stmt 0 view .LVU355
 1624              	.LBE543:
 1625              	.LBE545:
 1626              	.LBB546:
 1627              	.LBI537:
  26:../EZ_DSP/dsp.h ****     {
ARM GAS  /var/folders/b5/3l92j93d5t1__l78tfntmwyr0000gn/T//ccqKg67w.s 			page 53


 1628              		.loc 15 26 18 is_stmt 1 view .LVU356
 1629              	.LBB540:
  28:../EZ_DSP/dsp.h ****         #ifdef __arm__
 1630              		.loc 15 28 9 view .LVU357
  30:../EZ_DSP/dsp.h ****         #else 
 1631              		.loc 15 30 13 view .LVU358
  34:../EZ_DSP/dsp.h ****     }
 1632              		.loc 15 34 13 view .LVU359
  34:../EZ_DSP/dsp.h ****     }
 1633              		.loc 15 34 13 is_stmt 0 view .LVU360
 1634              	.LBE540:
 1635              	.LBE546:
 1636              	.LBE549:
 1637              	.LBE555:
 1638              	.LBE566:
 177:MachineDaisyFile.cpp **** 	tick.SetFreq(msValue);
 1639              		.loc 14 177 2 is_stmt 1 view .LVU361
 1640              	.LBB567:
 1641              	.LBI558:
  95:../EZ_DSP/dsp.h ****    {
 1642              		.loc 15 95 17 view .LVU362
 1643              	.LBB561:
 1644              		.loc 15 97 9 view .LVU363
  98:../EZ_DSP/dsp.h ****         Hz *= (numSteps/4);
 1645              		.loc 15 98 9 view .LVU364
  99:../EZ_DSP/dsp.h ****         return Hz;
 1646              		.loc 15 99 9 view .LVU365
 1647              		.loc 15 99 9 is_stmt 0 view .LVU366
 1648              	.LBE561:
 1649              	.LBE567:
 178:MachineDaisyFile.cpp **** }
 1650              		.loc 14 178 2 is_stmt 1 view .LVU367
 178:MachineDaisyFile.cpp **** }
 1651              		.loc 14 178 14 is_stmt 0 view .LVU368
 1652 006c 37EE070A 		vadd.f32	s0, s14, s14
 1653              	.LVL54:
 178:MachineDaisyFile.cpp **** }
 1654              		.loc 14 178 14 view .LVU369
 1655 0070 FFF7FEBF 		b	_ZN7daisysp5Metro7SetFreqEf
 1656              	.LVL55:
 1657              	.L92:
 178:MachineDaisyFile.cpp **** }
 1658              		.loc 14 178 14 view .LVU370
 1659              		.align	2
 1660              	.L91:
 1661 0074 18000000 		.word	.LANCHOR5+24
 1662 0078 00000000 		.word	.LANCHOR17
 1663 007c 00000000 		.word	.LANCHOR16
 1664 0080 00005C43 		.word	1130102784
 1665 0084 00007A43 		.word	1132068864
 1666 0088 00007042 		.word	1114636288
 1667 008c 00000000 		.word	.LANCHOR18
 1668 0090 00000000 		.word	.LANCHOR15
 1669 0094 00000000 		.word	.LANCHOR19
 1670              		.cfi_endproc
 1671              	.LFE4857:
 1673              		.section	.text._Z9initDrumsv,"ax",%progbits
ARM GAS  /var/folders/b5/3l92j93d5t1__l78tfntmwyr0000gn/T//ccqKg67w.s 			page 54


 1674              		.align	1
 1675              		.p2align 2,,3
 1676              		.global	_Z9initDrumsv
 1677              		.syntax unified
 1678              		.thumb
 1679              		.thumb_func
 1681              	_Z9initDrumsv:
 1682              	.LFB4858:
 180:MachineDaisyFile.cpp **** //====================================================================================
 181:MachineDaisyFile.cpp **** // initializes drums
 182:MachineDaisyFile.cpp **** void initDrums()
 183:MachineDaisyFile.cpp **** {
 1683              		.loc 14 183 1 is_stmt 1 view -0
 1684              		.cfi_startproc
 1685              		@ args = 0, pretend = 0, frame = 0
 1686              		@ frame_needed = 0, uses_anonymous_args = 0
 184:MachineDaisyFile.cpp **** 	float fs = hw.AudioSampleRate();
 1687              		.loc 14 184 2 view .LVU372
 183:MachineDaisyFile.cpp **** 	float fs = hw.AudioSampleRate();
 1688              		.loc 14 183 1 is_stmt 0 view .LVU373
 1689 0000 10B5     		push	{r4, lr}
 1690              		.cfi_def_cfa_offset 8
 1691              		.cfi_offset 4, -8
 1692              		.cfi_offset 14, -4
 1693              		.loc 14 184 31 view .LVU374
 1694 0002 4148     		ldr	r0, .L95+16
 1695              	.LBB604:
 1696              	.LBB605:
 120:../../DaisyExamples/DaisySP//Source/Drums/hihat.h **** 
 1697              		.loc 13 120 22 view .LVU375
 1698 0004 414C     		ldr	r4, .L95+20
 1699              	.LBE605:
 1700              	.LBE604:
 183:MachineDaisyFile.cpp **** 	float fs = hw.AudioSampleRate();
 1701              		.loc 14 183 1 view .LVU376
 1702 0006 2DED028B 		vpush.64	{d8}
 1703              		.cfi_def_cfa_offset 16
 1704              		.cfi_offset 80, -16
 1705              		.cfi_offset 81, -12
 1706              		.loc 14 184 31 view .LVU377
 1707 000a FFF7FEFF 		bl	_ZN5daisy9DaisySeed15AudioSampleRateEv
 1708              	.LVL56:
 1709 000e B0EE408A 		vmov.f32	s16, s0
 185:MachineDaisyFile.cpp **** 	tick.Init(4.f, fs);
 1710              		.loc 14 185 11 view .LVU378
 1711 0012 3F48     		ldr	r0, .L95+24
 1712 0014 B1EE000A 		vmov.f32	s0, #4.0e+0
 1713              	.LVL57:
 1714              		.loc 14 185 2 is_stmt 1 view .LVU379
 1715              		.loc 14 185 11 is_stmt 0 view .LVU380
 1716 0018 F0EE480A 		vmov.f32	s1, s16
 1717 001c FFF7FEFF 		bl	_ZN7daisysp5Metro4InitEff
 1718              	.LVL58:
 186:MachineDaisyFile.cpp **** 	//ourKick.init(fs, 0);
 187:MachineDaisyFile.cpp **** 	kick.Init(fs);
 1719              		.loc 14 187 2 is_stmt 1 view .LVU381
 1720              		.loc 14 187 11 is_stmt 0 view .LVU382
ARM GAS  /var/folders/b5/3l92j93d5t1__l78tfntmwyr0000gn/T//ccqKg67w.s 			page 55


 1721 0020 B0EE480A 		vmov.f32	s0, s16
 1722 0024 3B48     		ldr	r0, .L95+28
 1723 0026 FFF7FEFF 		bl	_ZN7daisysp14AnalogBassDrum4InitEf
 1724              	.LVL59:
 188:MachineDaisyFile.cpp **** 	snare.Init(fs);
 1725              		.loc 14 188 2 is_stmt 1 view .LVU383
 1726              		.loc 14 188 12 is_stmt 0 view .LVU384
 1727 002a B0EE480A 		vmov.f32	s0, s16
 1728 002e 3A48     		ldr	r0, .L95+32
 1729 0030 FFF7FEFF 		bl	_ZN7daisysp18SyntheticSnareDrum4InitEf
 1730              	.LVL60:
 189:MachineDaisyFile.cpp **** 	hat.Init(fs);
 1731              		.loc 14 189 2 is_stmt 1 view .LVU385
 1732              	.LBB725:
 1733              	.LBI604:
 118:../../DaisyExamples/DaisySP//Source/Drums/hihat.h ****     {
 1734              		.loc 13 118 10 view .LVU386
 1735              	.LBB720:
 124:../../DaisyExamples/DaisySP//Source/Drums/hihat.h ****         noise_clock_  = 0.0f;
 1736              		.loc 13 124 23 is_stmt 0 view .LVU387
 1737 0034 DFED396A 		vldr.32	s13, .L95+36
 1738              	.LBB606:
 1739              	.LBB607:
 1740              	.LBB608:
 1741              	.LBB609:
  36:../../DaisyExamples/DaisySP//Source/Utility/dsp.h **** #else
 1742              		.loc 16 36 5 view .LVU388
 1743 0038 9FED397A 		vldr.32	s14, .L95+40
 1744              	.LBE609:
 1745              	.LBE608:
 1746              	.LBE607:
 1747              	.LBE606:
 1748              	.LBB620:
 1749              	.LBB621:
 1750              	.LBB622:
 1751              	.LBB623:
 1752              	.LBB624:
  47:../../DaisyExamples/DaisySP//Source/Utility/dsp.h **** #else
 1753              		.loc 16 47 5 view .LVU389
 1754 003c F7EE003A 		vmov.f32	s7, #1.0e+0
 1755              	.LBE624:
 1756              	.LBE623:
 1757              	.LBE622:
 1758              	.LBE621:
 1759              	.LBE620:
 1760              	.LBB644:
 1761              	.LBB614:
 1762              	.LBB612:
 1763              	.LBB610:
  36:../../DaisyExamples/DaisySP//Source/Utility/dsp.h **** #else
 1764              		.loc 16 36 5 view .LVU390
 1765              		.syntax unified
 1766              	@ 36 "../../DaisyExamples/DaisySP//Source/Utility/dsp.h" 1
 1767 0040 87FE267A 		vmaxnm.f32 s14, s14, s13
 1768              	@ 0 "" 2
 1769              		.thumb
 1770              		.syntax unified
ARM GAS  /var/folders/b5/3l92j93d5t1__l78tfntmwyr0000gn/T//ccqKg67w.s 			page 56


 1771              	.LBE610:
 1772              	.LBE612:
 235:../../DaisyExamples/DaisySP//Source/Drums/hihat.h ****         decay_ -= 1.2;
 1773              		.loc 13 235 16 view .LVU391
 1774 0044 9FED2C5B 		vldr.64	d5, .L95
 1775 0048 B7EEC77A 		vcvt.f64.f32	d7, s14
 1776              	.LBE614:
 1777              	.LBE644:
 1778              	.LBB645:
 1779              	.LBB646:
 1780              	.LBB647:
 1781              	.LBB648:
 1782              	.LBB649:
  36:../../DaisyExamples/DaisySP//Source/Utility/dsp.h **** #else
 1783              		.loc 16 36 5 view .LVU392
 1784 004c 9FED356A 		vldr.32	s12, .L95+44
 1785              		.syntax unified
 1786              	@ 36 "../../DaisyExamples/DaisySP//Source/Utility/dsp.h" 1
 1787 0050 86FE266A 		vmaxnm.f32 s12, s12, s13
 1788              	@ 0 "" 2
 1789              		.thumb
 1790              		.syntax unified
 1791              	.LBE649:
 1792              	.LBE648:
 1793              	.LBE647:
 1794              	.LBE646:
 1795              	.LBE645:
 1796              	.LBB664:
 1797              	.LBB615:
 1798              		.loc 13 236 16 view .LVU393
 1799 0054 9FED2A4B 		vldr.64	d4, .L95+8
 235:../../DaisyExamples/DaisySP//Source/Drums/hihat.h ****         decay_ -= 1.2;
 1800              		.loc 13 235 16 view .LVU394
 1801 0058 27EE057B 		vmul.f64	d7, d7, d5
 1802              	.LBE615:
 1803              	.LBE664:
 1804              	.LBB665:
 1805              	.LBB666:
 208:../../DaisyExamples/DaisySP//Source/Drums/hihat.h **** 
 1806              		.loc 13 208 46 view .LVU395
 1807 005c 0023     		movs	r3, #0
 1808              	.LBE666:
 1809              	.LBE665:
 1810              	.LBB668:
 1811              	.LBB659:
 1812              	.LBB656:
 1813              	.LBB651:
 1814              	.LBB652:
  47:../../DaisyExamples/DaisySP//Source/Utility/dsp.h **** #else
 1815              		.loc 16 47 5 view .LVU396
 1816              		.syntax unified
 1817              	@ 47 "../../DaisyExamples/DaisySP//Source/Utility/dsp.h" 1
 1818 005e 86FE636A 		vminnm.f32 s12, s12, s7
 1819              	@ 0 "" 2
 1820              		.thumb
 1821              		.syntax unified
 1822              	.LBE652:
ARM GAS  /var/folders/b5/3l92j93d5t1__l78tfntmwyr0000gn/T//ccqKg67w.s 			page 57


 1823              	.LBE651:
 1824              	.LBE656:
 1825              	.LBE659:
 1826              	.LBE668:
 1827              	.LBB669:
 1828              	.LBB637:
 220:../../DaisyExamples/DaisySP//Source/Drums/hihat.h ****         f0_ = fclamp(f0, 0.f, 1.f);
 1829              		.loc 13 220 12 view .LVU397
 1830 0062 DFED315A 		vldr.32	s11, .L95+48
 1831              	.LBE637:
 1832              	.LBE669:
 136:../../DaisyExamples/DaisySP//Source/Drums/hihat.h ****         noise_coloration_svf_.Init(sample_rate_);
 1833              		.loc 13 136 29 view .LVU398
 1834 0066 04F12C00 		add	r0, r4, #44
 1835              	.LBB670:
 1836              	.LBB660:
 237:../../DaisyExamples/DaisySP//Source/Drums/hihat.h ****     }
 238:../../DaisyExamples/DaisySP//Source/Drums/hihat.h **** 
 239:../../DaisyExamples/DaisySP//Source/Drums/hihat.h ****     /** Sets the mix between tone and noise
 240:../../DaisyExamples/DaisySP//Source/Drums/hihat.h ****         \param snappy 1 = just noise. 0 = just tone.
 241:../../DaisyExamples/DaisySP//Source/Drums/hihat.h ****     */
 242:../../DaisyExamples/DaisySP//Source/Drums/hihat.h ****     void SetNoisiness(float noisiness)
 243:../../DaisyExamples/DaisySP//Source/Drums/hihat.h ****     {
 244:../../DaisyExamples/DaisySP//Source/Drums/hihat.h ****         noisiness_ = fclamp(noisiness, 0.f, 1.f);
 245:../../DaisyExamples/DaisySP//Source/Drums/hihat.h ****         noisiness_ *= noisiness_;
 1837              		.loc 13 245 20 view .LVU399
 1838 006a 26EE063A 		vmul.f32	s6, s12, s12
 1839              	.LBE660:
 1840              	.LBE670:
 124:../../DaisyExamples/DaisySP//Source/Drums/hihat.h ****         noise_clock_  = 0.0f;
 1841              		.loc 13 124 23 view .LVU400
 1842 006e C4ED076A 		vstr.32	s13, [r4, #28]
 136:../../DaisyExamples/DaisySP//Source/Drums/hihat.h ****         noise_coloration_svf_.Init(sample_rate_);
 1843              		.loc 13 136 29 view .LVU401
 1844 0072 B0EE480A 		vmov.f32	s0, s16
 125:../../DaisyExamples/DaisySP//Source/Drums/hihat.h ****         noise_sample_ = 0.0f;
 1845              		.loc 13 125 23 view .LVU402
 1846 0076 C4ED086A 		vstr.32	s13, [r4, #32]
 126:../../DaisyExamples/DaisySP//Source/Drums/hihat.h ****         sustain_gain_ = 0.0f;
 1847              		.loc 13 126 23 view .LVU403
 1848 007a C4ED096A 		vstr.32	s13, [r4, #36]
 1849              	.LBB671:
 1850              	.LBB638:
 220:../../DaisyExamples/DaisySP//Source/Drums/hihat.h ****         f0_ = fclamp(f0, 0.f, 1.f);
 1851              		.loc 13 220 12 view .LVU404
 1852 007e 85EE885A 		vdiv.f32	s10, s11, s16
 1853              	.LBE638:
 1854              	.LBE671:
 127:../../DaisyExamples/DaisySP//Source/Drums/hihat.h **** 
 1855              		.loc 13 127 23 view .LVU405
 1856 0082 C4ED0A6A 		vstr.32	s13, [r4, #40]
 1857              	.LBB672:
 1858              	.LBB639:
 1859              	.LBB633:
 1860              	.LBB627:
 1861              	.LBB628:
  36:../../DaisyExamples/DaisySP//Source/Utility/dsp.h **** #else
ARM GAS  /var/folders/b5/3l92j93d5t1__l78tfntmwyr0000gn/T//ccqKg67w.s 			page 58


 1862              		.loc 16 36 5 view .LVU406
 1863              		.syntax unified
 1864              	@ 36 "../../DaisyExamples/DaisySP//Source/Utility/dsp.h" 1
 1865 0086 85FE265A 		vmaxnm.f32 s10, s10, s13
 1866              	@ 0 "" 2
 1867              		.thumb
 1868              		.syntax unified
 1869              	.LBE628:
 1870              	.LBE627:
 1871              	.LBE633:
 1872              	.LBE639:
 1873              	.LBE672:
 1874              	.LBB673:
 1875              	.LBB661:
 1876              		.loc 13 245 20 view .LVU407
 1877 008a 84ED053A 		vstr.32	s6, [r4, #20]
 1878              	.LBE661:
 1879              	.LBE673:
 1880              	.LBB674:
 1881              	.LBB640:
 1882              	.LBB634:
 1883              	.LBB630:
 1884              	.LBB625:
  47:../../DaisyExamples/DaisySP//Source/Utility/dsp.h **** #else
 1885              		.loc 16 47 5 view .LVU408
 1886              		.syntax unified
 1887              	@ 47 "../../DaisyExamples/DaisySP//Source/Utility/dsp.h" 1
 1888 008e 85FE635A 		vminnm.f32 s10, s10, s7
 1889              	@ 0 "" 2
 1890              		.thumb
 1891              		.syntax unified
 1892              	.LBE625:
 1893              	.LBE630:
 1894              	.LBE634:
 1895              	.LBE640:
 1896              	.LBE674:
 1897              	.LBB675:
 1898              	.LBB616:
 235:../../DaisyExamples/DaisySP//Source/Drums/hihat.h ****         decay_ -= 1.2;
 1899              		.loc 13 235 16 view .LVU409
 1900 0092 B7EEC77B 		vcvt.f32.f64	s14, d7
 1901              	.LBE616:
 1902              	.LBE675:
 1903              	.LBB676:
 1904              	.LBB641:
 221:../../DaisyExamples/DaisySP//Source/Drums/hihat.h ****     }
 1905              		.loc 13 221 13 view .LVU410
 1906 0096 84ED025A 		vstr.32	s10, [r4, #8]
 1907              	.LBE641:
 1908              	.LBE676:
 1909              	.LBB677:
 1910              	.LBB678:
 213:../../DaisyExamples/DaisySP//Source/Drums/hihat.h **** 
 1911              		.loc 13 213 44 view .LVU411
 1912 009a 84ED016A 		vstr.32	s12, [r4, #4]
 1913              	.LBE678:
 1914              	.LBE677:
ARM GAS  /var/folders/b5/3l92j93d5t1__l78tfntmwyr0000gn/T//ccqKg67w.s 			page 59


 1915              	.LBB687:
 1916              	.LBB688:
 1917              	.LBB689:
 1918              	.LBB690:
 1919              	.LBB691:
  36:../../DaisyExamples/DaisySP//Source/Utility/dsp.h **** #else
 1920              		.loc 16 36 5 view .LVU412
 1921 009e F6EE005A 		vmov.f32	s11, #5.0e-1
 1922              	.LBE691:
 1923              	.LBE690:
 1924              	.LBE689:
 1925              	.LBE688:
 1926              	.LBE687:
 1927              	.LBB705:
 1928              	.LBB667:
 208:../../DaisyExamples/DaisySP//Source/Drums/hihat.h **** 
 1929              		.loc 13 208 46 view .LVU413
 1930 00a2 2383     		strh	r3, [r4, #24]	@ movhi
 1931              	.LBE667:
 1932              	.LBE705:
 1933              	.LBB706:
 1934              	.LBB617:
 236:../../DaisyExamples/DaisySP//Source/Drums/hihat.h ****     }
 1935              		.loc 13 236 16 view .LVU414
 1936 00a4 B7EEC77A 		vcvt.f64.f32	d7, s14
 1937              	.LBE617:
 1938              	.LBE706:
 120:../../DaisyExamples/DaisySP//Source/Drums/hihat.h **** 
 1939              		.loc 13 120 22 view .LVU415
 1940 00a8 84ED008A 		vstr.32	s16, [r4]
 1941              	.LBB707:
 1942              	.LBB701:
 1943              	.LBB698:
 1944              	.LBB694:
 1945              	.LBB692:
  36:../../DaisyExamples/DaisySP//Source/Utility/dsp.h **** #else
 1946              		.loc 16 36 5 view .LVU416
 1947              		.syntax unified
 1948              	@ 36 "../../DaisyExamples/DaisySP//Source/Utility/dsp.h" 1
 1949 00ac C5FEA65A 		vmaxnm.f32 s11, s11, s13
 1950              	@ 0 "" 2
 1951              	.LVL61:
  36:../../DaisyExamples/DaisySP//Source/Utility/dsp.h **** #else
 1952              		.loc 16 36 5 view .LVU417
 1953              		.thumb
 1954              		.syntax unified
 1955              	.LBE692:
 1956              	.LBE694:
 1957              	.LBE698:
 1958              	.LBE701:
 1959              	.LBE707:
 1960              	.LBB708:
 1961              	.LBI620:
 218:../../DaisyExamples/DaisySP//Source/Drums/hihat.h ****     {
 1962              		.loc 13 218 10 is_stmt 1 view .LVU418
 1963              	.LBB642:
 1964              	.LBB635:
ARM GAS  /var/folders/b5/3l92j93d5t1__l78tfntmwyr0000gn/T//ccqKg67w.s 			page 60


 1965              	.LBI622:
  56:../../DaisyExamples/DaisySP//Source/Utility/dsp.h **** {
 1966              		.loc 16 56 14 view .LVU419
 1967              	.LBE635:
 1968              	.LBE642:
 1969              	.LBE708:
 1970              	.LBE720:
 1971              	.LBE725:
 1972              		.loc 16 58 5 view .LVU420
 1973              	.LBB726:
 1974              	.LBB721:
 1975              	.LBB709:
 1976              	.LBB643:
 1977              	.LBB636:
 1978              	.LBB631:
 1979              	.LBI627:
  32:../../DaisyExamples/DaisySP//Source/Utility/dsp.h **** {
 1980              		.loc 16 32 14 view .LVU421
 1981              	.LBB629:
  34:../../DaisyExamples/DaisySP//Source/Utility/dsp.h **** #ifdef __arm__
 1982              		.loc 16 34 5 view .LVU422
  36:../../DaisyExamples/DaisySP//Source/Utility/dsp.h **** #else
 1983              		.loc 16 36 5 view .LVU423
  40:../../DaisyExamples/DaisySP//Source/Utility/dsp.h **** }
 1984              		.loc 16 40 5 view .LVU424
  40:../../DaisyExamples/DaisySP//Source/Utility/dsp.h **** }
 1985              		.loc 16 40 5 is_stmt 0 view .LVU425
 1986              	.LBE629:
 1987              	.LBE631:
 1988              	.LBB632:
 1989              	.LBI623:
  43:../../DaisyExamples/DaisySP//Source/Utility/dsp.h **** {
 1990              		.loc 16 43 14 is_stmt 1 view .LVU426
 1991              	.LBB626:
  45:../../DaisyExamples/DaisySP//Source/Utility/dsp.h **** #ifdef __arm__
 1992              		.loc 16 45 5 view .LVU427
  47:../../DaisyExamples/DaisySP//Source/Utility/dsp.h **** #else
 1993              		.loc 16 47 5 view .LVU428
  51:../../DaisyExamples/DaisySP//Source/Utility/dsp.h **** }
 1994              		.loc 16 51 5 view .LVU429
  51:../../DaisyExamples/DaisySP//Source/Utility/dsp.h **** }
 1995              		.loc 16 51 5 is_stmt 0 view .LVU430
 1996              	.LBE626:
 1997              	.LBE632:
 1998              	.LBE636:
 1999              	.LBE643:
 2000              	.LBE709:
 2001              	.LBB710:
 2002              	.LBI687:
 227:../../DaisyExamples/DaisySP//Source/Drums/hihat.h **** 
 2003              		.loc 13 227 10 is_stmt 1 view .LVU431
 2004              	.LBB702:
 2005              	.LBB699:
 2006              	.LBI689:
  56:../../DaisyExamples/DaisySP//Source/Utility/dsp.h **** {
 2007              		.loc 16 56 14 view .LVU432
 2008              	.LBE699:
ARM GAS  /var/folders/b5/3l92j93d5t1__l78tfntmwyr0000gn/T//ccqKg67w.s 			page 61


 2009              	.LBE702:
 2010              	.LBE710:
 2011              	.LBE721:
 2012              	.LBE726:
 2013              		.loc 16 58 5 view .LVU433
 2014              	.LBB727:
 2015              	.LBB722:
 2016              	.LBB711:
 2017              	.LBB703:
 2018              	.LBB700:
 2019              	.LBB695:
 2020              	.LBI690:
  32:../../DaisyExamples/DaisySP//Source/Utility/dsp.h **** {
 2021              		.loc 16 32 14 view .LVU434
 2022              	.LBB693:
  34:../../DaisyExamples/DaisySP//Source/Utility/dsp.h **** #ifdef __arm__
 2023              		.loc 16 34 5 view .LVU435
  36:../../DaisyExamples/DaisySP//Source/Utility/dsp.h **** #else
 2024              		.loc 16 36 5 view .LVU436
  40:../../DaisyExamples/DaisySP//Source/Utility/dsp.h **** }
 2025              		.loc 16 40 5 view .LVU437
  40:../../DaisyExamples/DaisySP//Source/Utility/dsp.h **** }
 2026              		.loc 16 40 5 is_stmt 0 view .LVU438
 2027              	.LBE693:
 2028              	.LBE695:
 2029              	.LBB696:
 2030              	.LBI696:
  43:../../DaisyExamples/DaisySP//Source/Utility/dsp.h **** {
 2031              		.loc 16 43 14 is_stmt 1 view .LVU439
 2032              	.LBB697:
  45:../../DaisyExamples/DaisySP//Source/Utility/dsp.h **** #ifdef __arm__
 2033              		.loc 16 45 5 view .LVU440
  47:../../DaisyExamples/DaisySP//Source/Utility/dsp.h **** #else
 2034              		.loc 16 47 5 view .LVU441
 2035              		.syntax unified
 2036              	@ 47 "../../DaisyExamples/DaisySP//Source/Utility/dsp.h" 1
 2037 00b0 C5FEE35A 		vminnm.f32 s11, s11, s7
 2038              	@ 0 "" 2
 2039              	.LVL62:
  51:../../DaisyExamples/DaisySP//Source/Utility/dsp.h **** }
 2040              		.loc 16 51 5 view .LVU442
  51:../../DaisyExamples/DaisySP//Source/Utility/dsp.h **** }
 2041              		.loc 16 51 5 is_stmt 0 view .LVU443
 2042              		.thumb
 2043              		.syntax unified
 2044              	.LBE697:
 2045              	.LBE696:
 2046              	.LBE700:
 2047              	.LBE703:
 2048              	.LBE711:
 2049              	.LBB712:
 2050              	.LBB618:
 236:../../DaisyExamples/DaisySP//Source/Drums/hihat.h ****     }
 2051              		.loc 13 236 16 view .LVU444
 2052 00b4 37EE447B 		vsub.f64	d7, d7, d4
 2053              	.LBE618:
 2054              	.LBE712:
ARM GAS  /var/folders/b5/3l92j93d5t1__l78tfntmwyr0000gn/T//ccqKg67w.s 			page 62


 2055              	.LBB713:
 2056              	.LBB704:
 227:../../DaisyExamples/DaisySP//Source/Drums/hihat.h **** 
 2057              		.loc 13 227 38 view .LVU445
 2058 00b8 C4ED035A 		vstr.32	s11, [r4, #12]
 2059              	.LVL63:
 227:../../DaisyExamples/DaisySP//Source/Drums/hihat.h **** 
 2060              		.loc 13 227 38 view .LVU446
 2061              	.LBE704:
 2062              	.LBE713:
 2063              	.LBB714:
 2064              	.LBI606:
 232:../../DaisyExamples/DaisySP//Source/Drums/hihat.h ****     {
 2065              		.loc 13 232 10 is_stmt 1 view .LVU447
 2066              	.LBB619:
 2067              	.LBB613:
 2068              	.LBI608:
  32:../../DaisyExamples/DaisySP//Source/Utility/dsp.h **** {
 2069              		.loc 16 32 14 view .LVU448
 2070              	.LBB611:
  34:../../DaisyExamples/DaisySP//Source/Utility/dsp.h **** #ifdef __arm__
 2071              		.loc 16 34 5 view .LVU449
  36:../../DaisyExamples/DaisySP//Source/Utility/dsp.h **** #else
 2072              		.loc 16 36 5 view .LVU450
  40:../../DaisyExamples/DaisySP//Source/Utility/dsp.h **** }
 2073              		.loc 16 40 5 view .LVU451
  40:../../DaisyExamples/DaisySP//Source/Utility/dsp.h **** }
 2074              		.loc 16 40 5 is_stmt 0 view .LVU452
 2075              	.LBE611:
 2076              	.LBE613:
 236:../../DaisyExamples/DaisySP//Source/Drums/hihat.h ****     }
 2077              		.loc 13 236 16 view .LVU453
 2078 00bc B7EEC77B 		vcvt.f32.f64	s14, d7
 2079 00c0 84ED047A 		vstr.32	s14, [r4, #16]
 2080              	.LVL64:
 236:../../DaisyExamples/DaisySP//Source/Drums/hihat.h ****     }
 2081              		.loc 13 236 16 view .LVU454
 2082              	.LBE619:
 2083              	.LBE714:
 2084              	.LBB715:
 2085              	.LBI645:
 242:../../DaisyExamples/DaisySP//Source/Drums/hihat.h ****     {
 2086              		.loc 13 242 10 is_stmt 1 view .LVU455
 2087              	.LBB662:
 2088              	.LBB657:
 2089              	.LBI647:
  56:../../DaisyExamples/DaisySP//Source/Utility/dsp.h **** {
 2090              		.loc 16 56 14 view .LVU456
 2091              	.LBE657:
 2092              	.LBE662:
 2093              	.LBE715:
 2094              	.LBE722:
 2095              	.LBE727:
 2096              		.loc 16 58 5 view .LVU457
 2097              	.LBB728:
 2098              	.LBB723:
 2099              	.LBB716:
ARM GAS  /var/folders/b5/3l92j93d5t1__l78tfntmwyr0000gn/T//ccqKg67w.s 			page 63


 2100              	.LBB663:
 2101              	.LBB658:
 2102              	.LBB654:
 2103              	.LBI648:
  32:../../DaisyExamples/DaisySP//Source/Utility/dsp.h **** {
 2104              		.loc 16 32 14 view .LVU458
 2105              	.LBB650:
  34:../../DaisyExamples/DaisySP//Source/Utility/dsp.h **** #ifdef __arm__
 2106              		.loc 16 34 5 view .LVU459
  36:../../DaisyExamples/DaisySP//Source/Utility/dsp.h **** #else
 2107              		.loc 16 36 5 view .LVU460
  40:../../DaisyExamples/DaisySP//Source/Utility/dsp.h **** }
 2108              		.loc 16 40 5 view .LVU461
  40:../../DaisyExamples/DaisySP//Source/Utility/dsp.h **** }
 2109              		.loc 16 40 5 is_stmt 0 view .LVU462
 2110              	.LBE650:
 2111              	.LBE654:
 2112              	.LBB655:
 2113              	.LBI651:
  43:../../DaisyExamples/DaisySP//Source/Utility/dsp.h **** {
 2114              		.loc 16 43 14 is_stmt 1 view .LVU463
 2115              	.LBB653:
  45:../../DaisyExamples/DaisySP//Source/Utility/dsp.h **** #ifdef __arm__
 2116              		.loc 16 45 5 view .LVU464
  47:../../DaisyExamples/DaisySP//Source/Utility/dsp.h **** #else
 2117              		.loc 16 47 5 view .LVU465
  51:../../DaisyExamples/DaisySP//Source/Utility/dsp.h **** }
 2118              		.loc 16 51 5 view .LVU466
  51:../../DaisyExamples/DaisySP//Source/Utility/dsp.h **** }
 2119              		.loc 16 51 5 is_stmt 0 view .LVU467
 2120              	.LBE653:
 2121              	.LBE655:
 2122              	.LBE658:
 2123              	.LBE663:
 2124              	.LBE716:
 2125              	.LBB717:
 2126              	.LBI677:
 213:../../DaisyExamples/DaisySP//Source/Drums/hihat.h **** 
 2127              		.loc 13 213 10 is_stmt 1 view .LVU468
 2128              	.LBB685:
 2129              	.LBB679:
 2130              	.LBI679:
  56:../../DaisyExamples/DaisySP//Source/Utility/dsp.h **** {
 2131              		.loc 16 56 14 view .LVU469
 2132              	.LBE679:
 2133              	.LBE685:
 2134              	.LBE717:
 2135              	.LBE723:
 2136              	.LBE728:
 2137              		.loc 16 58 5 view .LVU470
 2138              	.LBB729:
 2139              	.LBB724:
 2140              	.LBB718:
 2141              	.LBB686:
 2142              	.LBB684:
 2143              	.LBB680:
 2144              	.LBI680:
ARM GAS  /var/folders/b5/3l92j93d5t1__l78tfntmwyr0000gn/T//ccqKg67w.s 			page 64


  32:../../DaisyExamples/DaisySP//Source/Utility/dsp.h **** {
 2145              		.loc 16 32 14 view .LVU471
 2146              	.LBB681:
  34:../../DaisyExamples/DaisySP//Source/Utility/dsp.h **** #ifdef __arm__
 2147              		.loc 16 34 5 view .LVU472
  36:../../DaisyExamples/DaisySP//Source/Utility/dsp.h **** #else
 2148              		.loc 16 36 5 view .LVU473
  40:../../DaisyExamples/DaisySP//Source/Utility/dsp.h **** }
 2149              		.loc 16 40 5 view .LVU474
  40:../../DaisyExamples/DaisySP//Source/Utility/dsp.h **** }
 2150              		.loc 16 40 5 is_stmt 0 view .LVU475
 2151              	.LBE681:
 2152              	.LBE680:
 2153              	.LBB682:
 2154              	.LBI682:
  43:../../DaisyExamples/DaisySP//Source/Utility/dsp.h **** {
 2155              		.loc 16 43 14 is_stmt 1 view .LVU476
 2156              	.LBB683:
  45:../../DaisyExamples/DaisySP//Source/Utility/dsp.h **** #ifdef __arm__
 2157              		.loc 16 45 5 view .LVU477
  47:../../DaisyExamples/DaisySP//Source/Utility/dsp.h **** #else
 2158              		.loc 16 47 5 view .LVU478
  51:../../DaisyExamples/DaisySP//Source/Utility/dsp.h **** }
 2159              		.loc 16 51 5 view .LVU479
  51:../../DaisyExamples/DaisySP//Source/Utility/dsp.h **** }
 2160              		.loc 16 51 5 is_stmt 0 view .LVU480
 2161              	.LBE683:
 2162              	.LBE682:
 2163              	.LBE684:
 2164              	.LBE686:
 2165              	.LBE718:
 2166              	.LBB719:
 2167              	.LBI665:
 208:../../DaisyExamples/DaisySP//Source/Drums/hihat.h **** 
 2168              		.loc 13 208 10 is_stmt 1 view .LVU481
 208:../../DaisyExamples/DaisySP//Source/Drums/hihat.h **** 
 2169              		.loc 13 208 10 is_stmt 0 view .LVU482
 2170              	.LBE719:
 136:../../DaisyExamples/DaisySP//Source/Drums/hihat.h ****         noise_coloration_svf_.Init(sample_rate_);
 2171              		.loc 13 136 29 view .LVU483
 2172 00c4 FFF7FEFF 		bl	_ZN7daisysp11SquareNoise4InitEf
 2173              	.LVL65:
 137:../../DaisyExamples/DaisySP//Source/Drums/hihat.h ****         hpf_.Init(sample_rate_);
 2174              		.loc 13 137 35 view .LVU484
 2175 00c8 2046     		mov	r0, r4
 2176 00ca 94ED000A 		vldr.32	s0, [r4]
 2177 00ce 4430     		adds	r0, r0, #68
 2178 00d0 FFF7FEFF 		bl	_ZN7daisysp3Svf4InitEf
 2179              	.LVL66:
 138:../../DaisyExamples/DaisySP//Source/Drums/hihat.h ****     }
 2180              		.loc 13 138 18 view .LVU485
 2181 00d4 2046     		mov	r0, r4
 2182 00d6 94ED000A 		vldr.32	s0, [r4]
 2183 00da 9030     		adds	r0, r0, #144
 2184 00dc FFF7FEFF 		bl	_ZN7daisysp3Svf4InitEf
 2185              	.LVL67:
 138:../../DaisyExamples/DaisySP//Source/Drums/hihat.h ****     }
ARM GAS  /var/folders/b5/3l92j93d5t1__l78tfntmwyr0000gn/T//ccqKg67w.s 			page 65


 2186              		.loc 13 138 18 view .LVU486
 2187              	.LBE724:
 2188              	.LBE729:
 190:MachineDaisyFile.cpp **** 	synthKick.Init(fs);
 2189              		.loc 14 190 2 is_stmt 1 view .LVU487
 2190              		.loc 14 190 16 is_stmt 0 view .LVU488
 2191 00e0 B0EE480A 		vmov.f32	s0, s16
 2192 00e4 1148     		ldr	r0, .L95+52
 191:MachineDaisyFile.cpp **** }
 2193              		.loc 14 191 1 view .LVU489
 2194 00e6 BDEC028B 		vldm	sp!, {d8}
 2195              		.cfi_restore 80
 2196              		.cfi_restore 81
 2197              		.cfi_def_cfa_offset 8
 2198              	.LVL68:
 2199              		.loc 14 191 1 view .LVU490
 2200 00ea BDE81040 		pop	{r4, lr}
 2201              		.cfi_restore 14
 2202              		.cfi_restore 4
 2203              		.cfi_def_cfa_offset 0
 190:MachineDaisyFile.cpp **** 	synthKick.Init(fs);
 2204              		.loc 14 190 16 view .LVU491
 2205 00ee FFF7FEBF 		b	_ZN7daisysp17SyntheticBassDrum4InitEf
 2206              	.LVL69:
 2207              	.L96:
 190:MachineDaisyFile.cpp **** 	synthKick.Init(fs);
 2208              		.loc 14 190 16 view .LVU492
 2209 00f2 00BFAFF3 		.align	3
 2209      0080
 2210              	.L95:
 2211 00f8 33333333 		.word	858993459
 2212 00fc 3333FB3F 		.word	1073427251
 2213 0100 33333333 		.word	858993459
 2214 0104 3333F33F 		.word	1072902963
 2215 0108 00000000 		.word	.LANCHOR5
 2216 010c 00000000 		.word	.LANCHOR11
 2217 0110 00000000 		.word	.LANCHOR19
 2218 0114 00000000 		.word	.LANCHOR10
 2219 0118 00000000 		.word	.LANCHOR20
 2220 011c 00000000 		.word	0
 2221 0120 CDCC4C3E 		.word	1045220557
 2222 0124 CDCC4C3F 		.word	1061997773
 2223 0128 00803B45 		.word	1161527296
 2224 012c 00000000 		.word	.LANCHOR12
 2225              		.cfi_endproc
 2226              	.LFE4858:
 2228              		.section	.text._Z12initControlsv,"ax",%progbits
 2229              		.align	1
 2230              		.p2align 2,,3
 2231              		.global	_Z12initControlsv
 2232              		.syntax unified
 2233              		.thumb
 2234              		.thumb_func
 2236              	_Z12initControlsv:
 2237              	.LFB4859:
 192:MachineDaisyFile.cpp **** //====================================================================================
 193:MachineDaisyFile.cpp **** // initializes all buttons and drum classes
ARM GAS  /var/folders/b5/3l92j93d5t1__l78tfntmwyr0000gn/T//ccqKg67w.s 			page 66


 194:MachineDaisyFile.cpp **** void initControls()
 195:MachineDaisyFile.cpp **** {
 2238              		.loc 14 195 1 is_stmt 1 view -0
 2239              		.cfi_startproc
 2240              		@ args = 0, pretend = 0, frame = 72
 2241              		@ frame_needed = 0, uses_anonymous_args = 0
 196:MachineDaisyFile.cpp **** 	selector.Init(SELECTOR,hw.AudioCallbackRate());
 2242              		.loc 14 196 2 view .LVU494
 2243              	.LVL70:
 2244              	.LBB730:
 2245              	.LBI730:
 2246              		.file 17 "../../DaisyExamples/libDaisy//src/daisy_core.h"
   1:../../DaisyExamples/libDaisy//src/daisy_core.h **** #pragma once
   2:../../DaisyExamples/libDaisy//src/daisy_core.h **** #ifndef DSY_CORE_HW_H
   3:../../DaisyExamples/libDaisy//src/daisy_core.h **** #define DSY_CORE_HW_H /**< & */
   4:../../DaisyExamples/libDaisy//src/daisy_core.h **** #include <stdint.h>
   5:../../DaisyExamples/libDaisy//src/daisy_core.h **** #include <stdlib.h>
   6:../../DaisyExamples/libDaisy//src/daisy_core.h **** 
   7:../../DaisyExamples/libDaisy//src/daisy_core.h **** #if defined(_MSC_VER)
   8:../../DaisyExamples/libDaisy//src/daisy_core.h **** #define FORCE_INLINE __forceinline /**< & */
   9:../../DaisyExamples/libDaisy//src/daisy_core.h **** #elif defined(__clang__)
  10:../../DaisyExamples/libDaisy//src/daisy_core.h **** #define FORCE_INLINE inline __attribute__((always_inline)) /**< & */
  11:../../DaisyExamples/libDaisy//src/daisy_core.h **** #pragma clang diagnostic ignored "-Wduplicate-decl-specifier"
  12:../../DaisyExamples/libDaisy//src/daisy_core.h **** #elif defined(__GNUC__)
  13:../../DaisyExamples/libDaisy//src/daisy_core.h **** #define FORCE_INLINE inline __attribute__((always_inline)) /**< & */
  14:../../DaisyExamples/libDaisy//src/daisy_core.h **** #else
  15:../../DaisyExamples/libDaisy//src/daisy_core.h **** #error unknown compiler
  16:../../DaisyExamples/libDaisy//src/daisy_core.h **** #endif
  17:../../DaisyExamples/libDaisy//src/daisy_core.h **** 
  18:../../DaisyExamples/libDaisy//src/daisy_core.h **** /** @addtogroup utility
  19:../../DaisyExamples/libDaisy//src/daisy_core.h ****     @{
  20:../../DaisyExamples/libDaisy//src/daisy_core.h **** */
  21:../../DaisyExamples/libDaisy//src/daisy_core.h **** 
  22:../../DaisyExamples/libDaisy//src/daisy_core.h **** /** Macro for area of memory that is configured as cacheless
  23:../../DaisyExamples/libDaisy//src/daisy_core.h **** This should be used primarily for DMA buffers, and the like.
  24:../../DaisyExamples/libDaisy//src/daisy_core.h **** */
  25:../../DaisyExamples/libDaisy//src/daisy_core.h **** #define DMA_BUFFER_MEM_SECTION __attribute__((section(".sram1_bss")))
  26:../../DaisyExamples/libDaisy//src/daisy_core.h **** /** 
  27:../../DaisyExamples/libDaisy//src/daisy_core.h **** THE DTCM RAM section is also non-cached. However, is not suitable 
  28:../../DaisyExamples/libDaisy//src/daisy_core.h **** for DMA transfers. Performance is on par with internal SRAM w/ 
  29:../../DaisyExamples/libDaisy//src/daisy_core.h **** cache enabled.
  30:../../DaisyExamples/libDaisy//src/daisy_core.h **** */
  31:../../DaisyExamples/libDaisy//src/daisy_core.h **** #define DTCM_MEM_SECTION __attribute__((section(".dtcmram_bss")))
  32:../../DaisyExamples/libDaisy//src/daisy_core.h **** 
  33:../../DaisyExamples/libDaisy//src/daisy_core.h **** #define FBIPMAX 0.999985f             /**< close to 1.0f-LSB at 16 bit */
  34:../../DaisyExamples/libDaisy//src/daisy_core.h **** #define FBIPMIN (-FBIPMAX)            /**< - (1 - LSB) */
  35:../../DaisyExamples/libDaisy//src/daisy_core.h **** #define U82F_SCALE 0.0078740f         /**< 1 / 127 */
  36:../../DaisyExamples/libDaisy//src/daisy_core.h **** #define F2U8_SCALE 127.0f             /**< 128 - 1 */
  37:../../DaisyExamples/libDaisy//src/daisy_core.h **** #define S82F_SCALE 0.0078125f         /**< 1 / (2**7) */
  38:../../DaisyExamples/libDaisy//src/daisy_core.h **** #define F2S8_SCALE 127.0f             /**< (2 ** 7) - 1 */
  39:../../DaisyExamples/libDaisy//src/daisy_core.h **** #define S162F_SCALE 3.0517578125e-05f /**< 1 / (2** 15) */
  40:../../DaisyExamples/libDaisy//src/daisy_core.h **** #define F2S16_SCALE 32767.0f          /**< (2 ** 15) - 1 */
  41:../../DaisyExamples/libDaisy//src/daisy_core.h **** #define F2S24_SCALE 8388608.0f        /**< 2 ** 23 */
  42:../../DaisyExamples/libDaisy//src/daisy_core.h **** #define S242F_SCALE 1.192092896e-07f  /**< 1 / (2 ** 23) */
  43:../../DaisyExamples/libDaisy//src/daisy_core.h **** #define S24SIGN 0x800000              /**< 2 ** 23 */
  44:../../DaisyExamples/libDaisy//src/daisy_core.h **** #define S322F_SCALE 4.6566129e-10f    /**< 1 / (2** 31) */
  45:../../DaisyExamples/libDaisy//src/daisy_core.h **** #define F2S32_SCALE 2147483647.f      /**< (2 ** 31) - 1 */
ARM GAS  /var/folders/b5/3l92j93d5t1__l78tfntmwyr0000gn/T//ccqKg67w.s 			page 67


  46:../../DaisyExamples/libDaisy//src/daisy_core.h **** 
  47:../../DaisyExamples/libDaisy//src/daisy_core.h **** 
  48:../../DaisyExamples/libDaisy//src/daisy_core.h **** /** shorthand macro for simplifying the reading of the left 
  49:../../DaisyExamples/libDaisy//src/daisy_core.h ****  *  channel of a non-interleaved output buffer named out */
  50:../../DaisyExamples/libDaisy//src/daisy_core.h **** #define OUT_L out[0]
  51:../../DaisyExamples/libDaisy//src/daisy_core.h **** 
  52:../../DaisyExamples/libDaisy//src/daisy_core.h **** /** shorthand macro for simplifying the reading of the right 
  53:../../DaisyExamples/libDaisy//src/daisy_core.h ****  *  channel of a non-interleaved output buffer named out */
  54:../../DaisyExamples/libDaisy//src/daisy_core.h **** #define OUT_R out[1]
  55:../../DaisyExamples/libDaisy//src/daisy_core.h **** 
  56:../../DaisyExamples/libDaisy//src/daisy_core.h **** /** shorthand macro for simplifying the reading of the left 
  57:../../DaisyExamples/libDaisy//src/daisy_core.h ****  *  channel of a non-interleaved input buffer named in */
  58:../../DaisyExamples/libDaisy//src/daisy_core.h **** #define IN_L in[0]
  59:../../DaisyExamples/libDaisy//src/daisy_core.h **** 
  60:../../DaisyExamples/libDaisy//src/daisy_core.h **** /** shorthand macro for simplifying the reading of the right 
  61:../../DaisyExamples/libDaisy//src/daisy_core.h ****  *  channel of a non-interleaved input buffer named in */
  62:../../DaisyExamples/libDaisy//src/daisy_core.h **** #define IN_R in[1]
  63:../../DaisyExamples/libDaisy//src/daisy_core.h **** 
  64:../../DaisyExamples/libDaisy//src/daisy_core.h **** /** 
  65:../../DaisyExamples/libDaisy//src/daisy_core.h ****     Computes cube.
  66:../../DaisyExamples/libDaisy//src/daisy_core.h ****     \param x Number to be cubed
  67:../../DaisyExamples/libDaisy//src/daisy_core.h ****     \return x ^ 3
  68:../../DaisyExamples/libDaisy//src/daisy_core.h **** */
  69:../../DaisyExamples/libDaisy//src/daisy_core.h **** FORCE_INLINE float cube(float x)
  70:../../DaisyExamples/libDaisy//src/daisy_core.h **** {
  71:../../DaisyExamples/libDaisy//src/daisy_core.h ****     return (x * x) * x;
  72:../../DaisyExamples/libDaisy//src/daisy_core.h **** }
  73:../../DaisyExamples/libDaisy//src/daisy_core.h **** 
  74:../../DaisyExamples/libDaisy//src/daisy_core.h **** /** 
  75:../../DaisyExamples/libDaisy//src/daisy_core.h ****     Converts unsigned 8-bit to float
  76:../../DaisyExamples/libDaisy//src/daisy_core.h ****     \param x Number to be scaled.
  77:../../DaisyExamples/libDaisy//src/daisy_core.h ****     \return Scaled number.
  78:../../DaisyExamples/libDaisy//src/daisy_core.h **** */
  79:../../DaisyExamples/libDaisy//src/daisy_core.h **** FORCE_INLINE float u82f(uint8_t x)
  80:../../DaisyExamples/libDaisy//src/daisy_core.h **** {
  81:../../DaisyExamples/libDaisy//src/daisy_core.h ****     return ((float)x - 127.f) * U82F_SCALE;
  82:../../DaisyExamples/libDaisy//src/daisy_core.h **** }
  83:../../DaisyExamples/libDaisy//src/daisy_core.h **** 
  84:../../DaisyExamples/libDaisy//src/daisy_core.h **** /**
  85:../../DaisyExamples/libDaisy//src/daisy_core.h ****     Converts float to unsigned 8-bit
  86:../../DaisyExamples/libDaisy//src/daisy_core.h **** */
  87:../../DaisyExamples/libDaisy//src/daisy_core.h **** FORCE_INLINE uint8_t f2u8(float x)
  88:../../DaisyExamples/libDaisy//src/daisy_core.h **** {
  89:../../DaisyExamples/libDaisy//src/daisy_core.h ****     x = x <= FBIPMIN ? FBIPMIN : x;
  90:../../DaisyExamples/libDaisy//src/daisy_core.h ****     x = x >= FBIPMAX ? FBIPMAX : x;
  91:../../DaisyExamples/libDaisy//src/daisy_core.h ****     return (uint8_t)((x * F2U8_SCALE) + F2U8_SCALE);
  92:../../DaisyExamples/libDaisy//src/daisy_core.h **** }
  93:../../DaisyExamples/libDaisy//src/daisy_core.h **** 
  94:../../DaisyExamples/libDaisy//src/daisy_core.h **** 
  95:../../DaisyExamples/libDaisy//src/daisy_core.h **** /** 
  96:../../DaisyExamples/libDaisy//src/daisy_core.h ****     Converts Signed 8-bit to float
  97:../../DaisyExamples/libDaisy//src/daisy_core.h ****     \param x Number to be scaled.
  98:../../DaisyExamples/libDaisy//src/daisy_core.h ****     \return Scaled number.
  99:../../DaisyExamples/libDaisy//src/daisy_core.h **** */
 100:../../DaisyExamples/libDaisy//src/daisy_core.h **** FORCE_INLINE float s82f(int8_t x)
 101:../../DaisyExamples/libDaisy//src/daisy_core.h **** {
 102:../../DaisyExamples/libDaisy//src/daisy_core.h ****     return (float)x * S82F_SCALE;
ARM GAS  /var/folders/b5/3l92j93d5t1__l78tfntmwyr0000gn/T//ccqKg67w.s 			page 68


 103:../../DaisyExamples/libDaisy//src/daisy_core.h **** }
 104:../../DaisyExamples/libDaisy//src/daisy_core.h **** 
 105:../../DaisyExamples/libDaisy//src/daisy_core.h **** /**
 106:../../DaisyExamples/libDaisy//src/daisy_core.h ****     Converts float to Signed 8-bit
 107:../../DaisyExamples/libDaisy//src/daisy_core.h **** */
 108:../../DaisyExamples/libDaisy//src/daisy_core.h **** FORCE_INLINE int8_t f2s8(float x)
 109:../../DaisyExamples/libDaisy//src/daisy_core.h **** {
 110:../../DaisyExamples/libDaisy//src/daisy_core.h ****     x = x <= FBIPMIN ? FBIPMIN : x;
 111:../../DaisyExamples/libDaisy//src/daisy_core.h ****     x = x >= FBIPMAX ? FBIPMAX : x;
 112:../../DaisyExamples/libDaisy//src/daisy_core.h ****     return (int32_t)(x * F2S8_SCALE);
 113:../../DaisyExamples/libDaisy//src/daisy_core.h **** }
 114:../../DaisyExamples/libDaisy//src/daisy_core.h **** 
 115:../../DaisyExamples/libDaisy//src/daisy_core.h **** /** 
 116:../../DaisyExamples/libDaisy//src/daisy_core.h ****     Converts Signed 16-bit to float
 117:../../DaisyExamples/libDaisy//src/daisy_core.h ****     \param x Number to be scaled.
 118:../../DaisyExamples/libDaisy//src/daisy_core.h ****     \return Scaled number.
 119:../../DaisyExamples/libDaisy//src/daisy_core.h **** */
 120:../../DaisyExamples/libDaisy//src/daisy_core.h **** FORCE_INLINE float s162f(int16_t x)
 121:../../DaisyExamples/libDaisy//src/daisy_core.h **** {
 122:../../DaisyExamples/libDaisy//src/daisy_core.h ****     return (float)x * S162F_SCALE;
 123:../../DaisyExamples/libDaisy//src/daisy_core.h **** }
 124:../../DaisyExamples/libDaisy//src/daisy_core.h **** 
 125:../../DaisyExamples/libDaisy//src/daisy_core.h **** /**
 126:../../DaisyExamples/libDaisy//src/daisy_core.h ****     Converts float to Signed 16-bit
 127:../../DaisyExamples/libDaisy//src/daisy_core.h **** */
 128:../../DaisyExamples/libDaisy//src/daisy_core.h **** FORCE_INLINE int16_t f2s16(float x)
 129:../../DaisyExamples/libDaisy//src/daisy_core.h **** {
 130:../../DaisyExamples/libDaisy//src/daisy_core.h ****     x = x <= FBIPMIN ? FBIPMIN : x;
 131:../../DaisyExamples/libDaisy//src/daisy_core.h ****     x = x >= FBIPMAX ? FBIPMAX : x;
 132:../../DaisyExamples/libDaisy//src/daisy_core.h ****     return (int32_t)(x * F2S16_SCALE);
 133:../../DaisyExamples/libDaisy//src/daisy_core.h **** }
 134:../../DaisyExamples/libDaisy//src/daisy_core.h **** 
 135:../../DaisyExamples/libDaisy//src/daisy_core.h **** /**
 136:../../DaisyExamples/libDaisy//src/daisy_core.h ****     Converts Signed 24-bit to float
 137:../../DaisyExamples/libDaisy//src/daisy_core.h ****  */
 138:../../DaisyExamples/libDaisy//src/daisy_core.h **** FORCE_INLINE float s242f(int32_t x)
 139:../../DaisyExamples/libDaisy//src/daisy_core.h **** {
 140:../../DaisyExamples/libDaisy//src/daisy_core.h ****     x = (x ^ S24SIGN) - S24SIGN; //sign extend aka ((x<<8)>>8)
 141:../../DaisyExamples/libDaisy//src/daisy_core.h ****     return (float)x * S242F_SCALE;
 142:../../DaisyExamples/libDaisy//src/daisy_core.h **** }
 143:../../DaisyExamples/libDaisy//src/daisy_core.h **** /**
 144:../../DaisyExamples/libDaisy//src/daisy_core.h ****     Converts float to Signed 24-bit
 145:../../DaisyExamples/libDaisy//src/daisy_core.h ****  */
 146:../../DaisyExamples/libDaisy//src/daisy_core.h **** FORCE_INLINE int32_t f2s24(float x)
 147:../../DaisyExamples/libDaisy//src/daisy_core.h **** {
 148:../../DaisyExamples/libDaisy//src/daisy_core.h ****     x = x <= FBIPMIN ? FBIPMIN : x;
 149:../../DaisyExamples/libDaisy//src/daisy_core.h ****     x = x >= FBIPMAX ? FBIPMAX : x;
 150:../../DaisyExamples/libDaisy//src/daisy_core.h ****     return (int32_t)(x * F2S24_SCALE);
 151:../../DaisyExamples/libDaisy//src/daisy_core.h **** }
 152:../../DaisyExamples/libDaisy//src/daisy_core.h **** 
 153:../../DaisyExamples/libDaisy//src/daisy_core.h **** /**
 154:../../DaisyExamples/libDaisy//src/daisy_core.h ****     Converts Signed 32-bit to float
 155:../../DaisyExamples/libDaisy//src/daisy_core.h ****  */
 156:../../DaisyExamples/libDaisy//src/daisy_core.h **** FORCE_INLINE float s322f(int32_t x)
 157:../../DaisyExamples/libDaisy//src/daisy_core.h **** {
 158:../../DaisyExamples/libDaisy//src/daisy_core.h ****     return (float)x * S322F_SCALE;
 159:../../DaisyExamples/libDaisy//src/daisy_core.h **** }
ARM GAS  /var/folders/b5/3l92j93d5t1__l78tfntmwyr0000gn/T//ccqKg67w.s 			page 69


 160:../../DaisyExamples/libDaisy//src/daisy_core.h **** /**
 161:../../DaisyExamples/libDaisy//src/daisy_core.h ****     Converts float to Signed 24-bit
 162:../../DaisyExamples/libDaisy//src/daisy_core.h ****  */
 163:../../DaisyExamples/libDaisy//src/daisy_core.h **** FORCE_INLINE int32_t f2s32(float x)
 164:../../DaisyExamples/libDaisy//src/daisy_core.h **** {
 165:../../DaisyExamples/libDaisy//src/daisy_core.h ****     x = x <= FBIPMIN ? FBIPMIN : x;
 166:../../DaisyExamples/libDaisy//src/daisy_core.h ****     x = x >= FBIPMAX ? FBIPMAX : x;
 167:../../DaisyExamples/libDaisy//src/daisy_core.h ****     return (int32_t)(x * F2S32_SCALE);
 168:../../DaisyExamples/libDaisy//src/daisy_core.h **** }
 169:../../DaisyExamples/libDaisy//src/daisy_core.h **** 
 170:../../DaisyExamples/libDaisy//src/daisy_core.h **** 
 171:../../DaisyExamples/libDaisy//src/daisy_core.h **** /** Enums and a simple struct for defining a hardware pin on the MCU
 172:../../DaisyExamples/libDaisy//src/daisy_core.h ****  *  These correlate with the stm32 datasheet, and are used to configure
 173:../../DaisyExamples/libDaisy//src/daisy_core.h ****  *  the hardware.
 174:../../DaisyExamples/libDaisy//src/daisy_core.h ****  * 
 175:../../DaisyExamples/libDaisy//src/daisy_core.h ****  *  This along with the dsy_gpio_pin class should no longer be used.
 176:../../DaisyExamples/libDaisy//src/daisy_core.h ****  *  They are available for backwards compatability. 
 177:../../DaisyExamples/libDaisy//src/daisy_core.h ****  * 
 178:../../DaisyExamples/libDaisy//src/daisy_core.h ****  *  Please use GPIOPort enum and the Pin struct instead.
 179:../../DaisyExamples/libDaisy//src/daisy_core.h ****  */
 180:../../DaisyExamples/libDaisy//src/daisy_core.h **** typedef enum
 181:../../DaisyExamples/libDaisy//src/daisy_core.h **** {
 182:../../DaisyExamples/libDaisy//src/daisy_core.h ****     DSY_GPIOA, /**< & */
 183:../../DaisyExamples/libDaisy//src/daisy_core.h ****     DSY_GPIOB, /**< & */
 184:../../DaisyExamples/libDaisy//src/daisy_core.h ****     DSY_GPIOC, /**< & */
 185:../../DaisyExamples/libDaisy//src/daisy_core.h ****     DSY_GPIOD, /**< & */
 186:../../DaisyExamples/libDaisy//src/daisy_core.h ****     DSY_GPIOE, /**< & */
 187:../../DaisyExamples/libDaisy//src/daisy_core.h ****     DSY_GPIOF, /**< & */
 188:../../DaisyExamples/libDaisy//src/daisy_core.h ****     DSY_GPIOG, /**< & */
 189:../../DaisyExamples/libDaisy//src/daisy_core.h ****     DSY_GPIOH, /**< & */
 190:../../DaisyExamples/libDaisy//src/daisy_core.h ****     DSY_GPIOI, /**< & */
 191:../../DaisyExamples/libDaisy//src/daisy_core.h ****     DSY_GPIOJ, /**< & */
 192:../../DaisyExamples/libDaisy//src/daisy_core.h ****     DSY_GPIOK, /**< & */
 193:../../DaisyExamples/libDaisy//src/daisy_core.h ****     DSY_GPIOX, /** This is a non-existant port for unsupported bits of hardware. */
 194:../../DaisyExamples/libDaisy//src/daisy_core.h ****     DSY_GPIO_LAST, /** Final enum member */
 195:../../DaisyExamples/libDaisy//src/daisy_core.h **** } dsy_gpio_port;
 196:../../DaisyExamples/libDaisy//src/daisy_core.h **** 
 197:../../DaisyExamples/libDaisy//src/daisy_core.h **** /** Hardware define pins 
 198:../../DaisyExamples/libDaisy//src/daisy_core.h ****  *  
 199:../../DaisyExamples/libDaisy//src/daisy_core.h ****  *  The dsy_gpio_pin struct should no longer be used, and is only available for
 200:../../DaisyExamples/libDaisy//src/daisy_core.h ****  *  backwards compatability.
 201:../../DaisyExamples/libDaisy//src/daisy_core.h ****  * 
 202:../../DaisyExamples/libDaisy//src/daisy_core.h ****  *  Please use Pin struct instead.
 203:../../DaisyExamples/libDaisy//src/daisy_core.h ****  */
 204:../../DaisyExamples/libDaisy//src/daisy_core.h **** typedef struct
 205:../../DaisyExamples/libDaisy//src/daisy_core.h **** {
 206:../../DaisyExamples/libDaisy//src/daisy_core.h ****     dsy_gpio_port port; /**< & */
 207:../../DaisyExamples/libDaisy//src/daisy_core.h ****     uint8_t       pin;  /**< number 0-15 */
 208:../../DaisyExamples/libDaisy//src/daisy_core.h **** } dsy_gpio_pin;
 209:../../DaisyExamples/libDaisy//src/daisy_core.h **** 
 210:../../DaisyExamples/libDaisy//src/daisy_core.h **** /** Helper for creating pins from port/pin combos easily
 211:../../DaisyExamples/libDaisy//src/daisy_core.h ****  * 
 212:../../DaisyExamples/libDaisy//src/daisy_core.h ****  *  The dsy_gpio_pin struct should no longer be used, and is only available for
 213:../../DaisyExamples/libDaisy//src/daisy_core.h ****  *  backwards compatability.
 214:../../DaisyExamples/libDaisy//src/daisy_core.h ****  * 
 215:../../DaisyExamples/libDaisy//src/daisy_core.h ****  *  Please use Pin struct instead.
 216:../../DaisyExamples/libDaisy//src/daisy_core.h **** */
ARM GAS  /var/folders/b5/3l92j93d5t1__l78tfntmwyr0000gn/T//ccqKg67w.s 			page 70


 217:../../DaisyExamples/libDaisy//src/daisy_core.h **** FORCE_INLINE dsy_gpio_pin dsy_pin(dsy_gpio_port port, uint8_t pin)
 218:../../DaisyExamples/libDaisy//src/daisy_core.h **** {
 219:../../DaisyExamples/libDaisy//src/daisy_core.h ****     dsy_gpio_pin p;
 220:../../DaisyExamples/libDaisy//src/daisy_core.h ****     p.port = port;
 221:../../DaisyExamples/libDaisy//src/daisy_core.h ****     p.pin  = pin;
 222:../../DaisyExamples/libDaisy//src/daisy_core.h ****     return p;
 223:../../DaisyExamples/libDaisy//src/daisy_core.h **** }
 224:../../DaisyExamples/libDaisy//src/daisy_core.h **** 
 225:../../DaisyExamples/libDaisy//src/daisy_core.h **** /** Helper for testing sameness of two dsy_gpio_pins
 226:../../DaisyExamples/libDaisy//src/daisy_core.h ****  *  \return    1 if same, 0 if different
 227:../../DaisyExamples/libDaisy//src/daisy_core.h ****  * 
 228:../../DaisyExamples/libDaisy//src/daisy_core.h ****  *  The dsy_gpio_pin struct should no longer be used, and is only available for
 229:../../DaisyExamples/libDaisy//src/daisy_core.h ****  *  backwards compatability.
 230:../../DaisyExamples/libDaisy//src/daisy_core.h ****  * 
 231:../../DaisyExamples/libDaisy//src/daisy_core.h ****  *  Please use Pin struct instead.
 232:../../DaisyExamples/libDaisy//src/daisy_core.h ****  */
 233:../../DaisyExamples/libDaisy//src/daisy_core.h **** FORCE_INLINE uint8_t dsy_pin_cmp(dsy_gpio_pin *a, dsy_gpio_pin *b)
 234:../../DaisyExamples/libDaisy//src/daisy_core.h **** {
 235:../../DaisyExamples/libDaisy//src/daisy_core.h ****     return ((a->port == b->port) && (a->pin == b->pin));
 236:../../DaisyExamples/libDaisy//src/daisy_core.h **** }
 237:../../DaisyExamples/libDaisy//src/daisy_core.h **** 
 238:../../DaisyExamples/libDaisy//src/daisy_core.h **** #ifdef __cplusplus
 239:../../DaisyExamples/libDaisy//src/daisy_core.h **** 
 240:../../DaisyExamples/libDaisy//src/daisy_core.h **** namespace daisy
 241:../../DaisyExamples/libDaisy//src/daisy_core.h **** {
 242:../../DaisyExamples/libDaisy//src/daisy_core.h **** /** @brief GPIO Port names */
 243:../../DaisyExamples/libDaisy//src/daisy_core.h **** enum GPIOPort
 244:../../DaisyExamples/libDaisy//src/daisy_core.h **** {
 245:../../DaisyExamples/libDaisy//src/daisy_core.h ****     PORTA, /**< Port A */
 246:../../DaisyExamples/libDaisy//src/daisy_core.h ****     PORTB, /**< Port B */
 247:../../DaisyExamples/libDaisy//src/daisy_core.h ****     PORTC, /**< Port C */
 248:../../DaisyExamples/libDaisy//src/daisy_core.h ****     PORTD, /**< Port D */
 249:../../DaisyExamples/libDaisy//src/daisy_core.h ****     PORTE, /**< Port E */
 250:../../DaisyExamples/libDaisy//src/daisy_core.h ****     PORTF, /**< Port F */
 251:../../DaisyExamples/libDaisy//src/daisy_core.h ****     PORTG, /**< Port G */
 252:../../DaisyExamples/libDaisy//src/daisy_core.h ****     PORTH, /**< Port H */
 253:../../DaisyExamples/libDaisy//src/daisy_core.h ****     PORTI, /**< Port I */
 254:../../DaisyExamples/libDaisy//src/daisy_core.h ****     PORTJ, /**< Port J */
 255:../../DaisyExamples/libDaisy//src/daisy_core.h ****     PORTK, /**< Port K */
 256:../../DaisyExamples/libDaisy//src/daisy_core.h ****     PORTX, /**< Used as a dummy port to signal an invalid pin. */
 257:../../DaisyExamples/libDaisy//src/daisy_core.h **** };
 258:../../DaisyExamples/libDaisy//src/daisy_core.h **** 
 259:../../DaisyExamples/libDaisy//src/daisy_core.h **** /** @brief representation of hardware port/pin combination */
 260:../../DaisyExamples/libDaisy//src/daisy_core.h **** struct Pin
 261:../../DaisyExamples/libDaisy//src/daisy_core.h **** {
 262:../../DaisyExamples/libDaisy//src/daisy_core.h ****     GPIOPort port;
 263:../../DaisyExamples/libDaisy//src/daisy_core.h ****     uint8_t  pin;
 264:../../DaisyExamples/libDaisy//src/daisy_core.h **** 
 265:../../DaisyExamples/libDaisy//src/daisy_core.h ****     /** @brief Constructor creates a valid pin. 
 266:../../DaisyExamples/libDaisy//src/daisy_core.h ****      *  @param pt GPIOPort between PA, and PK corresponding to STM32 Port.
 267:../../DaisyExamples/libDaisy//src/daisy_core.h ****      *  @param pn pin number in range of 0-15
 268:../../DaisyExamples/libDaisy//src/daisy_core.h ****     */
 269:../../DaisyExamples/libDaisy//src/daisy_core.h ****     constexpr Pin(const GPIOPort pt, const uint8_t pn) : port(pt), pin(pn) {}
 270:../../DaisyExamples/libDaisy//src/daisy_core.h **** 
 271:../../DaisyExamples/libDaisy//src/daisy_core.h ****     /** @brief Basic Constructor creates an invalid Pin object */
 272:../../DaisyExamples/libDaisy//src/daisy_core.h ****     constexpr Pin() : port(PORTX), pin(255) {}
 273:../../DaisyExamples/libDaisy//src/daisy_core.h **** 
ARM GAS  /var/folders/b5/3l92j93d5t1__l78tfntmwyr0000gn/T//ccqKg67w.s 			page 71


 274:../../DaisyExamples/libDaisy//src/daisy_core.h ****     /** @brief checks validity of a Pin 
 275:../../DaisyExamples/libDaisy//src/daisy_core.h ****      *  @retval returns true if the port is a valid hardware pin, otherwise false.
 276:../../DaisyExamples/libDaisy//src/daisy_core.h ****     */
 277:../../DaisyExamples/libDaisy//src/daisy_core.h ****     constexpr bool IsValid() const { return port != PORTX && pin < 16; }
 278:../../DaisyExamples/libDaisy//src/daisy_core.h **** 
 279:../../DaisyExamples/libDaisy//src/daisy_core.h ****     /** @brief comparison operator for checking equality between Pin objects */
 280:../../DaisyExamples/libDaisy//src/daisy_core.h ****     constexpr bool operator==(const Pin &rhs) const
 281:../../DaisyExamples/libDaisy//src/daisy_core.h ****     {
 282:../../DaisyExamples/libDaisy//src/daisy_core.h ****         return (rhs.port == port) && (rhs.pin == pin);
 283:../../DaisyExamples/libDaisy//src/daisy_core.h ****     }
 284:../../DaisyExamples/libDaisy//src/daisy_core.h **** 
 285:../../DaisyExamples/libDaisy//src/daisy_core.h ****     /** @brief comparison operator for checking inequality between Pin objects */
 286:../../DaisyExamples/libDaisy//src/daisy_core.h ****     constexpr bool operator!=(const Pin &rhs) const { return !operator==(rhs); }
 287:../../DaisyExamples/libDaisy//src/daisy_core.h **** 
 288:../../DaisyExamples/libDaisy//src/daisy_core.h ****     /** @brief conversion operation for converting to the old-style representation
 289:../../DaisyExamples/libDaisy//src/daisy_core.h ****      *         of a pin.
 290:../../DaisyExamples/libDaisy//src/daisy_core.h ****      * 
 291:../../DaisyExamples/libDaisy//src/daisy_core.h ****      *  This allows the new Pin type to be used in place of the older, dsy_gpio_pin
 292:../../DaisyExamples/libDaisy//src/daisy_core.h ****      *  type.
 293:../../DaisyExamples/libDaisy//src/daisy_core.h ****      */
 294:../../DaisyExamples/libDaisy//src/daisy_core.h ****     operator dsy_gpio_pin() const
 2247              		.loc 17 294 5 view .LVU495
 2248              	.LBE730:
 295:../../DaisyExamples/libDaisy//src/daisy_core.h ****     {
 296:../../DaisyExamples/libDaisy//src/daisy_core.h ****         return dsy_pin(static_cast<dsy_gpio_port>(port), pin);
 2249              		.loc 17 296 9 view .LVU496
 2250              	.LBB732:
 2251              	.LBB731:
 2252              	.LBI731:
 217:../../DaisyExamples/libDaisy//src/daisy_core.h **** {
 2253              		.loc 17 217 27 view .LVU497
 2254              	.LBE731:
 2255              	.LBE732:
 219:../../DaisyExamples/libDaisy//src/daisy_core.h ****     p.port = port;
 2256              		.loc 17 219 5 view .LVU498
 220:../../DaisyExamples/libDaisy//src/daisy_core.h ****     p.pin  = pin;
 2257              		.loc 17 220 5 view .LVU499
 221:../../DaisyExamples/libDaisy//src/daisy_core.h ****     return p;
 2258              		.loc 17 221 5 view .LVU500
 222:../../DaisyExamples/libDaisy//src/daisy_core.h **** }
 2259              		.loc 17 222 5 view .LVU501
 195:MachineDaisyFile.cpp **** 	selector.Init(SELECTOR,hw.AudioCallbackRate());
 2260              		.loc 14 195 1 is_stmt 0 view .LVU502
 2261 0000 70B5     		push	{r4, r5, r6, lr}
 2262              		.cfi_def_cfa_offset 16
 2263              		.cfi_offset 4, -16
 2264              		.cfi_offset 5, -12
 2265              		.cfi_offset 6, -8
 2266              		.cfi_offset 14, -4
 2267              		.loc 14 196 15 view .LVU503
 2268 0002 234C     		ldr	r4, .L99
 195:MachineDaisyFile.cpp **** 	selector.Init(SELECTOR,hw.AudioCallbackRate());
 2269              		.loc 14 195 1 view .LVU504
 2270 0004 92B0     		sub	sp, sp, #72
 2271              		.cfi_def_cfa_offset 88
 2272 0006 0025     		movs	r5, #0
 2273 0008 0326     		movs	r6, #3
ARM GAS  /var/folders/b5/3l92j93d5t1__l78tfntmwyr0000gn/T//ccqKg67w.s 			page 72


 2274              		.loc 14 196 15 view .LVU505
 2275 000a 2046     		mov	r0, r4
 2276 000c 8DF80050 		strb	r5, [sp]
 2277 0010 8DF80160 		strb	r6, [sp, #1]
 2278              	.LVL71:
 2279              		.loc 14 196 15 view .LVU506
 2280 0014 FFF7FEFF 		bl	_ZNK5daisy9DaisySeed17AudioCallbackRateEv
 2281              	.LVL72:
 2282 0018 0099     		ldr	r1, [sp]
 2283 001a 1E48     		ldr	r0, .L99+4
 2284 001c FFF7FEFF 		bl	_ZN5daisy6Switch4InitE12dsy_gpio_pinf
 2285              	.LVL73:
 197:MachineDaisyFile.cpp **** 	tempoModON.Init(TEMPO_MOD,hw.AudioCallbackRate());
 2286              		.loc 14 197 2 is_stmt 1 view .LVU507
 2287              	.LBB733:
 2288              	.LBI733:
 294:../../DaisyExamples/libDaisy//src/daisy_core.h ****     {
 2289              		.loc 17 294 5 view .LVU508
 2290              	.LBE733:
 2291              		.loc 17 296 9 view .LVU509
 2292              	.LBB735:
 2293              	.LBB734:
 2294              	.LBI734:
 217:../../DaisyExamples/libDaisy//src/daisy_core.h **** {
 2295              		.loc 17 217 27 view .LVU510
 2296              	.LBE734:
 2297              	.LBE735:
 219:../../DaisyExamples/libDaisy//src/daisy_core.h ****     p.port = port;
 2298              		.loc 17 219 5 view .LVU511
 220:../../DaisyExamples/libDaisy//src/daisy_core.h ****     p.pin  = pin;
 2299              		.loc 17 220 5 view .LVU512
 221:../../DaisyExamples/libDaisy//src/daisy_core.h ****     return p;
 2300              		.loc 17 221 5 view .LVU513
 222:../../DaisyExamples/libDaisy//src/daisy_core.h **** }
 2301              		.loc 17 222 5 view .LVU514
 222:../../DaisyExamples/libDaisy//src/daisy_core.h **** }
 2302              		.loc 17 222 5 is_stmt 0 view .LVU515
 2303 0020 0623     		movs	r3, #6
 2304              		.loc 14 197 17 view .LVU516
 2305 0022 2046     		mov	r0, r4
 2306 0024 8DF80450 		strb	r5, [sp, #4]
 2307 0028 8DF80530 		strb	r3, [sp, #5]
 2308              	.LVL74:
 2309              		.loc 14 197 17 view .LVU517
 2310 002c FFF7FEFF 		bl	_ZNK5daisy9DaisySeed17AudioCallbackRateEv
 2311              	.LVL75:
 2312 0030 0199     		ldr	r1, [sp, #4]
 198:MachineDaisyFile.cpp **** 	initDrums();
 199:MachineDaisyFile.cpp **** 	AdcChannelConfig cfg[3];
 200:MachineDaisyFile.cpp **** 	cfg[0].InitSingle(BUTTONS);// button array
 201:MachineDaisyFile.cpp **** 	cfg[1].InitSingle(TEMPO);//knob
 202:MachineDaisyFile.cpp **** 	cfg[2].InitSingle(TEMPO_MULT);// switch
 203:MachineDaisyFile.cpp **** 	hw.adc.Init(cfg,3);
 2313              		.loc 14 203 13 view .LVU518
 2314 0032 1834     		adds	r4, r4, #24
 197:MachineDaisyFile.cpp **** 	initDrums();
 2315              		.loc 14 197 17 view .LVU519
ARM GAS  /var/folders/b5/3l92j93d5t1__l78tfntmwyr0000gn/T//ccqKg67w.s 			page 73


 2316 0034 1848     		ldr	r0, .L99+8
 2317 0036 FFF7FEFF 		bl	_ZN5daisy6Switch4InitE12dsy_gpio_pinf
 2318              	.LVL76:
 198:MachineDaisyFile.cpp **** 	initDrums();
 2319              		.loc 14 198 2 is_stmt 1 view .LVU520
 198:MachineDaisyFile.cpp **** 	initDrums();
 2320              		.loc 14 198 11 is_stmt 0 view .LVU521
 2321 003a FFF7FEFF 		bl	_Z9initDrumsv
 2322              	.LVL77:
 199:MachineDaisyFile.cpp **** 	cfg[0].InitSingle(BUTTONS);// button array
 2323              		.loc 14 199 2 is_stmt 1 view .LVU522
 200:MachineDaisyFile.cpp **** 	cfg[1].InitSingle(TEMPO);//knob
 2324              		.loc 14 200 2 view .LVU523
 2325              	.LBB736:
 2326              	.LBI736:
 294:../../DaisyExamples/libDaisy//src/daisy_core.h ****     {
 2327              		.loc 17 294 5 view .LVU524
 2328              	.LBE736:
 2329              		.loc 17 296 9 view .LVU525
 2330              	.LBB738:
 2331              	.LBB737:
 2332              	.LBI737:
 217:../../DaisyExamples/libDaisy//src/daisy_core.h **** {
 2333              		.loc 17 217 27 view .LVU526
 2334              	.LBE737:
 2335              	.LBE738:
 219:../../DaisyExamples/libDaisy//src/daisy_core.h ****     p.port = port;
 2336              		.loc 17 219 5 view .LVU527
 220:../../DaisyExamples/libDaisy//src/daisy_core.h ****     p.pin  = pin;
 2337              		.loc 17 220 5 view .LVU528
 221:../../DaisyExamples/libDaisy//src/daisy_core.h ****     return p;
 2338              		.loc 17 221 5 view .LVU529
 222:../../DaisyExamples/libDaisy//src/daisy_core.h **** }
 2339              		.loc 17 222 5 view .LVU530
 222:../../DaisyExamples/libDaisy//src/daisy_core.h **** }
 2340              		.loc 17 222 5 is_stmt 0 view .LVU531
 2341 003e 0223     		movs	r3, #2
 2342 0040 8DF80950 		strb	r5, [sp, #9]
 2343              	.LVL78:
 200:MachineDaisyFile.cpp **** 	cfg[1].InitSingle(TEMPO);//knob
 2344              		.loc 14 200 19 view .LVU532
 2345 0044 05A8     		add	r0, sp, #20
 2346 0046 8DF80830 		strb	r3, [sp, #8]
 2347 004a 0299     		ldr	r1, [sp, #8]
 2348 004c FFF7FEFF 		bl	_ZN5daisy16AdcChannelConfig10InitSingleE12dsy_gpio_pin
 2349              	.LVL79:
 201:MachineDaisyFile.cpp **** 	cfg[2].InitSingle(TEMPO_MULT);// switch
 2350              		.loc 14 201 2 is_stmt 1 view .LVU533
 2351              	.LBB739:
 2352              	.LBI739:
 294:../../DaisyExamples/libDaisy//src/daisy_core.h ****     {
 2353              		.loc 17 294 5 view .LVU534
 2354              	.LBE739:
 2355              		.loc 17 296 9 view .LVU535
 2356              	.LBB741:
 2357              	.LBB740:
 2358              	.LBI740:
ARM GAS  /var/folders/b5/3l92j93d5t1__l78tfntmwyr0000gn/T//ccqKg67w.s 			page 74


 217:../../DaisyExamples/libDaisy//src/daisy_core.h **** {
 2359              		.loc 17 217 27 view .LVU536
 2360              	.LBE740:
 2361              	.LBE741:
 219:../../DaisyExamples/libDaisy//src/daisy_core.h ****     p.port = port;
 2362              		.loc 17 219 5 view .LVU537
 220:../../DaisyExamples/libDaisy//src/daisy_core.h ****     p.pin  = pin;
 2363              		.loc 17 220 5 view .LVU538
 221:../../DaisyExamples/libDaisy//src/daisy_core.h ****     return p;
 2364              		.loc 17 221 5 view .LVU539
 222:../../DaisyExamples/libDaisy//src/daisy_core.h **** }
 2365              		.loc 17 222 5 view .LVU540
 222:../../DaisyExamples/libDaisy//src/daisy_core.h **** }
 2366              		.loc 17 222 5 is_stmt 0 view .LVU541
 2367 0050 0723     		movs	r3, #7
 2368 0052 8DF80C50 		strb	r5, [sp, #12]
 201:MachineDaisyFile.cpp **** 	cfg[2].InitSingle(TEMPO_MULT);// switch
 2369              		.loc 14 201 19 view .LVU542
 2370 0056 0DF12500 		add	r0, sp, #37
 2371 005a 8DF80D30 		strb	r3, [sp, #13]
 2372              	.LVL80:
 201:MachineDaisyFile.cpp **** 	cfg[2].InitSingle(TEMPO_MULT);// switch
 2373              		.loc 14 201 19 view .LVU543
 2374 005e 0399     		ldr	r1, [sp, #12]
 2375 0060 FFF7FEFF 		bl	_ZN5daisy16AdcChannelConfig10InitSingleE12dsy_gpio_pin
 2376              	.LVL81:
 202:MachineDaisyFile.cpp **** 	hw.adc.Init(cfg,3);
 2377              		.loc 14 202 2 is_stmt 1 view .LVU544
 2378              	.LBB742:
 2379              	.LBI742:
 294:../../DaisyExamples/libDaisy//src/daisy_core.h ****     {
 2380              		.loc 17 294 5 view .LVU545
 2381              	.LBE742:
 2382              		.loc 17 296 9 view .LVU546
 2383              	.LBB744:
 2384              	.LBB743:
 2385              	.LBI743:
 217:../../DaisyExamples/libDaisy//src/daisy_core.h **** {
 2386              		.loc 17 217 27 view .LVU547
 2387              	.LBE743:
 2388              	.LBE744:
 219:../../DaisyExamples/libDaisy//src/daisy_core.h ****     p.port = port;
 2389              		.loc 17 219 5 view .LVU548
 220:../../DaisyExamples/libDaisy//src/daisy_core.h ****     p.pin  = pin;
 2390              		.loc 17 220 5 view .LVU549
 221:../../DaisyExamples/libDaisy//src/daisy_core.h ****     return p;
 2391              		.loc 17 221 5 view .LVU550
 222:../../DaisyExamples/libDaisy//src/daisy_core.h **** }
 2392              		.loc 17 222 5 view .LVU551
 222:../../DaisyExamples/libDaisy//src/daisy_core.h **** }
 2393              		.loc 17 222 5 is_stmt 0 view .LVU552
 2394 0064 0123     		movs	r3, #1
 202:MachineDaisyFile.cpp **** 	hw.adc.Init(cfg,3);
 2395              		.loc 14 202 19 view .LVU553
 2396 0066 0DF13600 		add	r0, sp, #54
 2397 006a 8DF81030 		strb	r3, [sp, #16]
 2398 006e 8DF81130 		strb	r3, [sp, #17]
ARM GAS  /var/folders/b5/3l92j93d5t1__l78tfntmwyr0000gn/T//ccqKg67w.s 			page 75


 2399              	.LVL82:
 202:MachineDaisyFile.cpp **** 	hw.adc.Init(cfg,3);
 2400              		.loc 14 202 19 view .LVU554
 2401 0072 0499     		ldr	r1, [sp, #16]
 2402 0074 FFF7FEFF 		bl	_ZN5daisy16AdcChannelConfig10InitSingleE12dsy_gpio_pin
 2403              	.LVL83:
 2404              		.loc 14 203 2 is_stmt 1 view .LVU555
 2405              		.loc 14 203 13 is_stmt 0 view .LVU556
 2406 0078 0423     		movs	r3, #4
 2407 007a 3246     		mov	r2, r6
 2408 007c 05A9     		add	r1, sp, #20
 2409 007e 2046     		mov	r0, r4
 2410 0080 FFF7FEFF 		bl	_ZN5daisy9AdcHandle4InitEPNS_16AdcChannelConfigEjNS0_12OverSamplingE
 2411              	.LVL84:
 204:MachineDaisyFile.cpp **** 	hw.adc.Start();
 2412              		.loc 14 204 2 is_stmt 1 view .LVU557
 2413              		.loc 14 204 14 is_stmt 0 view .LVU558
 2414 0084 2046     		mov	r0, r4
 2415 0086 FFF7FEFF 		bl	_ZN5daisy9AdcHandle5StartEv
 2416              	.LVL85:
 205:MachineDaisyFile.cpp **** }
 2417              		.loc 14 205 1 view .LVU559
 2418 008a 12B0     		add	sp, sp, #72
 2419              		.cfi_def_cfa_offset 16
 2420              		@ sp needed
 2421 008c 70BD     		pop	{r4, r5, r6, pc}
 2422              	.L100:
 2423 008e 00BF     		.align	2
 2424              	.L99:
 2425 0090 00000000 		.word	.LANCHOR5
 2426 0094 00000000 		.word	.LANCHOR13
 2427 0098 00000000 		.word	.LANCHOR14
 2428              		.cfi_endproc
 2429              	.LFE4859:
 2431              		.section	.text.startup.main,"ax",%progbits
 2432              		.align	1
 2433              		.p2align 2,,3
 2434              		.global	main
 2435              		.syntax unified
 2436              		.thumb
 2437              		.thumb_func
 2439              	main:
 2440              	.LFB4862:
 206:MachineDaisyFile.cpp **** /*
 207:MachineDaisyFile.cpp **** void ledMatrix()
 208:MachineDaisyFile.cpp **** {
 209:MachineDaisyFile.cpp **** 	for (int i=0; i < 4; i++)
 210:MachineDaisyFile.cpp **** 	{
 211:MachineDaisyFile.cpp **** 		setled(0, i, (int)kicks[i]);
 212:MachineDaisyFile.cpp **** 		setled(1, i, (int)snares[i]);
 213:MachineDaisyFile.cpp **** 		setled(2, i, (int)hats[i]);
 214:MachineDaisyFile.cpp **** 		setled(3, i, (int)synths[i]);
 215:MachineDaisyFile.cpp **** 	}
 216:MachineDaisyFile.cpp **** }
 217:MachineDaisyFile.cpp **** */
 218:MachineDaisyFile.cpp **** //====================================================================================
 219:MachineDaisyFile.cpp **** // processes drum audio with sequencer controls
ARM GAS  /var/folders/b5/3l92j93d5t1__l78tfntmwyr0000gn/T//ccqKg67w.s 			page 76


 220:MachineDaisyFile.cpp **** float processSequencer()
 221:MachineDaisyFile.cpp **** {	
 222:MachineDaisyFile.cpp **** 	float totalOut = 0.f;
 223:MachineDaisyFile.cpp **** 	float kickOut = 0.0f;
 224:MachineDaisyFile.cpp ****     float snareOut = 0.0f;
 225:MachineDaisyFile.cpp ****     float hatOut = 0.0f;
 226:MachineDaisyFile.cpp ****     float synthOut = 0.0f;
 227:MachineDaisyFile.cpp **** 	bool t;
 228:MachineDaisyFile.cpp **** 	t = tick.Process();
 229:MachineDaisyFile.cpp **** 	
 230:MachineDaisyFile.cpp ****     // Process each drum sound individually and accumulate their outputs
 231:MachineDaisyFile.cpp ****     kickOut = kick.Process(kicks[step] && t);
 232:MachineDaisyFile.cpp ****     snareOut = snare.Process(snares[step] && t);
 233:MachineDaisyFile.cpp ****     hatOut = hat.Process(hats[step] && t);
 234:MachineDaisyFile.cpp ****     synthOut = synthKick.Process(synths[step] && t);
 235:MachineDaisyFile.cpp **** 
 236:MachineDaisyFile.cpp ****     // Sum the outputs of the drum sounds with their respective gain controls
 237:MachineDaisyFile.cpp ****     float kickVolume = 1.f; // Adjust the volume as needed
 238:MachineDaisyFile.cpp ****     float snareVolume = 0.5f;
 239:MachineDaisyFile.cpp ****     float hatVolume = 5.5f;
 240:MachineDaisyFile.cpp ****     float synthVolume = 0.5f;
 241:MachineDaisyFile.cpp **** 
 242:MachineDaisyFile.cpp ****     totalOut = kickOut * kickVolume + snareOut * snareVolume + hatOut * hatVolume + synthOut * synt
 243:MachineDaisyFile.cpp **** 	if (t)
 244:MachineDaisyFile.cpp **** 	{
 245:MachineDaisyFile.cpp **** 		step++;
 246:MachineDaisyFile.cpp **** 		step = step % NUM_STEPS;
 247:MachineDaisyFile.cpp **** 		setDrumParams();
 248:MachineDaisyFile.cpp **** 	}
 249:MachineDaisyFile.cpp **** 	return totalOut;
 250:MachineDaisyFile.cpp **** 	
 251:MachineDaisyFile.cpp **** 	/*
 252:MachineDaisyFile.cpp **** 	float delOut, fback;
 253:MachineDaisyFile.cpp **** 	
 254:MachineDaisyFile.cpp **** 	delOut = del.read();
 255:MachineDaisyFile.cpp **** 	fback = (delOut * delFeedback) + totalOut;
 256:MachineDaisyFile.cpp **** 	del.write(fback);
 257:MachineDaisyFile.cpp **** 	outL += totalOut*(1-delWet) + delOut*delWet;
 258:MachineDaisyFile.cpp **** 	outR += totalOut*(1-delWet) + delOut*delWet;
 259:MachineDaisyFile.cpp **** 	*/
 260:MachineDaisyFile.cpp **** 	
 261:MachineDaisyFile.cpp **** }
 262:MachineDaisyFile.cpp **** 
 263:MachineDaisyFile.cpp **** //====================================================================================
 264:MachineDaisyFile.cpp **** void AudioCallback(AudioHandle::InputBuffer in, AudioHandle::OutputBuffer out, size_t size)
 265:MachineDaisyFile.cpp **** {
 266:MachineDaisyFile.cpp **** 	processButtons();// processes button voltage ladder
 267:MachineDaisyFile.cpp **** 	digitalButtons();// processes drum selector button
 268:MachineDaisyFile.cpp **** 	processKnobAndSwitch();
 269:MachineDaisyFile.cpp **** 	for (size_t i = 0; i < size; i++)
 270:MachineDaisyFile.cpp **** 	{		
 271:MachineDaisyFile.cpp **** 		out[0][i] = out[1][i] = processSequencer();
 272:MachineDaisyFile.cpp **** 	}
 273:MachineDaisyFile.cpp **** }
 274:MachineDaisyFile.cpp **** //====================================================================================
 275:MachineDaisyFile.cpp **** int main(void)
 276:MachineDaisyFile.cpp **** {
ARM GAS  /var/folders/b5/3l92j93d5t1__l78tfntmwyr0000gn/T//ccqKg67w.s 			page 77


 2441              		.loc 14 276 1 is_stmt 1 view -0
 2442              		.cfi_startproc
 2443              		@ Volatile: function does not return.
 2444              		@ args = 0, pretend = 0, frame = 0
 2445              		@ frame_needed = 0, uses_anonymous_args = 0
 277:MachineDaisyFile.cpp **** 	hw.Init();
 2446              		.loc 14 277 2 view .LVU561
 276:MachineDaisyFile.cpp **** 	hw.Init();
 2447              		.loc 14 276 1 is_stmt 0 view .LVU562
 2448 0000 08B5     		push	{r3, lr}
 2449              		.cfi_def_cfa_offset 8
 2450              		.cfi_offset 3, -8
 2451              		.cfi_offset 14, -4
 2452              		.loc 14 277 9 view .LVU563
 2453 0002 0021     		movs	r1, #0
 2454 0004 0E48     		ldr	r0, .L104
 2455 0006 FFF7FEFF 		bl	_ZN5daisy9DaisySeed4InitEb
 2456              	.LVL86:
 278:MachineDaisyFile.cpp **** 	hw.SetAudioBlockSize(4); // number of samples handled per callback
 2457              		.loc 14 278 2 is_stmt 1 view .LVU564
 2458              		.loc 14 278 22 is_stmt 0 view .LVU565
 2459 000a 0421     		movs	r1, #4
 2460 000c 0C48     		ldr	r0, .L104
 2461 000e FFF7FEFF 		bl	_ZN5daisy9DaisySeed17SetAudioBlockSizeEj
 2462              	.LVL87:
 279:MachineDaisyFile.cpp **** 	hw.SetAudioSampleRate(SaiHandle::Config::SampleRate::SAI_32KHZ); // set to 32khz because 48khz is 
 2463              		.loc 14 279 2 is_stmt 1 view .LVU566
 2464              		.loc 14 279 23 is_stmt 0 view .LVU567
 2465 0012 0221     		movs	r1, #2
 2466 0014 0A48     		ldr	r0, .L104
 2467 0016 FFF7FEFF 		bl	_ZN5daisy9DaisySeed18SetAudioSampleRateENS_9SaiHandle6Config10SampleRateE
 2468              	.LVL88:
 280:MachineDaisyFile.cpp **** 	//hw.StartLog(true);
 281:MachineDaisyFile.cpp **** 	hw.SetLed(false);
 2469              		.loc 14 281 2 is_stmt 1 view .LVU568
 2470              		.loc 14 281 11 is_stmt 0 view .LVU569
 2471 001a 0021     		movs	r1, #0
 2472 001c 0848     		ldr	r0, .L104
 2473 001e FFF7FEFF 		bl	_ZN5daisy9DaisySeed6SetLedEb
 2474              	.LVL89:
 282:MachineDaisyFile.cpp **** 	//del.setDelay(delTime);
 283:MachineDaisyFile.cpp **** 	initControls();
 2475              		.loc 14 283 2 is_stmt 1 view .LVU570
 2476 0022 084C     		ldr	r4, .L104+4
 2477              		.loc 14 283 14 is_stmt 0 view .LVU571
 2478 0024 FFF7FEFF 		bl	_Z12initControlsv
 2479              	.LVL90:
 284:MachineDaisyFile.cpp **** 	hw.StartAudio(AudioCallback);
 2480              		.loc 14 284 2 is_stmt 1 view .LVU572
 2481              		.loc 14 284 15 is_stmt 0 view .LVU573
 2482 0028 0749     		ldr	r1, .L104+8
 2483 002a 0548     		ldr	r0, .L104
 2484 002c FFF7FEFF 		bl	_ZN5daisy9DaisySeed10StartAudioEPFvPKPKfPPfjE
 2485              	.LVL91:
 2486              	.L102:
 285:MachineDaisyFile.cpp **** 	for (;;)
 2487              		.loc 14 285 2 is_stmt 1 discriminator 1 view .LVU574
ARM GAS  /var/folders/b5/3l92j93d5t1__l78tfntmwyr0000gn/T//ccqKg67w.s 			page 78


 286:MachineDaisyFile.cpp **** 	{
 287:MachineDaisyFile.cpp **** 		//hw.SetLed(patternIn);
 288:MachineDaisyFile.cpp **** 		hw.SetLed(step%2==0);
 2488              		.loc 14 288 3 discriminator 1 view .LVU575
 2489              		.loc 14 288 12 is_stmt 0 discriminator 1 view .LVU576
 2490 0030 2168     		ldr	r1, [r4]
 2491 0032 0348     		ldr	r0, .L104
 2492 0034 C943     		mvns	r1, r1
 2493 0036 01F00101 		and	r1, r1, #1
 2494 003a FFF7FEFF 		bl	_ZN5daisy9DaisySeed6SetLedEb
 2495              	.LVL92:
 285:MachineDaisyFile.cpp **** 	for (;;)
 2496              		.loc 14 285 2 is_stmt 1 discriminator 1 view .LVU577
 2497 003e F7E7     		b	.L102
 2498              	.L105:
 2499              		.align	2
 2500              	.L104:
 2501 0040 00000000 		.word	.LANCHOR5
 2502 0044 00000000 		.word	.LANCHOR21
 2503 0048 00000000 		.word	_Z13AudioCallbackPKPKfPPfj
 2504              		.cfi_endproc
 2505              	.LFE4862:
 2507              		.section	.text._ZN7daisysp5HiHatINS_11SquareNoiseENS_9LinearVCAELb1EE7ProcessEb,"axG",%progbits,_Z
 2508              		.align	1
 2509              		.p2align 2,,3
 2510              		.weak	_ZN7daisysp5HiHatINS_11SquareNoiseENS_9LinearVCAELb1EE7ProcessEb
 2511              		.syntax unified
 2512              		.thumb
 2513              		.thumb_func
 2515              	_ZN7daisysp5HiHatINS_11SquareNoiseENS_9LinearVCAELb1EE7ProcessEb:
 2516              	.LVL93:
 2517              	.LFB5180:
 144:../../DaisyExamples/DaisySP//Source/Drums/hihat.h ****     {
 2518              		.loc 13 144 11 view -0
 2519              		.cfi_startproc
 2520              		@ args = 0, pretend = 0, frame = 8
 2521              		@ frame_needed = 0, uses_anonymous_args = 0
 147:../../DaisyExamples/DaisySP//Source/Drums/hihat.h ****         const float cut_decay
 2522              		.loc 13 147 47 is_stmt 0 view .LVU579
 2523 0000 DFED827A 		vldr.32	s15, .L121
 2524              	.LBB745:
 2525              	.LBB746:
 246:../../DaisyExamples/DaisySP//Source/Drums/hihat.h ****     }
 247:../../DaisyExamples/DaisySP//Source/Drums/hihat.h **** 
 248:../../DaisyExamples/DaisySP//Source/Drums/hihat.h **** 
 249:../../DaisyExamples/DaisySP//Source/Drums/hihat.h ****   private:
 250:../../DaisyExamples/DaisySP//Source/Drums/hihat.h ****     float sample_rate_;
 251:../../DaisyExamples/DaisySP//Source/Drums/hihat.h **** 
 252:../../DaisyExamples/DaisySP//Source/Drums/hihat.h ****     float accent_, f0_, tone_, decay_, noisiness_;
 253:../../DaisyExamples/DaisySP//Source/Drums/hihat.h ****     bool  sustain_;
 254:../../DaisyExamples/DaisySP//Source/Drums/hihat.h ****     bool  trig_;
 255:../../DaisyExamples/DaisySP//Source/Drums/hihat.h **** 
 256:../../DaisyExamples/DaisySP//Source/Drums/hihat.h ****     float SemitonesToRatio(float in) { return powf(2.f, in * kOneTwelfth); }
 2526              		.loc 13 256 51 view .LVU580
 2527 0004 B0EE000A 		vmov.f32	s0, #2.0e+0
 2528              	.LBE746:
 2529              	.LBE745:
ARM GAS  /var/folders/b5/3l92j93d5t1__l78tfntmwyr0000gn/T//ccqKg67w.s 			page 79


 147:../../DaisyExamples/DaisySP//Source/Drums/hihat.h ****         const float cut_decay
 2530              		.loc 13 147 47 view .LVU581
 2531 0008 D0ED040A 		vldr.32	s1, [r0, #16]
 2532 000c 60EEE70A 		vnmul.f32	s1, s1, s15
 144:../../DaisyExamples/DaisySP//Source/Drums/hihat.h ****     {
 2533              		.loc 13 144 11 view .LVU582
 2534 0010 30B5     		push	{r4, r5, lr}
 2535              		.cfi_def_cfa_offset 12
 2536              		.cfi_offset 4, -12
 2537              		.cfi_offset 5, -8
 2538              		.cfi_offset 14, -4
 2539 0012 2DED068B 		vpush.64	{d8, d9, d10}
 2540              		.cfi_def_cfa_offset 36
 2541              		.cfi_offset 80, -36
 2542              		.cfi_offset 81, -32
 2543              		.cfi_offset 82, -28
 2544              		.cfi_offset 83, -24
 2545              		.cfi_offset 84, -20
 2546              		.cfi_offset 85, -16
 2547              	.LBB750:
 2548              	.LBB747:
 2549              		.loc 13 256 51 view .LVU583
 2550 0016 9FED7E8A 		vldr.32	s16, .L121+4
 2551              	.LBE747:
 2552              	.LBE750:
 144:../../DaisyExamples/DaisySP//Source/Drums/hihat.h ****     {
 2553              		.loc 13 144 11 view .LVU584
 2554 001a 0446     		mov	r4, r0
 2555              	.LVL94:
 2556              	.LBB751:
 2557              	.LBI745:
 2558              		.loc 13 256 11 is_stmt 1 view .LVU585
 2559              	.LBE751:
 144:../../DaisyExamples/DaisySP//Source/Drums/hihat.h ****     {
 2560              		.loc 13 144 11 is_stmt 0 view .LVU586
 2561 001c 83B0     		sub	sp, sp, #12
 2562              		.cfi_def_cfa_offset 48
 144:../../DaisyExamples/DaisySP//Source/Drums/hihat.h ****     {
 2563              		.loc 13 144 11 view .LVU587
 2564 001e 0D46     		mov	r5, r1
 2565              	.LBB752:
 2566              	.LBB748:
 2567              		.loc 13 256 51 view .LVU588
 2568 0020 60EE880A 		vmul.f32	s1, s1, s16
 2569 0024 FFF7FEFF 		bl	powf
 2570              	.LVL95:
 2571              		.loc 13 256 51 view .LVU589
 2572              	.LBE748:
 2573              	.LBE752:
 149:../../DaisyExamples/DaisySP//Source/Drums/hihat.h **** 
 2574              		.loc 13 149 48 view .LVU590
 2575 0028 D4ED040A 		vldr.32	s1, [r4, #16]
 2576 002c DFED797A 		vldr.32	s15, .L121+8
 2577              	.LBB753:
 2578              	.LBB749:
 2579              		.loc 13 256 51 view .LVU591
 2580 0030 F0EE409A 		vmov.f32	s19, s0
ARM GAS  /var/folders/b5/3l92j93d5t1__l78tfntmwyr0000gn/T//ccqKg67w.s 			page 80


 2581              	.LBE749:
 2582              	.LBE753:
 2583              	.LBB754:
 2584              	.LBB755:
 2585 0034 B0EE000A 		vmov.f32	s0, #2.0e+0
 2586              	.LVL96:
 2587              		.loc 13 256 51 view .LVU592
 2588              	.LBE755:
 2589              	.LBI754:
 2590              		.loc 13 256 11 is_stmt 1 view .LVU593
 2591              	.LBE754:
 149:../../DaisyExamples/DaisySP//Source/Drums/hihat.h **** 
 2592              		.loc 13 149 48 is_stmt 0 view .LVU594
 2593 0038 60EEE70A 		vnmul.f32	s1, s1, s15
 2594              	.LVL97:
 2595              	.LBB757:
 2596              	.LBB756:
 2597              		.loc 13 256 51 view .LVU595
 2598 003c 60EE880A 		vmul.f32	s1, s1, s16
 2599 0040 FFF7FEFF 		bl	powf
 2600              	.LVL98:
 2601              		.loc 13 256 51 view .LVU596
 2602 0044 B0EE409A 		vmov.f32	s18, s0
 2603              	.LVL99:
 2604              		.loc 13 256 51 view .LVU597
 2605              	.LBE756:
 2606              	.LBE757:
 151:../../DaisyExamples/DaisySP//Source/Drums/hihat.h ****         {
 2607              		.loc 13 151 9 view .LVU598
 2608 0048 002D     		cmp	r5, #0
 2609 004a 40F0A980 		bne	.L107
 151:../../DaisyExamples/DaisySP//Source/Drums/hihat.h ****         {
 2610              		.loc 13 151 20 discriminator 1 view .LVU599
 2611 004e 637E     		ldrb	r3, [r4, #25]	@ zero_extendqisi2
 2612 0050 002B     		cmp	r3, #0
 2613 0052 40F0A580 		bne	.L107
 2614              	.L108:
 160:../../DaisyExamples/DaisySP//Source/Drums/hihat.h **** 
 2615              		.loc 13 160 44 view .LVU600
 2616 0056 94ED020A 		vldr.32	s0, [r4, #8]
 2617              	.LVL100:
 160:../../DaisyExamples/DaisySP//Source/Drums/hihat.h **** 
 2618              		.loc 13 160 44 view .LVU601
 2619 005a 04F12C00 		add	r0, r4, #44
 165:../../DaisyExamples/DaisySP//Source/Drums/hihat.h **** 
 2620              		.loc 13 165 50 view .LVU602
 2621 005e 2546     		mov	r5, r4
 2622              	.LBB758:
 2623              	.LBB759:
 2624              	.LBB760:
  36:../../DaisyExamples/DaisySP//Source/Utility/dsp.h **** #else
 2625              		.loc 16 36 5 view .LVU603
 2626 0060 DFED6DAA 		vldr.32	s21, .L121+12
 2627              	.LBE760:
 2628              	.LBE759:
 2629              	.LBE758:
 160:../../DaisyExamples/DaisySP//Source/Drums/hihat.h **** 
ARM GAS  /var/folders/b5/3l92j93d5t1__l78tfntmwyr0000gn/T//ccqKg67w.s 			page 81


 2630              		.loc 13 160 44 view .LVU604
 2631 0064 30EE000A 		vadd.f32	s0, s0, s0
 2632 0068 FFF7FEFF 		bl	_ZN7daisysp11SquareNoise7ProcessEf
 2633              	.LVL101:
 163:../../DaisyExamples/DaisySP//Source/Drums/hihat.h **** 
 2634              		.loc 13 163 31 view .LVU605
 2635 006c 9FED6B6A 		vldr.32	s12, .L121+16
 2636 0070 D4ED006A 		vldr.32	s13, [r4]
 160:../../DaisyExamples/DaisySP//Source/Drums/hihat.h **** 
 2637              		.loc 13 160 44 view .LVU606
 2638 0074 B0EE40AA 		vmov.f32	s20, s0
 163:../../DaisyExamples/DaisySP//Source/Drums/hihat.h **** 
 2639              		.loc 13 163 64 view .LVU607
 2640 0078 9FED697A 		vldr.32	s14, .L121+20
 2641              	.LBB767:
 2642              	.LBB768:
 2643              		.loc 13 256 51 view .LVU608
 2644 007c B0EE000A 		vmov.f32	s0, #2.0e+0
 2645              	.LVL102:
 2646              		.loc 13 256 51 view .LVU609
 2647              	.LBE768:
 2648              	.LBI767:
 2649              		.loc 13 256 11 is_stmt 1 view .LVU610
 2650              	.LBE767:
 163:../../DaisyExamples/DaisySP//Source/Drums/hihat.h **** 
 2651              		.loc 13 163 31 is_stmt 0 view .LVU611
 2652 0080 C6EE268A 		vdiv.f32	s17, s12, s13
 163:../../DaisyExamples/DaisySP//Source/Drums/hihat.h **** 
 2653              		.loc 13 163 64 view .LVU612
 2654 0084 D4ED037A 		vldr.32	s15, [r4, #12]
 2655              	.LBB771:
 2656              	.LBB769:
 2657              		.loc 13 256 51 view .LVU613
 2658 0088 DFED610A 		vldr.32	s1, .L121+4
 2659              	.LBE769:
 2660              	.LBE771:
 165:../../DaisyExamples/DaisySP//Source/Drums/hihat.h **** 
 2661              		.loc 13 165 50 view .LVU614
 2662 008c 4435     		adds	r5, r5, #68
 2663              	.LVL103:
 163:../../DaisyExamples/DaisySP//Source/Drums/hihat.h **** 
 2664              		.loc 13 163 64 view .LVU615
 2665 008e 67EE877A 		vmul.f32	s15, s15, s14
 2666              	.LVL104:
 2667              	.LBB772:
 2668              	.LBB770:
 2669              		.loc 13 256 51 view .LVU616
 2670 0092 67EEA00A 		vmul.f32	s1, s15, s1
 2671 0096 FFF7FEFF 		bl	powf
 2672              	.LVL105:
 2673              		.loc 13 256 51 view .LVU617
 2674              	.LBE770:
 2675              	.LBE772:
 165:../../DaisyExamples/DaisySP//Source/Drums/hihat.h **** 
 2676              		.loc 13 165 24 view .LVU618
 2677 009a DFED626A 		vldr.32	s13, .L121+24
 165:../../DaisyExamples/DaisySP//Source/Drums/hihat.h **** 
ARM GAS  /var/folders/b5/3l92j93d5t1__l78tfntmwyr0000gn/T//ccqKg67w.s 			page 82


 2678              		.loc 13 165 50 view .LVU619
 2679 009e D4ED007A 		vldr.32	s15, [r4]
 2680              	.LVL106:
 2681              	.LBB773:
 2682              	.LBI758:
  56:../../DaisyExamples/DaisySP//Source/Utility/dsp.h **** {
 2683              		.loc 16 56 14 is_stmt 1 view .LVU620
 2684              	.LBE773:
 2685              		.loc 16 58 5 view .LVU621
 2686              	.LBB774:
 2687              	.LBB763:
 2688              	.LBI759:
  32:../../DaisyExamples/DaisySP//Source/Utility/dsp.h **** {
 2689              		.loc 16 32 14 view .LVU622
 2690              	.LBB761:
  34:../../DaisyExamples/DaisySP//Source/Utility/dsp.h **** #ifdef __arm__
 2691              		.loc 16 34 5 view .LVU623
  36:../../DaisyExamples/DaisySP//Source/Utility/dsp.h **** #else
 2692              		.loc 16 36 5 view .LVU624
 2693              	.LBE761:
 2694              	.LBE763:
 2695              	.LBE774:
 168:../../DaisyExamples/DaisySP//Source/Drums/hihat.h ****         noise_coloration_svf_.SetRes(resonance ? 3.0f + 6.0f * tone_ : 1.0f);
 2696              		.loc 13 168 38 is_stmt 0 view .LVU625
 2697 00a2 2846     		mov	r0, r5
 165:../../DaisyExamples/DaisySP//Source/Drums/hihat.h **** 
 2698              		.loc 13 165 24 view .LVU626
 2699 00a4 86EEA77A 		vdiv.f32	s14, s13, s15
 2700              	.LVL107:
 163:../../DaisyExamples/DaisySP//Source/Drums/hihat.h **** 
 2701              		.loc 13 163 15 view .LVU627
 2702 00a8 68EE808A 		vmul.f32	s17, s17, s0
 2703              	.LVL108:
 2704              	.LBB775:
 2705              	.LBB764:
 2706              	.LBB762:
  36:../../DaisyExamples/DaisySP//Source/Utility/dsp.h **** #else
 2707              		.loc 16 36 5 view .LVU628
 2708              		.syntax unified
 2709              	@ 36 "../../DaisyExamples/DaisySP//Source/Utility/dsp.h" 1
 2710 00ac C8FEAA8A 		vmaxnm.f32 s17, s17, s21
 2711              	@ 0 "" 2
 2712              	.LVL109:
  40:../../DaisyExamples/DaisySP//Source/Utility/dsp.h **** }
 2713              		.loc 16 40 5 is_stmt 1 view .LVU629
  40:../../DaisyExamples/DaisySP//Source/Utility/dsp.h **** }
 2714              		.loc 16 40 5 is_stmt 0 view .LVU630
 2715              		.thumb
 2716              		.syntax unified
 2717              	.LBE762:
 2718              	.LBE764:
 2719              	.LBB765:
 2720              	.LBI765:
  43:../../DaisyExamples/DaisySP//Source/Utility/dsp.h **** {
 2721              		.loc 16 43 14 is_stmt 1 view .LVU631
 2722              	.LBB766:
  45:../../DaisyExamples/DaisySP//Source/Utility/dsp.h **** #ifdef __arm__
ARM GAS  /var/folders/b5/3l92j93d5t1__l78tfntmwyr0000gn/T//ccqKg67w.s 			page 83


 2723              		.loc 16 45 5 view .LVU632
  47:../../DaisyExamples/DaisySP//Source/Utility/dsp.h **** #else
 2724              		.loc 16 47 5 view .LVU633
 2725              		.syntax unified
 2726              	@ 47 "../../DaisyExamples/DaisySP//Source/Utility/dsp.h" 1
 2727 00b0 C8FEC78A 		vminnm.f32 s17, s17, s14
 2728              	@ 0 "" 2
 2729              	.LVL110:
  51:../../DaisyExamples/DaisySP//Source/Utility/dsp.h **** }
 2730              		.loc 16 51 5 view .LVU634
  51:../../DaisyExamples/DaisySP//Source/Utility/dsp.h **** }
 2731              		.loc 16 51 5 is_stmt 0 view .LVU635
 2732              		.thumb
 2733              		.syntax unified
 2734              	.LBE766:
 2735              	.LBE765:
 2736              	.LBE775:
 168:../../DaisyExamples/DaisySP//Source/Drums/hihat.h ****         noise_coloration_svf_.SetRes(resonance ? 3.0f + 6.0f * tone_ : 1.0f);
 2737              		.loc 13 168 38 view .LVU636
 2738 00b4 27EEA80A 		vmul.f32	s0, s15, s17
 2739 00b8 FFF7FEFF 		bl	_ZN7daisysp3Svf7SetFreqEf
 2740              	.LVL111:
 169:../../DaisyExamples/DaisySP//Source/Drums/hihat.h **** 
 2741              		.loc 13 169 37 view .LVU637
 2742 00bc F1EE087A 		vmov.f32	s15, #6.0e+0
 2743 00c0 B0EE080A 		vmov.f32	s0, #3.0e+0
 2744 00c4 94ED037A 		vldr.32	s14, [r4, #12]
 2745 00c8 2846     		mov	r0, r5
 2746 00ca A7EE270A 		vfma.f32	s0, s14, s15
 2747 00ce FFF7FEFF 		bl	_ZN7daisysp3Svf6SetResEf
 2748              	.LVL112:
 171:../../DaisyExamples/DaisySP//Source/Drums/hihat.h ****         out = noise_coloration_svf_.Band();
 2749              		.loc 13 171 38 view .LVU638
 2750 00d2 B0EE4A0A 		vmov.f32	s0, s20
 2751 00d6 2846     		mov	r0, r5
 2752 00d8 FFF7FEFF 		bl	_ZN7daisysp3Svf7ProcessEf
 2753              	.LVL113:
 2754              	.LBB776:
 2755              	.LBI776:
  23:../../DaisyExamples/DaisySP//Source/Filters/svf.h ****     /** Initializes the filter
  24:../../DaisyExamples/DaisySP//Source/Filters/svf.h ****         float sample_rate - sample rate of the audio engine being run, and the frequency that the P
  25:../../DaisyExamples/DaisySP//Source/Filters/svf.h ****     */
  26:../../DaisyExamples/DaisySP//Source/Filters/svf.h ****     void Init(float sample_rate);
  27:../../DaisyExamples/DaisySP//Source/Filters/svf.h **** 
  28:../../DaisyExamples/DaisySP//Source/Filters/svf.h **** 
  29:../../DaisyExamples/DaisySP//Source/Filters/svf.h ****     /** 
  30:../../DaisyExamples/DaisySP//Source/Filters/svf.h ****         Process the input signal, updating all of the outputs.
  31:../../DaisyExamples/DaisySP//Source/Filters/svf.h ****     */
  32:../../DaisyExamples/DaisySP//Source/Filters/svf.h ****     void Process(float in);
  33:../../DaisyExamples/DaisySP//Source/Filters/svf.h **** 
  34:../../DaisyExamples/DaisySP//Source/Filters/svf.h **** 
  35:../../DaisyExamples/DaisySP//Source/Filters/svf.h ****     /** sets the frequency of the cutoff frequency. 
  36:../../DaisyExamples/DaisySP//Source/Filters/svf.h ****         f must be between 0.0 and sample_rate / 3
  37:../../DaisyExamples/DaisySP//Source/Filters/svf.h ****     */
  38:../../DaisyExamples/DaisySP//Source/Filters/svf.h ****     void SetFreq(float f);
  39:../../DaisyExamples/DaisySP//Source/Filters/svf.h **** 
  40:../../DaisyExamples/DaisySP//Source/Filters/svf.h ****     /** sets the resonance of the filter.
ARM GAS  /var/folders/b5/3l92j93d5t1__l78tfntmwyr0000gn/T//ccqKg67w.s 			page 84


  41:../../DaisyExamples/DaisySP//Source/Filters/svf.h ****         Must be between 0.0 and 1.0 to ensure stability.
  42:../../DaisyExamples/DaisySP//Source/Filters/svf.h ****     */
  43:../../DaisyExamples/DaisySP//Source/Filters/svf.h ****     void SetRes(float r);
  44:../../DaisyExamples/DaisySP//Source/Filters/svf.h **** 
  45:../../DaisyExamples/DaisySP//Source/Filters/svf.h ****     /** sets the drive of the filter 
  46:../../DaisyExamples/DaisySP//Source/Filters/svf.h ****         affects the response of the resonance of the filter
  47:../../DaisyExamples/DaisySP//Source/Filters/svf.h ****     */
  48:../../DaisyExamples/DaisySP//Source/Filters/svf.h ****     void SetDrive(float d);
  49:../../DaisyExamples/DaisySP//Source/Filters/svf.h ****     /** lowpass output
  50:../../DaisyExamples/DaisySP//Source/Filters/svf.h ****         \return low pass output of the filter
  51:../../DaisyExamples/DaisySP//Source/Filters/svf.h ****     */
  52:../../DaisyExamples/DaisySP//Source/Filters/svf.h ****     inline float Low() { return out_low_; }
  53:../../DaisyExamples/DaisySP//Source/Filters/svf.h ****     /** highpass output
  54:../../DaisyExamples/DaisySP//Source/Filters/svf.h ****         \return high pass output of the filter
  55:../../DaisyExamples/DaisySP//Source/Filters/svf.h ****     */
  56:../../DaisyExamples/DaisySP//Source/Filters/svf.h ****     inline float High() { return out_high_; }
  57:../../DaisyExamples/DaisySP//Source/Filters/svf.h ****     /** bandpass output
  58:../../DaisyExamples/DaisySP//Source/Filters/svf.h ****         \return band pass output of the filter
  59:../../DaisyExamples/DaisySP//Source/Filters/svf.h ****     */
  60:../../DaisyExamples/DaisySP//Source/Filters/svf.h ****     inline float Band() { return out_band_; }
 2756              		.loc 9 60 18 is_stmt 1 view .LVU639
 2757              	.LBB777:
 2758              		.loc 9 60 27 view .LVU640
 2759              	.LBE777:
 2760              	.LBE776:
 177:../../DaisyExamples/DaisySP//Source/Drums/hihat.h ****         noise_f       = fclamp(noise_f, 0.0f, 0.5f);
 2761              		.loc 13 177 54 is_stmt 0 view .LVU641
 2762 00dc F7EE006A 		vmov.f32	s13, #1.0e+0
 177:../../DaisyExamples/DaisySP//Source/Drums/hihat.h ****         noise_f       = fclamp(noise_f, 0.0f, 0.5f);
 2763              		.loc 13 177 56 view .LVU642
 2764 00e0 D4ED055A 		vldr.32	s11, [r4, #20]
 177:../../DaisyExamples/DaisySP//Source/Drums/hihat.h ****         noise_f       = fclamp(noise_f, 0.0f, 0.5f);
 2765              		.loc 13 177 38 view .LVU643
 2766 00e4 B3EE007A 		vmov.f32	s14, #1.6e+1
 180:../../DaisyExamples/DaisySP//Source/Drums/hihat.h ****         if(noise_clock_ >= 1.0f)
 2767              		.loc 13 180 22 view .LVU644
 2768 00e8 94ED086A 		vldr.32	s12, [r4, #32]
 2769              	.LBB779:
 2770              	.LBB780:
 2771              	.LBB781:
  47:../../DaisyExamples/DaisySP//Source/Utility/dsp.h **** #else
 2772              		.loc 16 47 5 view .LVU645
 2773 00ec B6EE005A 		vmov.f32	s10, #5.0e-1
 2774              	.LBE781:
 2775              	.LBE780:
 2776              	.LBE779:
 177:../../DaisyExamples/DaisySP//Source/Drums/hihat.h ****         noise_f       = fclamp(noise_f, 0.0f, 0.5f);
 2777              		.loc 13 177 54 view .LVU646
 2778 00f0 76EEE54A 		vsub.f32	s9, s13, s11
 177:../../DaisyExamples/DaisySP//Source/Drums/hihat.h ****         noise_f       = fclamp(noise_f, 0.0f, 0.5f);
 2779              		.loc 13 177 15 view .LVU647
 2780 00f4 D4ED027A 		vldr.32	s15, [r4, #8]
 2781              	.LBB788:
 2782              	.LBB778:
 2783              		.loc 9 60 34 view .LVU648
 2784 00f8 94ED1F8A 		vldr.32	s16, [r4, #124]
 2785              	.LVL114:
ARM GAS  /var/folders/b5/3l92j93d5t1__l78tfntmwyr0000gn/T//ccqKg67w.s 			page 85


 2786              		.loc 9 60 34 view .LVU649
 2787              	.LBE778:
 2788              	.LBE788:
 177:../../DaisyExamples/DaisySP//Source/Drums/hihat.h ****         noise_f       = fclamp(noise_f, 0.0f, 0.5f);
 2789              		.loc 13 177 38 view .LVU650
 2790 00fc A4EE877A 		vfma.f32	s14, s9, s14
 2791              	.LVL115:
 2792              	.LBB789:
 2793              	.LBI779:
  56:../../DaisyExamples/DaisySP//Source/Utility/dsp.h **** {
 2794              		.loc 16 56 14 is_stmt 1 view .LVU651
 2795              	.LBE789:
 2796              		.loc 16 58 5 view .LVU652
 2797              	.LBB790:
 2798              	.LBB783:
 2799              	.LBI783:
  32:../../DaisyExamples/DaisySP//Source/Utility/dsp.h **** {
 2800              		.loc 16 32 14 view .LVU653
 2801              	.LBB784:
  34:../../DaisyExamples/DaisySP//Source/Utility/dsp.h **** #ifdef __arm__
 2802              		.loc 16 34 5 view .LVU654
  36:../../DaisyExamples/DaisySP//Source/Utility/dsp.h **** #else
 2803              		.loc 16 36 5 view .LVU655
 2804              	.LBE784:
 2805              	.LBE783:
 2806              	.LBE790:
 177:../../DaisyExamples/DaisySP//Source/Drums/hihat.h ****         noise_f       = fclamp(noise_f, 0.0f, 0.5f);
 2807              		.loc 13 177 15 is_stmt 0 view .LVU656
 2808 0100 67EE277A 		vmul.f32	s15, s14, s15
 2809              	.LVL116:
 2810              	.LBB791:
 2811              	.LBB786:
 2812              	.LBB785:
  36:../../DaisyExamples/DaisySP//Source/Utility/dsp.h **** #else
 2813              		.loc 16 36 5 view .LVU657
 2814              		.syntax unified
 2815              	@ 36 "../../DaisyExamples/DaisySP//Source/Utility/dsp.h" 1
 2816 0104 C7FEAA7A 		vmaxnm.f32 s15, s15, s21
 2817              	@ 0 "" 2
 2818              	.LVL117:
  40:../../DaisyExamples/DaisySP//Source/Utility/dsp.h **** }
 2819              		.loc 16 40 5 is_stmt 1 view .LVU658
  40:../../DaisyExamples/DaisySP//Source/Utility/dsp.h **** }
 2820              		.loc 16 40 5 is_stmt 0 view .LVU659
 2821              		.thumb
 2822              		.syntax unified
 2823              	.LBE785:
 2824              	.LBE786:
 2825              	.LBB787:
 2826              	.LBI780:
  43:../../DaisyExamples/DaisySP//Source/Utility/dsp.h **** {
 2827              		.loc 16 43 14 is_stmt 1 view .LVU660
 2828              	.LBB782:
  45:../../DaisyExamples/DaisySP//Source/Utility/dsp.h **** #ifdef __arm__
 2829              		.loc 16 45 5 view .LVU661
  47:../../DaisyExamples/DaisySP//Source/Utility/dsp.h **** #else
 2830              		.loc 16 47 5 view .LVU662
ARM GAS  /var/folders/b5/3l92j93d5t1__l78tfntmwyr0000gn/T//ccqKg67w.s 			page 86


 2831              		.syntax unified
 2832              	@ 47 "../../DaisyExamples/DaisySP//Source/Utility/dsp.h" 1
 2833 0108 C7FEC57A 		vminnm.f32 s15, s15, s10
 2834              	@ 0 "" 2
 2835              	.LVL118:
  51:../../DaisyExamples/DaisySP//Source/Utility/dsp.h **** }
 2836              		.loc 16 51 5 view .LVU663
  51:../../DaisyExamples/DaisySP//Source/Utility/dsp.h **** }
 2837              		.loc 16 51 5 is_stmt 0 view .LVU664
 2838              		.thumb
 2839              		.syntax unified
 2840              	.LBE782:
 2841              	.LBE787:
 2842              	.LBE791:
 180:../../DaisyExamples/DaisySP//Source/Drums/hihat.h ****         if(noise_clock_ >= 1.0f)
 2843              		.loc 13 180 22 view .LVU665
 2844 010c 77EE867A 		vadd.f32	s15, s15, s12
 2845              	.LVL119:
 181:../../DaisyExamples/DaisySP//Source/Drums/hihat.h ****         {
 2846              		.loc 13 181 9 view .LVU666
 2847 0110 F4EEE67A 		vcmpe.f32	s15, s13
 180:../../DaisyExamples/DaisySP//Source/Drums/hihat.h ****         if(noise_clock_ >= 1.0f)
 2848              		.loc 13 180 22 view .LVU667
 2849 0114 C4ED087A 		vstr.32	s15, [r4, #32]
 181:../../DaisyExamples/DaisySP//Source/Drums/hihat.h ****         {
 2850              		.loc 13 181 9 view .LVU668
 2851 0118 F1EE10FA 		vmrs	APSR_nzcv, FPSCR
 2852 011c 60DA     		bge	.L109
 186:../../DaisyExamples/DaisySP//Source/Drums/hihat.h **** 
 2853              		.loc 13 186 30 view .LVU669
 2854 011e D4ED096A 		vldr.32	s13, [r4, #36]
 2855              	.L110:
 191:../../DaisyExamples/DaisySP//Source/Drums/hihat.h ****         out = vca(out, sustain_ ? sustain_gain_ : envelope_);
 2856              		.loc 13 191 39 view .LVU670
 2857 0122 B6EE005A 		vmov.f32	s10, #5.0e-1
 189:../../DaisyExamples/DaisySP//Source/Drums/hihat.h ****         VCA vca;
 2858              		.loc 13 189 33 view .LVU671
 2859 0126 94ED017A 		vldr.32	s14, [r4, #4]
 186:../../DaisyExamples/DaisySP//Source/Drums/hihat.h **** 
 2860              		.loc 13 186 44 view .LVU672
 2861 012a 36EEC86A 		vsub.f32	s12, s13, s16
 191:../../DaisyExamples/DaisySP//Source/Drums/hihat.h ****         out = vca(out, sustain_ ? sustain_gain_ : envelope_);
 2862              		.loc 13 191 19 view .LVU673
 2863 012e D4ED076A 		vldr.32	s13, [r4, #28]
 189:../../DaisyExamples/DaisySP//Source/Drums/hihat.h ****         VCA vca;
 2864              		.loc 13 189 33 view .LVU674
 2865 0132 D4ED047A 		vldr.32	s15, [r4, #16]
 191:../../DaisyExamples/DaisySP//Source/Drums/hihat.h ****         out = vca(out, sustain_ ? sustain_gain_ : envelope_);
 2866              		.loc 13 191 39 view .LVU675
 2867 0136 F4EEC56A 		vcmpe.f32	s13, s10
 189:../../DaisyExamples/DaisySP//Source/Drums/hihat.h ****         VCA vca;
 2868              		.loc 13 189 33 view .LVU676
 2869 013a 67EE277A 		vmul.f32	s15, s14, s15
 186:../../DaisyExamples/DaisySP//Source/Drums/hihat.h **** 
 2870              		.loc 13 186 13 view .LVU677
 2871 013e A6EE258A 		vfma.f32	s16, s12, s11
 2872              	.LVL120:
ARM GAS  /var/folders/b5/3l92j93d5t1__l78tfntmwyr0000gn/T//ccqKg67w.s 			page 87


 191:../../DaisyExamples/DaisySP//Source/Drums/hihat.h ****         out = vca(out, sustain_ ? sustain_gain_ : envelope_);
 2873              		.loc 13 191 39 view .LVU678
 2874 0142 F1EE10FA 		vmrs	APSR_nzcv, FPSCR
 146:../../DaisyExamples/DaisySP//Source/Drums/hihat.h ****             = 1.0f - 0.003f * SemitonesToRatio(-decay_ * 84.0f);
 2875              		.loc 13 146 21 view .LVU679
 2876 0146 B7EE007A 		vmov.f32	s14, #1.0e+0
 189:../../DaisyExamples/DaisySP//Source/Drums/hihat.h ****         VCA vca;
 2877              		.loc 13 189 23 view .LVU680
 2878 014a C4ED0A7A 		vstr.32	s15, [r4, #40]
 191:../../DaisyExamples/DaisySP//Source/Drums/hihat.h ****         out = vca(out, sustain_ ? sustain_gain_ : envelope_);
 2879              		.loc 13 191 39 view .LVU681
 2880 014e 42DD     		ble	.L119
 146:../../DaisyExamples/DaisySP//Source/Drums/hihat.h ****             = 1.0f - 0.003f * SemitonesToRatio(-decay_ * 84.0f);
 2881              		.loc 13 146 21 view .LVU682
 2882 0150 9FED356A 		vldr.32	s12, .L121+28
 2883 0154 A9EEC67A 		vfms.f32	s14, s19, s12
 2884              	.L113:
 192:../../DaisyExamples/DaisySP//Source/Drums/hihat.h **** 
 2885              		.loc 13 192 18 discriminator 4 view .LVU683
 2886 0158 237E     		ldrb	r3, [r4, #24]	@ zero_extendqisi2
 191:../../DaisyExamples/DaisySP//Source/Drums/hihat.h ****         out = vca(out, sustain_ ? sustain_gain_ : envelope_);
 2887              		.loc 13 191 19 discriminator 4 view .LVU684
 2888 015a 26EE877A 		vmul.f32	s14, s13, s14
 194:../../DaisyExamples/DaisySP//Source/Drums/hihat.h ****         hpf_.SetRes(.5f);
 2889              		.loc 13 194 21 discriminator 4 view .LVU685
 2890 015e 2046     		mov	r0, r4
 2891 0160 94ED000A 		vldr.32	s0, [r4]
 192:../../DaisyExamples/DaisySP//Source/Drums/hihat.h **** 
 2892              		.loc 13 192 18 discriminator 4 view .LVU686
 2893 0164 002B     		cmp	r3, #0
 194:../../DaisyExamples/DaisySP//Source/Drums/hihat.h ****         hpf_.SetRes(.5f);
 2894              		.loc 13 194 21 discriminator 4 view .LVU687
 2895 0166 00F19000 		add	r0, r0, #144
 191:../../DaisyExamples/DaisySP//Source/Drums/hihat.h ****         out = vca(out, sustain_ ? sustain_gain_ : envelope_);
 2896              		.loc 13 191 19 discriminator 4 view .LVU688
 2897 016a 84ED077A 		vstr.32	s14, [r4, #28]
 192:../../DaisyExamples/DaisySP//Source/Drums/hihat.h **** 
 2898              		.loc 13 192 18 discriminator 4 view .LVU689
 2899 016e 47FE277A 		vseleq.f32	s15, s14, s15
 2900              	.LVL121:
 2901              	.LBB792:
 2902              	.LBI792:
  93:../../DaisyExamples/DaisySP//Source/Drums/hihat.h **** };
 2903              		.loc 13 93 11 is_stmt 1 discriminator 4 view .LVU690
 2904              	.LBB793:
  93:../../DaisyExamples/DaisySP//Source/Drums/hihat.h **** };
 2905              		.loc 13 93 45 discriminator 4 view .LVU691
  93:../../DaisyExamples/DaisySP//Source/Drums/hihat.h **** };
 2906              		.loc 13 93 56 is_stmt 0 discriminator 4 view .LVU692
 2907 0172 27EE888A 		vmul.f32	s16, s15, s16
 2908              	.LVL122:
  93:../../DaisyExamples/DaisySP//Source/Drums/hihat.h **** };
 2909              		.loc 13 93 56 discriminator 4 view .LVU693
 2910              	.LBE793:
 2911              	.LBE792:
 194:../../DaisyExamples/DaisySP//Source/Drums/hihat.h ****         hpf_.SetRes(.5f);
 2912              		.loc 13 194 21 discriminator 4 view .LVU694
ARM GAS  /var/folders/b5/3l92j93d5t1__l78tfntmwyr0000gn/T//ccqKg67w.s 			page 88


 2913 0176 28EE800A 		vmul.f32	s0, s17, s0
 2914 017a 0190     		str	r0, [sp, #4]
 2915 017c FFF7FEFF 		bl	_ZN7daisysp3Svf7SetFreqEf
 2916              	.LVL123:
 195:../../DaisyExamples/DaisySP//Source/Drums/hihat.h ****         hpf_.Process(out);
 2917              		.loc 13 195 20 discriminator 4 view .LVU695
 2918 0180 0198     		ldr	r0, [sp, #4]
 2919 0182 B6EE000A 		vmov.f32	s0, #5.0e-1
 2920 0186 FFF7FEFF 		bl	_ZN7daisysp3Svf6SetResEf
 2921              	.LVL124:
 196:../../DaisyExamples/DaisySP//Source/Drums/hihat.h ****         out = hpf_.High();
 2922              		.loc 13 196 21 discriminator 4 view .LVU696
 2923 018a B0EE480A 		vmov.f32	s0, s16
 2924 018e 0198     		ldr	r0, [sp, #4]
 2925 0190 FFF7FEFF 		bl	_ZN7daisysp3Svf7ProcessEf
 2926              	.LVL125:
 2927              	.LBB794:
 2928              	.LBI794:
  56:../../DaisyExamples/DaisySP//Source/Filters/svf.h ****     /** bandpass output
 2929              		.loc 9 56 18 is_stmt 1 discriminator 4 view .LVU697
 2930              	.LBB795:
  56:../../DaisyExamples/DaisySP//Source/Filters/svf.h ****     /** bandpass output
 2931              		.loc 9 56 27 discriminator 4 view .LVU698
  56:../../DaisyExamples/DaisySP//Source/Filters/svf.h ****     /** bandpass output
 2932              		.loc 9 56 27 is_stmt 0 discriminator 4 view .LVU699
 2933              	.LBE795:
 2934              	.LBE794:
 200:../../DaisyExamples/DaisySP//Source/Drums/hihat.h **** 
 2935              		.loc 13 200 5 discriminator 4 view .LVU700
 2936 0194 94ED310A 		vldr.32	s0, [r4, #196]
 2937 0198 03B0     		add	sp, sp, #12
 2938              		.cfi_remember_state
 2939              		.cfi_def_cfa_offset 36
 2940              		@ sp needed
 2941 019a BDEC068B 		vldm	sp!, {d8-d10}
 2942              		.cfi_restore 84
 2943              		.cfi_restore 85
 2944              		.cfi_restore 82
 2945              		.cfi_restore 83
 2946              		.cfi_restore 80
 2947              		.cfi_restore 81
 2948              		.cfi_def_cfa_offset 12
 2949              	.LVL126:
 200:../../DaisyExamples/DaisySP//Source/Drums/hihat.h **** 
 2950              		.loc 13 200 5 discriminator 4 view .LVU701
 2951 019e 30BD     		pop	{r4, r5, pc}
 2952              	.LVL127:
 2953              	.L107:
 2954              		.cfi_restore_state
 156:../../DaisyExamples/DaisySP//Source/Drums/hihat.h ****         }
 2955              		.loc 13 156 40 view .LVU702
 2956 01a0 F7EE006A 		vmov.f32	s13, #1.0e+0
 2957 01a4 94ED047A 		vldr.32	s14, [r4, #16]
 156:../../DaisyExamples/DaisySP//Source/Drums/hihat.h ****         }
 2958              		.loc 13 156 25 view .LVU703
 2959 01a8 B6EE006A 		vmov.f32	s12, #5.0e-1
 156:../../DaisyExamples/DaisySP//Source/Drums/hihat.h ****         }
ARM GAS  /var/folders/b5/3l92j93d5t1__l78tfntmwyr0000gn/T//ccqKg67w.s 			page 89


 2960              		.loc 13 156 59 view .LVU704
 2961 01ac 94ED015A 		vldr.32	s10, [r4, #4]
 156:../../DaisyExamples/DaisySP//Source/Drums/hihat.h ****         }
 2962              		.loc 13 156 25 view .LVU705
 2963 01b0 F7EE087A 		vmov.f32	s15, #1.5e+0
 156:../../DaisyExamples/DaisySP//Source/Drums/hihat.h ****         }
 2964              		.loc 13 156 59 view .LVU706
 2965 01b4 DFED1D5A 		vldr.32	s11, .L121+32
 156:../../DaisyExamples/DaisySP//Source/Drums/hihat.h ****         }
 2966              		.loc 13 156 40 view .LVU707
 2967 01b8 76EEC76A 		vsub.f32	s13, s13, s14
 156:../../DaisyExamples/DaisySP//Source/Drums/hihat.h ****         }
 2968              		.loc 13 156 59 view .LVU708
 2969 01bc 9FED1C7A 		vldr.32	s14, .L121+36
 153:../../DaisyExamples/DaisySP//Source/Drums/hihat.h **** 
 2970              		.loc 13 153 19 view .LVU709
 2971 01c0 0023     		movs	r3, #0
 156:../../DaisyExamples/DaisySP//Source/Drums/hihat.h ****         }
 2972              		.loc 13 156 59 view .LVU710
 2973 01c2 A5EE257A 		vfma.f32	s14, s10, s11
 156:../../DaisyExamples/DaisySP//Source/Drums/hihat.h ****         }
 2974              		.loc 13 156 25 view .LVU711
 2975 01c6 E6EE867A 		vfma.f32	s15, s13, s12
 153:../../DaisyExamples/DaisySP//Source/Drums/hihat.h **** 
 2976              		.loc 13 153 19 view .LVU712
 2977 01ca 6376     		strb	r3, [r4, #25]
 156:../../DaisyExamples/DaisySP//Source/Drums/hihat.h ****         }
 2978              		.loc 13 156 51 view .LVU713
 2979 01cc 67EE877A 		vmul.f32	s15, s15, s14
 156:../../DaisyExamples/DaisySP//Source/Drums/hihat.h ****         }
 2980              		.loc 13 156 17 view .LVU714
 2981 01d0 C4ED077A 		vstr.32	s15, [r4, #28]
 2982 01d4 3FE7     		b	.L108
 2983              	.LVL128:
 2984              	.L119:
 148:../../DaisyExamples/DaisySP//Source/Drums/hihat.h ****             = 1.0f - 0.0025f * SemitonesToRatio(-decay_ * 36.0f);
 2985              		.loc 13 148 21 view .LVU715
 2986 01d6 9FED176A 		vldr.32	s12, .L121+40
 2987 01da A9EE467A 		vfms.f32	s14, s18, s12
 2988 01de BBE7     		b	.L113
 2989              	.L109:
 183:../../DaisyExamples/DaisySP//Source/Drums/hihat.h ****             noise_sample_ = rand() * kRandFrac - 0.5f;
 2990              		.loc 13 183 26 view .LVU716
 2991 01e0 77EEE67A 		vsub.f32	s15, s15, s13
 2992 01e4 C4ED087A 		vstr.32	s15, [r4, #32]
 184:../../DaisyExamples/DaisySP//Source/Drums/hihat.h ****         }
 2993              		.loc 13 184 33 view .LVU717
 2994 01e8 FFF7FEFF 		bl	rand
 2995              	.LVL129:
 184:../../DaisyExamples/DaisySP//Source/Drums/hihat.h ****         }
 2996              		.loc 13 184 36 view .LVU718
 2997 01ec 07EE900A 		vmov	s15, r0	@ int
 184:../../DaisyExamples/DaisySP//Source/Drums/hihat.h ****         }
 2998              		.loc 13 184 48 view .LVU719
 2999 01f0 FEEE006A 		vmov.f32	s13, #-5.0e-1
 3000 01f4 9FED107A 		vldr.32	s14, .L121+44
 184:../../DaisyExamples/DaisySP//Source/Drums/hihat.h ****         }
ARM GAS  /var/folders/b5/3l92j93d5t1__l78tfntmwyr0000gn/T//ccqKg67w.s 			page 90


 3001              		.loc 13 184 36 view .LVU720
 3002 01f8 F8EEE77A 		vcvt.f32.s32	s15, s15
 186:../../DaisyExamples/DaisySP//Source/Drums/hihat.h **** 
 3003              		.loc 13 186 16 view .LVU721
 3004 01fc D4ED055A 		vldr.32	s11, [r4, #20]
 184:../../DaisyExamples/DaisySP//Source/Drums/hihat.h ****         }
 3005              		.loc 13 184 48 view .LVU722
 3006 0200 E7EE876A 		vfma.f32	s13, s15, s14
 184:../../DaisyExamples/DaisySP//Source/Drums/hihat.h ****         }
 3007              		.loc 13 184 27 view .LVU723
 3008 0204 C4ED096A 		vstr.32	s13, [r4, #36]
 3009 0208 8BE7     		b	.L110
 3010              	.L122:
 3011 020a 00BF     		.align	2
 3012              	.L121:
 3013 020c 0000A842 		.word	1118306304
 3014 0210 ABAAAA3D 		.word	1034594987
 3015 0214 00001042 		.word	1108344832
 3016 0218 00000000 		.word	0
 3017 021c 00001643 		.word	1125515264
 3018 0220 00009042 		.word	1116733440
 3019 0224 00007A46 		.word	1182400512
 3020 0228 A69B443B 		.word	994352038
 3021 022c 3333333F 		.word	1060320051
 3022 0230 9A99993E 		.word	1050253722
 3023 0234 0AD7233B 		.word	992204554
 3024 0238 00000030 		.word	805306368
 3025              		.cfi_endproc
 3026              	.LFE5180:
 3028              		.section	.text._Z16processSequencerv,"ax",%progbits
 3029              		.align	1
 3030              		.p2align 2,,3
 3031              		.global	_Z16processSequencerv
 3032              		.syntax unified
 3033              		.thumb
 3034              		.thumb_func
 3036              	_Z16processSequencerv:
 3037              	.LFB4860:
 221:MachineDaisyFile.cpp **** 	float totalOut = 0.f;
 3038              		.loc 14 221 1 is_stmt 1 view -0
 3039              		.cfi_startproc
 3040              		@ args = 0, pretend = 0, frame = 0
 3041              		@ frame_needed = 0, uses_anonymous_args = 0
 222:MachineDaisyFile.cpp **** 	float kickOut = 0.0f;
 3042              		.loc 14 222 2 view .LVU725
 3043              	.LVL130:
 223:MachineDaisyFile.cpp ****     float snareOut = 0.0f;
 3044              		.loc 14 223 2 view .LVU726
 224:MachineDaisyFile.cpp ****     float hatOut = 0.0f;
 3045              		.loc 14 224 5 view .LVU727
 225:MachineDaisyFile.cpp ****     float synthOut = 0.0f;
 3046              		.loc 14 225 5 view .LVU728
 226:MachineDaisyFile.cpp **** 	bool t;
 3047              		.loc 14 226 5 view .LVU729
 227:MachineDaisyFile.cpp **** 	t = tick.Process();
 3048              		.loc 14 227 2 view .LVU730
 228:MachineDaisyFile.cpp **** 	
ARM GAS  /var/folders/b5/3l92j93d5t1__l78tfntmwyr0000gn/T//ccqKg67w.s 			page 91


 3049              		.loc 14 228 2 view .LVU731
 221:MachineDaisyFile.cpp **** 	float totalOut = 0.f;
 3050              		.loc 14 221 1 is_stmt 0 view .LVU732
 3051 0000 70B5     		push	{r4, r5, r6, lr}
 3052              		.cfi_def_cfa_offset 16
 3053              		.cfi_offset 4, -16
 3054              		.cfi_offset 5, -12
 3055              		.cfi_offset 6, -8
 3056              		.cfi_offset 14, -4
 231:MachineDaisyFile.cpp ****     snareOut = snare.Process(snares[step] && t);
 3057              		.loc 14 231 38 view .LVU733
 3058 0002 444C     		ldr	r4, .L160
 228:MachineDaisyFile.cpp **** 	
 3059              		.loc 14 228 18 view .LVU734
 3060 0004 4448     		ldr	r0, .L160+4
 221:MachineDaisyFile.cpp **** 	float totalOut = 0.f;
 3061              		.loc 14 221 1 view .LVU735
 3062 0006 2DED048B 		vpush.64	{d8, d9}
 3063              		.cfi_def_cfa_offset 32
 3064              		.cfi_offset 80, -32
 3065              		.cfi_offset 81, -28
 3066              		.cfi_offset 82, -24
 3067              		.cfi_offset 83, -20
 228:MachineDaisyFile.cpp **** 	
 3068              		.loc 14 228 18 view .LVU736
 3069 000a FFF7FEFF 		bl	_ZN7daisysp5Metro7ProcessEv
 3070              	.LVL131:
 231:MachineDaisyFile.cpp ****     snareOut = snare.Process(snares[step] && t);
 3071              		.loc 14 231 5 is_stmt 1 view .LVU737
 231:MachineDaisyFile.cpp ****     snareOut = snare.Process(snares[step] && t);
 3072              		.loc 14 231 38 is_stmt 0 view .LVU738
 3073 000e 434A     		ldr	r2, .L160+8
 3074 0010 2368     		ldr	r3, [r4]
 231:MachineDaisyFile.cpp ****     snareOut = snare.Process(snares[step] && t);
 3075              		.loc 14 231 27 view .LVU739
 3076 0012 061E     		subs	r6, r0, #0
 3077 0014 0546     		mov	r5, r0
 3078 0016 D35C     		ldrb	r3, [r2, r3]	@ zero_extendqisi2
 3079 0018 18BF     		it	ne
 3080 001a 0126     		movne	r6, #1
 3081 001c 0BB1     		cbz	r3, .L134
 3082 001e 002E     		cmp	r6, #0
 3083 0020 38D1     		bne	.L124
 3084              	.L134:
 231:MachineDaisyFile.cpp ****     snareOut = snare.Process(snares[step] && t);
 3085              		.loc 14 231 27 discriminator 6 view .LVU740
 3086 0022 0021     		movs	r1, #0
 3087 0024 3E48     		ldr	r0, .L160+12
 3088              	.LVL132:
 231:MachineDaisyFile.cpp ****     snareOut = snare.Process(snares[step] && t);
 3089              		.loc 14 231 27 discriminator 6 view .LVU741
 3090 0026 FFF7FEFF 		bl	_ZN7daisysp14AnalogBassDrum7ProcessEb
 3091              	.LVL133:
 232:MachineDaisyFile.cpp ****     hatOut = hat.Process(hats[step] && t);
 3092              		.loc 14 232 41 discriminator 6 view .LVU742
 3093 002a 3E4A     		ldr	r2, .L160+16
 3094 002c 2368     		ldr	r3, [r4]
ARM GAS  /var/folders/b5/3l92j93d5t1__l78tfntmwyr0000gn/T//ccqKg67w.s 			page 92


 231:MachineDaisyFile.cpp ****     snareOut = snare.Process(snares[step] && t);
 3095              		.loc 14 231 27 discriminator 6 view .LVU743
 3096 002e B0EE408A 		vmov.f32	s16, s0
 3097              	.LVL134:
 232:MachineDaisyFile.cpp ****     hatOut = hat.Process(hats[step] && t);
 3098              		.loc 14 232 5 is_stmt 1 discriminator 6 view .LVU744
 232:MachineDaisyFile.cpp ****     hatOut = hat.Process(hats[step] && t);
 3099              		.loc 14 232 29 is_stmt 0 discriminator 6 view .LVU745
 3100 0032 D35C     		ldrb	r3, [r2, r3]	@ zero_extendqisi2
 3101 0034 0BB1     		cbz	r3, .L126
 3102 0036 002E     		cmp	r6, #0
 3103 0038 37D1     		bne	.L133
 3104              	.L126:
 232:MachineDaisyFile.cpp ****     hatOut = hat.Process(hats[step] && t);
 3105              		.loc 14 232 29 discriminator 4 view .LVU746
 3106 003a 0021     		movs	r1, #0
 3107 003c 3A48     		ldr	r0, .L160+20
 3108 003e FFF7FEFF 		bl	_ZN7daisysp18SyntheticSnareDrum7ProcessEb
 3109              	.LVL135:
 233:MachineDaisyFile.cpp ****     synthOut = synthKick.Process(synths[step] && t);
 3110              		.loc 14 233 35 discriminator 4 view .LVU747
 3111 0042 3A4A     		ldr	r2, .L160+24
 3112 0044 2368     		ldr	r3, [r4]
 232:MachineDaisyFile.cpp ****     hatOut = hat.Process(hats[step] && t);
 3113              		.loc 14 232 29 discriminator 4 view .LVU748
 3114 0046 B0EE409A 		vmov.f32	s18, s0
 3115              	.LVL136:
 233:MachineDaisyFile.cpp ****     synthOut = synthKick.Process(synths[step] && t);
 3116              		.loc 14 233 5 is_stmt 1 discriminator 4 view .LVU749
 233:MachineDaisyFile.cpp ****     synthOut = synthKick.Process(synths[step] && t);
 3117              		.loc 14 233 25 is_stmt 0 discriminator 4 view .LVU750
 3118 004a D35C     		ldrb	r3, [r2, r3]	@ zero_extendqisi2
 3119 004c 0BB1     		cbz	r3, .L128
 3120 004e 002E     		cmp	r6, #0
 3121 0050 36D1     		bne	.L127
 3122              	.L128:
 233:MachineDaisyFile.cpp ****     synthOut = synthKick.Process(synths[step] && t);
 3123              		.loc 14 233 25 discriminator 4 view .LVU751
 3124 0052 0021     		movs	r1, #0
 3125 0054 3648     		ldr	r0, .L160+28
 3126 0056 FFF7FEFF 		bl	_ZN7daisysp5HiHatINS_11SquareNoiseENS_9LinearVCAELb1EE7ProcessEb
 3127              	.LVL137:
 234:MachineDaisyFile.cpp **** 
 3128              		.loc 14 234 45 discriminator 4 view .LVU752
 3129 005a 364A     		ldr	r2, .L160+32
 3130 005c 2368     		ldr	r3, [r4]
 233:MachineDaisyFile.cpp ****     synthOut = synthKick.Process(synths[step] && t);
 3131              		.loc 14 233 25 discriminator 4 view .LVU753
 3132 005e F0EE408A 		vmov.f32	s17, s0
 3133              	.LVL138:
 234:MachineDaisyFile.cpp **** 
 3134              		.loc 14 234 5 is_stmt 1 discriminator 4 view .LVU754
 234:MachineDaisyFile.cpp **** 
 3135              		.loc 14 234 33 is_stmt 0 discriminator 4 view .LVU755
 3136 0062 D35C     		ldrb	r3, [r2, r3]	@ zero_extendqisi2
 3137 0064 0BB1     		cbz	r3, .L130
 3138 0066 002E     		cmp	r6, #0
ARM GAS  /var/folders/b5/3l92j93d5t1__l78tfntmwyr0000gn/T//ccqKg67w.s 			page 93


 3139 0068 35D1     		bne	.L129
 3140              	.L130:
 234:MachineDaisyFile.cpp **** 
 3141              		.loc 14 234 33 discriminator 4 view .LVU756
 3142 006a 0021     		movs	r1, #0
 3143 006c 3248     		ldr	r0, .L160+36
 3144 006e FFF7FEFF 		bl	_ZN7daisysp17SyntheticBassDrum7ProcessEb
 3145              	.LVL139:
 237:MachineDaisyFile.cpp ****     float snareVolume = 0.5f;
 3146              		.loc 14 237 5 is_stmt 1 discriminator 4 view .LVU757
 238:MachineDaisyFile.cpp ****     float hatVolume = 5.5f;
 3147              		.loc 14 238 5 discriminator 4 view .LVU758
 239:MachineDaisyFile.cpp ****     float synthVolume = 0.5f;
 3148              		.loc 14 239 5 discriminator 4 view .LVU759
 240:MachineDaisyFile.cpp **** 
 3149              		.loc 14 240 5 discriminator 4 view .LVU760
 242:MachineDaisyFile.cpp **** 	if (t)
 3150              		.loc 14 242 5 discriminator 4 view .LVU761
 242:MachineDaisyFile.cpp **** 	if (t)
 3151              		.loc 14 242 37 is_stmt 0 discriminator 4 view .LVU762
 3152 0072 F6EE007A 		vmov.f32	s15, #5.0e-1
 242:MachineDaisyFile.cpp **** 	if (t)
 3153              		.loc 14 242 62 discriminator 4 view .LVU763
 3154 0076 B1EE067A 		vmov.f32	s14, #5.5e+0
 242:MachineDaisyFile.cpp **** 	if (t)
 3155              		.loc 14 242 37 discriminator 4 view .LVU764
 3156 007a A9EE278A 		vfma.f32	s16, s18, s15
 3157              	.LVL140:
 242:MachineDaisyFile.cpp **** 	if (t)
 3158              		.loc 14 242 62 discriminator 4 view .LVU765
 3159 007e A8EE878A 		vfma.f32	s16, s17, s14
 242:MachineDaisyFile.cpp **** 	if (t)
 3160              		.loc 14 242 14 discriminator 4 view .LVU766
 3161 0082 A0EE278A 		vfma.f32	s16, s0, s15
 3162              	.LVL141:
 243:MachineDaisyFile.cpp **** 	{
 3163              		.loc 14 243 2 is_stmt 1 discriminator 4 view .LVU767
 3164 0086 002D     		cmp	r5, #0
 3165 0088 33D1     		bne	.L131
 261:MachineDaisyFile.cpp **** 
 3166              		.loc 14 261 1 is_stmt 0 view .LVU768
 3167 008a B0EE480A 		vmov.f32	s0, s16
 3168              	.LVL142:
 261:MachineDaisyFile.cpp **** 
 3169              		.loc 14 261 1 view .LVU769
 3170 008e BDEC048B 		vldm	sp!, {d8-d9}
 3171              		.cfi_remember_state
 3172              		.cfi_restore 82
 3173              		.cfi_restore 83
 3174              		.cfi_restore 80
 3175              		.cfi_restore 81
 3176              		.cfi_def_cfa_offset 16
 3177              	.LVL143:
 261:MachineDaisyFile.cpp **** 
 3178              		.loc 14 261 1 view .LVU770
 3179 0092 70BD     		pop	{r4, r5, r6, pc}
 3180              	.LVL144:
ARM GAS  /var/folders/b5/3l92j93d5t1__l78tfntmwyr0000gn/T//ccqKg67w.s 			page 94


 3181              	.L124:
 3182              		.cfi_restore_state
 231:MachineDaisyFile.cpp ****     snareOut = snare.Process(snares[step] && t);
 3183              		.loc 14 231 27 view .LVU771
 3184 0094 0121     		movs	r1, #1
 3185 0096 2248     		ldr	r0, .L160+12
 3186              	.LVL145:
 231:MachineDaisyFile.cpp ****     snareOut = snare.Process(snares[step] && t);
 3187              		.loc 14 231 27 view .LVU772
 3188 0098 FFF7FEFF 		bl	_ZN7daisysp14AnalogBassDrum7ProcessEb
 3189              	.LVL146:
 232:MachineDaisyFile.cpp ****     hatOut = hat.Process(hats[step] && t);
 3190              		.loc 14 232 41 view .LVU773
 3191 009c 214A     		ldr	r2, .L160+16
 3192 009e 2368     		ldr	r3, [r4]
 231:MachineDaisyFile.cpp ****     snareOut = snare.Process(snares[step] && t);
 3193              		.loc 14 231 27 view .LVU774
 3194 00a0 B0EE408A 		vmov.f32	s16, s0
 3195              	.LVL147:
 232:MachineDaisyFile.cpp ****     hatOut = hat.Process(hats[step] && t);
 3196              		.loc 14 232 5 is_stmt 1 view .LVU775
 232:MachineDaisyFile.cpp ****     hatOut = hat.Process(hats[step] && t);
 3197              		.loc 14 232 29 is_stmt 0 view .LVU776
 3198 00a4 D35C     		ldrb	r3, [r2, r3]	@ zero_extendqisi2
 3199 00a6 002B     		cmp	r3, #0
 3200 00a8 C7D0     		beq	.L126
 3201              	.L133:
 232:MachineDaisyFile.cpp ****     hatOut = hat.Process(hats[step] && t);
 3202              		.loc 14 232 29 view .LVU777
 3203 00aa 0121     		movs	r1, #1
 3204 00ac 1E48     		ldr	r0, .L160+20
 3205 00ae FFF7FEFF 		bl	_ZN7daisysp18SyntheticSnareDrum7ProcessEb
 3206              	.LVL148:
 233:MachineDaisyFile.cpp ****     synthOut = synthKick.Process(synths[step] && t);
 3207              		.loc 14 233 35 view .LVU778
 3208 00b2 1E4A     		ldr	r2, .L160+24
 3209 00b4 2368     		ldr	r3, [r4]
 232:MachineDaisyFile.cpp ****     hatOut = hat.Process(hats[step] && t);
 3210              		.loc 14 232 29 view .LVU779
 3211 00b6 B0EE409A 		vmov.f32	s18, s0
 3212              	.LVL149:
 233:MachineDaisyFile.cpp ****     synthOut = synthKick.Process(synths[step] && t);
 3213              		.loc 14 233 5 is_stmt 1 view .LVU780
 233:MachineDaisyFile.cpp ****     synthOut = synthKick.Process(synths[step] && t);
 3214              		.loc 14 233 25 is_stmt 0 view .LVU781
 3215 00ba D35C     		ldrb	r3, [r2, r3]	@ zero_extendqisi2
 3216 00bc 002B     		cmp	r3, #0
 3217 00be C8D0     		beq	.L128
 3218              	.L127:
 233:MachineDaisyFile.cpp ****     synthOut = synthKick.Process(synths[step] && t);
 3219              		.loc 14 233 25 view .LVU782
 3220 00c0 0121     		movs	r1, #1
 3221 00c2 1B48     		ldr	r0, .L160+28
 3222 00c4 FFF7FEFF 		bl	_ZN7daisysp5HiHatINS_11SquareNoiseENS_9LinearVCAELb1EE7ProcessEb
 3223              	.LVL150:
 234:MachineDaisyFile.cpp **** 
 3224              		.loc 14 234 45 view .LVU783
ARM GAS  /var/folders/b5/3l92j93d5t1__l78tfntmwyr0000gn/T//ccqKg67w.s 			page 95


 3225 00c8 1A4A     		ldr	r2, .L160+32
 3226 00ca 2368     		ldr	r3, [r4]
 233:MachineDaisyFile.cpp ****     synthOut = synthKick.Process(synths[step] && t);
 3227              		.loc 14 233 25 view .LVU784
 3228 00cc F0EE408A 		vmov.f32	s17, s0
 3229              	.LVL151:
 234:MachineDaisyFile.cpp **** 
 3230              		.loc 14 234 5 is_stmt 1 view .LVU785
 234:MachineDaisyFile.cpp **** 
 3231              		.loc 14 234 33 is_stmt 0 view .LVU786
 3232 00d0 D35C     		ldrb	r3, [r2, r3]	@ zero_extendqisi2
 3233 00d2 002B     		cmp	r3, #0
 3234 00d4 C9D0     		beq	.L130
 3235              	.L129:
 234:MachineDaisyFile.cpp **** 
 3236              		.loc 14 234 33 view .LVU787
 3237 00d6 0121     		movs	r1, #1
 3238 00d8 1748     		ldr	r0, .L160+36
 3239 00da FFF7FEFF 		bl	_ZN7daisysp17SyntheticBassDrum7ProcessEb
 3240              	.LVL152:
 237:MachineDaisyFile.cpp ****     float snareVolume = 0.5f;
 3241              		.loc 14 237 5 is_stmt 1 view .LVU788
 238:MachineDaisyFile.cpp ****     float hatVolume = 5.5f;
 3242              		.loc 14 238 5 view .LVU789
 239:MachineDaisyFile.cpp ****     float synthVolume = 0.5f;
 3243              		.loc 14 239 5 view .LVU790
 240:MachineDaisyFile.cpp **** 
 3244              		.loc 14 240 5 view .LVU791
 242:MachineDaisyFile.cpp **** 	if (t)
 3245              		.loc 14 242 5 view .LVU792
 242:MachineDaisyFile.cpp **** 	if (t)
 3246              		.loc 14 242 37 is_stmt 0 view .LVU793
 3247 00de F6EE007A 		vmov.f32	s15, #5.0e-1
 242:MachineDaisyFile.cpp **** 	if (t)
 3248              		.loc 14 242 62 view .LVU794
 3249 00e2 B1EE067A 		vmov.f32	s14, #5.5e+0
 242:MachineDaisyFile.cpp **** 	if (t)
 3250              		.loc 14 242 37 view .LVU795
 3251 00e6 A9EE278A 		vfma.f32	s16, s18, s15
 3252              	.LVL153:
 242:MachineDaisyFile.cpp **** 	if (t)
 3253              		.loc 14 242 62 view .LVU796
 3254 00ea A8EE878A 		vfma.f32	s16, s17, s14
 242:MachineDaisyFile.cpp **** 	if (t)
 3255              		.loc 14 242 14 view .LVU797
 3256 00ee A0EE278A 		vfma.f32	s16, s0, s15
 3257              	.LVL154:
 243:MachineDaisyFile.cpp **** 	{
 3258              		.loc 14 243 2 is_stmt 1 view .LVU798
 3259              	.L131:
 245:MachineDaisyFile.cpp **** 		step = step % NUM_STEPS;
 3260              		.loc 14 245 3 view .LVU799
 246:MachineDaisyFile.cpp **** 		setDrumParams();
 3261              		.loc 14 246 3 view .LVU800
 245:MachineDaisyFile.cpp **** 		step = step % NUM_STEPS;
 3262              		.loc 14 245 7 is_stmt 0 view .LVU801
 3263 00f2 2368     		ldr	r3, [r4]
ARM GAS  /var/folders/b5/3l92j93d5t1__l78tfntmwyr0000gn/T//ccqKg67w.s 			page 96


 3264 00f4 0133     		adds	r3, r3, #1
 246:MachineDaisyFile.cpp **** 		setDrumParams();
 3265              		.loc 14 246 15 view .LVU802
 3266 00f6 5A42     		rsbs	r2, r3, #0
 3267 00f8 03F00703 		and	r3, r3, #7
 3268 00fc 02F00702 		and	r2, r2, #7
 3269 0100 58BF     		it	pl
 3270 0102 5342     		rsbpl	r3, r2, #0
 246:MachineDaisyFile.cpp **** 		setDrumParams();
 3271              		.loc 14 246 8 view .LVU803
 3272 0104 2360     		str	r3, [r4]
 247:MachineDaisyFile.cpp **** 	}
 3273              		.loc 14 247 3 is_stmt 1 view .LVU804
 247:MachineDaisyFile.cpp **** 	}
 3274              		.loc 14 247 16 is_stmt 0 view .LVU805
 3275 0106 FFF7FEFF 		bl	_Z13setDrumParamsv
 3276              	.LVL155:
 249:MachineDaisyFile.cpp **** 	
 3277              		.loc 14 249 2 is_stmt 1 view .LVU806
 261:MachineDaisyFile.cpp **** 
 3278              		.loc 14 261 1 is_stmt 0 view .LVU807
 3279 010a B0EE480A 		vmov.f32	s0, s16
 3280 010e BDEC048B 		vldm	sp!, {d8-d9}
 3281              		.cfi_restore 82
 3282              		.cfi_restore 83
 3283              		.cfi_restore 80
 3284              		.cfi_restore 81
 3285              		.cfi_def_cfa_offset 16
 3286              	.LVL156:
 261:MachineDaisyFile.cpp **** 
 3287              		.loc 14 261 1 view .LVU808
 3288 0112 70BD     		pop	{r4, r5, r6, pc}
 3289              	.L161:
 3290              		.align	2
 3291              	.L160:
 3292 0114 00000000 		.word	.LANCHOR21
 3293 0118 00000000 		.word	.LANCHOR19
 3294 011c 00000000 		.word	.LANCHOR2
 3295 0120 00000000 		.word	.LANCHOR10
 3296 0124 00000000 		.word	.LANCHOR3
 3297 0128 00000000 		.word	.LANCHOR20
 3298 012c 00000000 		.word	.LANCHOR1
 3299 0130 00000000 		.word	.LANCHOR11
 3300 0134 00000000 		.word	.LANCHOR0
 3301 0138 00000000 		.word	.LANCHOR12
 3302              		.cfi_endproc
 3303              	.LFE4860:
 3305              		.section	.text._Z13AudioCallbackPKPKfPPfj,"ax",%progbits
 3306              		.align	1
 3307              		.p2align 2,,3
 3308              		.global	_Z13AudioCallbackPKPKfPPfj
 3309              		.syntax unified
 3310              		.thumb
 3311              		.thumb_func
 3313              	_Z13AudioCallbackPKPKfPPfj:
 3314              	.LVL157:
 3315              	.LFB4861:
ARM GAS  /var/folders/b5/3l92j93d5t1__l78tfntmwyr0000gn/T//ccqKg67w.s 			page 97


 265:MachineDaisyFile.cpp **** 	processButtons();// processes button voltage ladder
 3316              		.loc 14 265 1 is_stmt 1 view -0
 3317              		.cfi_startproc
 3318              		@ args = 0, pretend = 0, frame = 0
 3319              		@ frame_needed = 0, uses_anonymous_args = 0
 266:MachineDaisyFile.cpp **** 	digitalButtons();// processes drum selector button
 3320              		.loc 14 266 2 view .LVU810
 3321              	.LBB801:
 3322              	.LBI801:
  90:MachineDaisyFile.cpp **** {
 3323              		.loc 14 90 6 view .LVU811
 3324              	.LBB802:
  92:MachineDaisyFile.cpp **** 	{
 3325              		.loc 14 92 2 view .LVU812
 3326              	.LBE802:
 3327              	.LBE801:
 265:MachineDaisyFile.cpp **** 	processButtons();// processes button voltage ladder
 3328              		.loc 14 265 1 is_stmt 0 view .LVU813
 3329 0000 2DE9F041 		push	{r4, r5, r6, r7, r8, lr}
 3330              		.cfi_def_cfa_offset 24
 3331              		.cfi_offset 4, -24
 3332              		.cfi_offset 5, -20
 3333              		.cfi_offset 6, -16
 3334              		.cfi_offset 7, -12
 3335              		.cfi_offset 8, -8
 3336              		.cfi_offset 14, -4
 265:MachineDaisyFile.cpp **** 	processButtons();// processes button voltage ladder
 3337              		.loc 14 265 1 view .LVU814
 3338 0004 9046     		mov	r8, r2
 3339 0006 0E46     		mov	r6, r1
 3340              	.LBB805:
 3341              	.LBB804:
 3342              	.LBB803:
  92:MachineDaisyFile.cpp **** 	{
 3343              		.loc 14 92 19 view .LVU815
 3344 0008 FFF7FEFF 		bl	_ZN5daisy6System5GetUsEv
 3345              	.LVL158:
  92:MachineDaisyFile.cpp **** 	{
 3346              		.loc 14 92 22 view .LVU816
 3347 000c 104A     		ldr	r2, .L171
  92:MachineDaisyFile.cpp **** 	{
 3348              		.loc 14 92 41 view .LVU817
 3349 000e 114B     		ldr	r3, .L171+4
  92:MachineDaisyFile.cpp **** 	{
 3350              		.loc 14 92 22 view .LVU818
 3351 0010 1268     		ldr	r2, [r2]
  92:MachineDaisyFile.cpp **** 	{
 3352              		.loc 14 92 2 view .LVU819
 3353 0012 1B68     		ldr	r3, [r3]
  92:MachineDaisyFile.cpp **** 	{
 3354              		.loc 14 92 22 view .LVU820
 3355 0014 801A     		subs	r0, r0, r2
  92:MachineDaisyFile.cpp **** 	{
 3356              		.loc 14 92 2 view .LVU821
 3357 0016 9842     		cmp	r0, r3
 3358 0018 01D9     		bls	.L163
 3359              	.LBE803:
ARM GAS  /var/folders/b5/3l92j93d5t1__l78tfntmwyr0000gn/T//ccqKg67w.s 			page 98


 3360 001a FFF7FEFF 		bl	_Z14processButtonsv.part.0
 3361              	.LVL159:
 3362              	.L163:
 3363              	.LBE804:
 3364              	.LBE805:
 267:MachineDaisyFile.cpp **** 	processKnobAndSwitch();
 3365              		.loc 14 267 2 is_stmt 1 view .LVU822
 267:MachineDaisyFile.cpp **** 	processKnobAndSwitch();
 3366              		.loc 14 267 16 is_stmt 0 view .LVU823
 3367 001e FFF7FEFF 		bl	_Z14digitalButtonsv
 3368              	.LVL160:
 268:MachineDaisyFile.cpp **** 	for (size_t i = 0; i < size; i++)
 3369              		.loc 14 268 2 is_stmt 1 view .LVU824
 268:MachineDaisyFile.cpp **** 	for (size_t i = 0; i < size; i++)
 3370              		.loc 14 268 22 is_stmt 0 view .LVU825
 3371 0022 FFF7FEFF 		bl	_Z20processKnobAndSwitchv
 3372              	.LVL161:
 269:MachineDaisyFile.cpp **** 	{		
 3373              		.loc 14 269 2 is_stmt 1 view .LVU826
 3374              	.LBB806:
 269:MachineDaisyFile.cpp **** 	{		
 3375              		.loc 14 269 23 view .LVU827
 3376 0026 B8F1000F 		cmp	r8, #0
 3377 002a 0FD0     		beq	.L162
 269:MachineDaisyFile.cpp **** 	{		
 3378              		.loc 14 269 14 is_stmt 0 view .LVU828
 3379 002c 0024     		movs	r4, #0
 3380              	.LVL162:
 3381              	.L165:
 271:MachineDaisyFile.cpp **** 	}
 3382              		.loc 14 271 3 is_stmt 1 discriminator 2 view .LVU829
 271:MachineDaisyFile.cpp **** 	}
 3383              		.loc 14 271 23 is_stmt 0 discriminator 2 view .LVU830
 3384 002e 7068     		ldr	r0, [r6, #4]
 3385 0030 A700     		lsls	r7, r4, #2
 3386 0032 00EB8405 		add	r5, r0, r4, lsl #2
 269:MachineDaisyFile.cpp **** 	{		
 3387              		.loc 14 269 2 discriminator 2 view .LVU831
 3388 0036 0134     		adds	r4, r4, #1
 3389              	.LVL163:
 271:MachineDaisyFile.cpp **** 	}
 3390              		.loc 14 271 43 discriminator 2 view .LVU832
 3391 0038 FFF7FEFF 		bl	_Z16processSequencerv
 3392              	.LVL164:
 271:MachineDaisyFile.cpp **** 	}
 3393              		.loc 14 271 13 discriminator 2 view .LVU833
 3394 003c 3368     		ldr	r3, [r6]
 269:MachineDaisyFile.cpp **** 	{		
 3395              		.loc 14 269 23 discriminator 2 view .LVU834
 3396 003e A045     		cmp	r8, r4
 271:MachineDaisyFile.cpp **** 	}
 3397              		.loc 14 271 25 discriminator 2 view .LVU835
 3398 0040 85ED000A 		vstr.32	s0, [r5]
 271:MachineDaisyFile.cpp **** 	}
 3399              		.loc 14 271 13 discriminator 2 view .LVU836
 3400 0044 3B44     		add	r3, r3, r7
 3401 0046 83ED000A 		vstr.32	s0, [r3]
ARM GAS  /var/folders/b5/3l92j93d5t1__l78tfntmwyr0000gn/T//ccqKg67w.s 			page 99


 269:MachineDaisyFile.cpp **** 	{		
 3402              		.loc 14 269 2 is_stmt 1 discriminator 2 view .LVU837
 3403              	.LVL165:
 269:MachineDaisyFile.cpp **** 	{		
 3404              		.loc 14 269 23 discriminator 2 view .LVU838
 3405 004a F0D1     		bne	.L165
 3406              	.LVL166:
 3407              	.L162:
 269:MachineDaisyFile.cpp **** 	{		
 3408              		.loc 14 269 23 is_stmt 0 discriminator 2 view .LVU839
 3409              	.LBE806:
 273:MachineDaisyFile.cpp **** //====================================================================================
 3410              		.loc 14 273 1 view .LVU840
 3411 004c BDE8F081 		pop	{r4, r5, r6, r7, r8, pc}
 3412              	.LVL167:
 3413              	.L172:
 273:MachineDaisyFile.cpp **** //====================================================================================
 3414              		.loc 14 273 1 view .LVU841
 3415              		.align	2
 3416              	.L171:
 3417 0050 00000000 		.word	.LANCHOR8
 3418 0054 00000000 		.word	.LANCHOR9
 3419              		.cfi_endproc
 3420              	.LFE4861:
 3422              		.section	.text.startup._GLOBAL__sub_I_drumMode,"ax",%progbits
 3423              		.align	1
 3424              		.p2align 2,,3
 3425              		.syntax unified
 3426              		.thumb
 3427              		.thumb_func
 3429              	_GLOBAL__sub_I_drumMode:
 3430              	.LFB5443:
 289:MachineDaisyFile.cpp **** 		// simple test to see if drum selector button works, if button pressed, on board led lights up
 290:MachineDaisyFile.cpp **** 		//System::Delay(100);
 291:MachineDaisyFile.cpp **** 		//processButtons();
 292:MachineDaisyFile.cpp **** 		//ledMatrix();
 293:MachineDaisyFile.cpp **** 		/*
 294:MachineDaisyFile.cpp **** 		System::Delay(100);
 295:MachineDaisyFile.cpp **** 		hw.PrintLine(" Button Value: " FLT_FMT3, FLT_VAR3(buttonValue));
 296:MachineDaisyFile.cpp **** 		hw.PrintLine("Kick bool Array %d %d %d %d", kicks[0], kicks[1], kicks[2], kicks[3]);
 297:MachineDaisyFile.cpp **** 		hw.PrintLine("Snare bool Array %d %d %d %d", snares[0], snares[1], snares[2], snares[3]);
 298:MachineDaisyFile.cpp **** 		hw.PrintLine("Hat bool Array %d %d %d %d", hats[0], hats[1], hats[2], hats[3]);
 299:MachineDaisyFile.cpp **** 		hw.PrintLine("Synth bool Array %d %d %d %d", synths[0], synths[1], synths[2], synths[3]);
 300:MachineDaisyFile.cpp **** 		hw.PrintLine("Drum Mode: %d", drumMode);
 301:MachineDaisyFile.cpp **** 		hw.PrintLine("Current Step %d", step);
 302:MachineDaisyFile.cpp **** 		/**/
 303:MachineDaisyFile.cpp **** 	}
 304:MachineDaisyFile.cpp **** }
 3431              		.loc 14 304 1 is_stmt 1 view -0
 3432              		.cfi_startproc
 3433              		@ args = 0, pretend = 0, frame = 0
 3434              		@ frame_needed = 0, uses_anonymous_args = 0
 3435              	.LBB869:
 3436              	.LBI869:
 3437              		.loc 14 304 1 view .LVU843
 3438              	.LVL168:
 3439              	.LBB870:
ARM GAS  /var/folders/b5/3l92j93d5t1__l78tfntmwyr0000gn/T//ccqKg67w.s 			page 100


 3440              	.LBB871:
 3441              	.LBI871:
  21:../../DaisyExamples/libDaisy//src/daisy_seed.h ****     ~DaisySeed() {}
 3442              		.loc 3 21 5 view .LVU844
 3443              	.LBB872:
 3444              	.LBB873:
 3445              	.LBI873:
 3446              		.file 18 "../../DaisyExamples/libDaisy//src/per/qspi.h"
   1:../../DaisyExamples/libDaisy//src/per/qspi.h **** #ifndef DSY_QSPI
   2:../../DaisyExamples/libDaisy//src/per/qspi.h **** #define DSY_QSPI /**< Macro */
   3:../../DaisyExamples/libDaisy//src/per/qspi.h **** 
   4:../../DaisyExamples/libDaisy//src/per/qspi.h **** #ifndef UNIT_TEST // for unit tests, a dummy implementation
   5:../../DaisyExamples/libDaisy//src/per/qspi.h **** 
   6:../../DaisyExamples/libDaisy//src/per/qspi.h **** #include <cstdint>
   7:../../DaisyExamples/libDaisy//src/per/qspi.h **** #include "daisy_core.h" // Added for dsy_gpio_pin typedef
   8:../../DaisyExamples/libDaisy//src/per/qspi.h **** 
   9:../../DaisyExamples/libDaisy//src/per/qspi.h **** #define DSY_QSPI_TEXT       \
  10:../../DaisyExamples/libDaisy//src/per/qspi.h ****     __attribute__((section( \
  11:../../DaisyExamples/libDaisy//src/per/qspi.h ****         ".qspiflash_text"))) /**< used for reading memory in memory_mapped mode. */
  12:../../DaisyExamples/libDaisy//src/per/qspi.h **** #define DSY_QSPI_DATA       \
  13:../../DaisyExamples/libDaisy//src/per/qspi.h ****     __attribute__((section( \
  14:../../DaisyExamples/libDaisy//src/per/qspi.h ****         ".qspiflash_data"))) /**< used for reading memory in memory_mapped mode. */
  15:../../DaisyExamples/libDaisy//src/per/qspi.h **** #define DSY_QSPI_BSS        \
  16:../../DaisyExamples/libDaisy//src/per/qspi.h ****     __attribute__((section( \
  17:../../DaisyExamples/libDaisy//src/per/qspi.h ****         ".qspiflash_bss"))) /**< used for reading memory in memory_mapped mode. */
  18:../../DaisyExamples/libDaisy//src/per/qspi.h **** 
  19:../../DaisyExamples/libDaisy//src/per/qspi.h **** namespace daisy
  20:../../DaisyExamples/libDaisy//src/per/qspi.h **** {
  21:../../DaisyExamples/libDaisy//src/per/qspi.h **** /** @addtogroup serial
  22:../../DaisyExamples/libDaisy//src/per/qspi.h **** @{
  23:../../DaisyExamples/libDaisy//src/per/qspi.h **** */
  24:../../DaisyExamples/libDaisy//src/per/qspi.h **** 
  25:../../DaisyExamples/libDaisy//src/per/qspi.h **** /** 
  26:../../DaisyExamples/libDaisy//src/per/qspi.h ****  Driver for QSPI peripheral to interface with external flash memory. \n 
  27:../../DaisyExamples/libDaisy//src/per/qspi.h ****     Currently supported QSPI Devices: \n 
  28:../../DaisyExamples/libDaisy//src/per/qspi.h ****     * IS25LP080D
  29:../../DaisyExamples/libDaisy//src/per/qspi.h **** */
  30:../../DaisyExamples/libDaisy//src/per/qspi.h **** class QSPIHandle
  31:../../DaisyExamples/libDaisy//src/per/qspi.h **** {
  32:../../DaisyExamples/libDaisy//src/per/qspi.h ****   public:
  33:../../DaisyExamples/libDaisy//src/per/qspi.h ****     enum Result
  34:../../DaisyExamples/libDaisy//src/per/qspi.h ****     {
  35:../../DaisyExamples/libDaisy//src/per/qspi.h ****         OK = 0,
  36:../../DaisyExamples/libDaisy//src/per/qspi.h ****         ERR
  37:../../DaisyExamples/libDaisy//src/per/qspi.h ****     };
  38:../../DaisyExamples/libDaisy//src/per/qspi.h **** 
  39:../../DaisyExamples/libDaisy//src/per/qspi.h ****     /** Indicates the current status of the module. 
  40:../../DaisyExamples/libDaisy//src/per/qspi.h ****          *  Warnings are indicated by a leading W.
  41:../../DaisyExamples/libDaisy//src/per/qspi.h ****          *  Errors are indicated by a leading E and cause an immediate exit.
  42:../../DaisyExamples/libDaisy//src/per/qspi.h ****          * 
  43:../../DaisyExamples/libDaisy//src/per/qspi.h ****          *  \param GOOD - No errors have been reported.
  44:../../DaisyExamples/libDaisy//src/per/qspi.h ****          *  \param E_HAL_ERROR - HAL code did not return HAL_OK.
  45:../../DaisyExamples/libDaisy//src/per/qspi.h ****          *  \param E_SWITCHING_MODES - An error was encountered while switching QSPI peripheral mod
  46:../../DaisyExamples/libDaisy//src/per/qspi.h ****          *  \param E_INVALID_MODE - QSPI should not be written to while the program is executing fr
  47:../../DaisyExamples/libDaisy//src/per/qspi.h ****          */
  48:../../DaisyExamples/libDaisy//src/per/qspi.h ****     enum Status
  49:../../DaisyExamples/libDaisy//src/per/qspi.h ****     {
ARM GAS  /var/folders/b5/3l92j93d5t1__l78tfntmwyr0000gn/T//ccqKg67w.s 			page 101


  50:../../DaisyExamples/libDaisy//src/per/qspi.h ****         GOOD = 0,
  51:../../DaisyExamples/libDaisy//src/per/qspi.h ****         E_HAL_ERROR,
  52:../../DaisyExamples/libDaisy//src/per/qspi.h ****         E_SWITCHING_MODES,
  53:../../DaisyExamples/libDaisy//src/per/qspi.h ****         E_INVALID_MODE,
  54:../../DaisyExamples/libDaisy//src/per/qspi.h ****     };
  55:../../DaisyExamples/libDaisy//src/per/qspi.h **** 
  56:../../DaisyExamples/libDaisy//src/per/qspi.h ****     /** Configuration structure for interfacing with QSPI Driver */
  57:../../DaisyExamples/libDaisy//src/per/qspi.h ****     struct Config
  58:../../DaisyExamples/libDaisy//src/per/qspi.h ****     {
  59:../../DaisyExamples/libDaisy//src/per/qspi.h ****         /** Flash Devices supported. (Both of these are more-or-less the same, just different sizes
  60:../../DaisyExamples/libDaisy//src/per/qspi.h ****         enum Device
  61:../../DaisyExamples/libDaisy//src/per/qspi.h ****         {
  62:../../DaisyExamples/libDaisy//src/per/qspi.h ****             IS25LP080D,  /**< & */
  63:../../DaisyExamples/libDaisy//src/per/qspi.h ****             IS25LP064A,  /**< & */
  64:../../DaisyExamples/libDaisy//src/per/qspi.h ****             DEVICE_LAST, /**< & */
  65:../../DaisyExamples/libDaisy//src/per/qspi.h ****         };
  66:../../DaisyExamples/libDaisy//src/per/qspi.h **** 
  67:../../DaisyExamples/libDaisy//src/per/qspi.h ****         /** 
  68:../../DaisyExamples/libDaisy//src/per/qspi.h ****         Modes of operation.
  69:../../DaisyExamples/libDaisy//src/per/qspi.h ****         Memory Mapped mode: QSPI configured so that the QSPI can be
  70:../../DaisyExamples/libDaisy//src/per/qspi.h ****         read from starting address 0x90000000. Writing is not
  71:../../DaisyExamples/libDaisy//src/per/qspi.h ****         possible in this mode. \n 
  72:../../DaisyExamples/libDaisy//src/per/qspi.h ****         Indirect Polling mode: Device driver enabled. 
  73:../../DaisyExamples/libDaisy//src/per/qspi.h ****         */
  74:../../DaisyExamples/libDaisy//src/per/qspi.h ****         enum Mode
  75:../../DaisyExamples/libDaisy//src/per/qspi.h ****         {
  76:../../DaisyExamples/libDaisy//src/per/qspi.h ****             MEMORY_MAPPED,    /**< & */
  77:../../DaisyExamples/libDaisy//src/per/qspi.h ****             INDIRECT_POLLING, /**< & */
  78:../../DaisyExamples/libDaisy//src/per/qspi.h ****             MODE_LAST,
  79:../../DaisyExamples/libDaisy//src/per/qspi.h ****         };
  80:../../DaisyExamples/libDaisy//src/per/qspi.h **** 
  81:../../DaisyExamples/libDaisy//src/per/qspi.h ****         //SCK,  CE# (active low)
  82:../../DaisyExamples/libDaisy//src/per/qspi.h ****         struct
  83:../../DaisyExamples/libDaisy//src/per/qspi.h ****         {
  84:../../DaisyExamples/libDaisy//src/per/qspi.h ****             dsy_gpio_pin io0; /**< & */
  85:../../DaisyExamples/libDaisy//src/per/qspi.h ****             dsy_gpio_pin io1; /**< & */
  86:../../DaisyExamples/libDaisy//src/per/qspi.h ****             dsy_gpio_pin io2; /**< & */
  87:../../DaisyExamples/libDaisy//src/per/qspi.h ****             dsy_gpio_pin io3; /**< & */
  88:../../DaisyExamples/libDaisy//src/per/qspi.h ****             dsy_gpio_pin clk; /**< & */
  89:../../DaisyExamples/libDaisy//src/per/qspi.h ****             dsy_gpio_pin ncs; /**< & */
  90:../../DaisyExamples/libDaisy//src/per/qspi.h ****         } pin_config;
  91:../../DaisyExamples/libDaisy//src/per/qspi.h **** 
  92:../../DaisyExamples/libDaisy//src/per/qspi.h ****         Device device;
  93:../../DaisyExamples/libDaisy//src/per/qspi.h ****         Mode   mode;
  94:../../DaisyExamples/libDaisy//src/per/qspi.h ****     };
  95:../../DaisyExamples/libDaisy//src/per/qspi.h **** 
  96:../../DaisyExamples/libDaisy//src/per/qspi.h ****     /** 
  97:../../DaisyExamples/libDaisy//src/per/qspi.h ****         Initializes QSPI peripheral, and Resets, and prepares memory for access.
  98:../../DaisyExamples/libDaisy//src/per/qspi.h ****         \param config should be populated with the mode, device and pin_config before calling this 
  99:../../DaisyExamples/libDaisy//src/per/qspi.h ****         \return Result::OK or Result::ERR
 100:../../DaisyExamples/libDaisy//src/per/qspi.h ****         */
 101:../../DaisyExamples/libDaisy//src/per/qspi.h ****     Result Init(const Config& config);
 102:../../DaisyExamples/libDaisy//src/per/qspi.h **** 
 103:../../DaisyExamples/libDaisy//src/per/qspi.h ****     /** Returns the current config. */
 104:../../DaisyExamples/libDaisy//src/per/qspi.h ****     const Config& GetConfig() const;
 105:../../DaisyExamples/libDaisy//src/per/qspi.h **** 
 106:../../DaisyExamples/libDaisy//src/per/qspi.h ****     // Couldn't this just be called before anything else in init? That
ARM GAS  /var/folders/b5/3l92j93d5t1__l78tfntmwyr0000gn/T//ccqKg67w.s 			page 102


 107:../../DaisyExamples/libDaisy//src/per/qspi.h ****     // would make manually calling it unnecessary.
 108:../../DaisyExamples/libDaisy//src/per/qspi.h ****     /** 
 109:../../DaisyExamples/libDaisy//src/per/qspi.h ****         Deinitializes the peripheral
 110:../../DaisyExamples/libDaisy//src/per/qspi.h ****         This should be called before reinitializing QSPI in a different mode.
 111:../../DaisyExamples/libDaisy//src/per/qspi.h ****         \return Result::OK or Result::ERR
 112:../../DaisyExamples/libDaisy//src/per/qspi.h ****         */
 113:../../DaisyExamples/libDaisy//src/per/qspi.h ****     Result DeInit();
 114:../../DaisyExamples/libDaisy//src/per/qspi.h **** 
 115:../../DaisyExamples/libDaisy//src/per/qspi.h ****     /** 
 116:../../DaisyExamples/libDaisy//src/per/qspi.h ****         Writes a single page to to the specified address on the QSPI chip.
 117:../../DaisyExamples/libDaisy//src/per/qspi.h ****         For IS25LP*, page size is 256 bytes.
 118:../../DaisyExamples/libDaisy//src/per/qspi.h ****         \param address Address to write to
 119:../../DaisyExamples/libDaisy//src/per/qspi.h ****         \param size Buffer size
 120:../../DaisyExamples/libDaisy//src/per/qspi.h ****         \param buffer Buffer to write
 121:../../DaisyExamples/libDaisy//src/per/qspi.h ****         \return Result::OK or Result::ERR
 122:../../DaisyExamples/libDaisy//src/per/qspi.h ****         */
 123:../../DaisyExamples/libDaisy//src/per/qspi.h ****     Result WritePage(uint32_t address, uint32_t size, uint8_t* buffer);
 124:../../DaisyExamples/libDaisy//src/per/qspi.h **** 
 125:../../DaisyExamples/libDaisy//src/per/qspi.h ****     /** 
 126:../../DaisyExamples/libDaisy//src/per/qspi.h ****         Writes data in buffer to to the QSPI. Starting at address to address+size 
 127:../../DaisyExamples/libDaisy//src/per/qspi.h ****         \param address Address to write to
 128:../../DaisyExamples/libDaisy//src/per/qspi.h ****         \param size Buffer size
 129:../../DaisyExamples/libDaisy//src/per/qspi.h ****         \param buffer Buffer to write
 130:../../DaisyExamples/libDaisy//src/per/qspi.h ****         \return Result::OK or Result::ERR
 131:../../DaisyExamples/libDaisy//src/per/qspi.h ****         */
 132:../../DaisyExamples/libDaisy//src/per/qspi.h ****     Result Write(uint32_t address, uint32_t size, uint8_t* buffer);
 133:../../DaisyExamples/libDaisy//src/per/qspi.h **** 
 134:../../DaisyExamples/libDaisy//src/per/qspi.h ****     /** 
 135:../../DaisyExamples/libDaisy//src/per/qspi.h ****         Erases the area specified on the chip.
 136:../../DaisyExamples/libDaisy//src/per/qspi.h ****         Erasures will happen by 4K, 32K or 64K increments.
 137:../../DaisyExamples/libDaisy//src/per/qspi.h ****         Smallest erase possible is 4kB at a time. (on IS25LP*)
 138:../../DaisyExamples/libDaisy//src/per/qspi.h ****         \param start_addr Address to begin erasing from
 139:../../DaisyExamples/libDaisy//src/per/qspi.h ****         \param end_addr  Address to stop erasing at
 140:../../DaisyExamples/libDaisy//src/per/qspi.h ****         \return Result::OK or Result::ERR
 141:../../DaisyExamples/libDaisy//src/per/qspi.h ****         */
 142:../../DaisyExamples/libDaisy//src/per/qspi.h ****     Result Erase(uint32_t start_addr, uint32_t end_addr);
 143:../../DaisyExamples/libDaisy//src/per/qspi.h **** 
 144:../../DaisyExamples/libDaisy//src/per/qspi.h ****     /**  
 145:../../DaisyExamples/libDaisy//src/per/qspi.h ****          Erases a single sector of the chip.  
 146:../../DaisyExamples/libDaisy//src/per/qspi.h ****         TODO: Document the size of this function. 
 147:../../DaisyExamples/libDaisy//src/per/qspi.h ****         \param address Address of sector to erase
 148:../../DaisyExamples/libDaisy//src/per/qspi.h ****         \return Result::OK or Result::ERR
 149:../../DaisyExamples/libDaisy//src/per/qspi.h ****         */
 150:../../DaisyExamples/libDaisy//src/per/qspi.h ****     Result EraseSector(uint32_t address);
 151:../../DaisyExamples/libDaisy//src/per/qspi.h **** 
 152:../../DaisyExamples/libDaisy//src/per/qspi.h ****     /** Returns the current class status. Useful for debugging.
 153:../../DaisyExamples/libDaisy//src/per/qspi.h ****      *  \returns Status
 154:../../DaisyExamples/libDaisy//src/per/qspi.h ****      */
 155:../../DaisyExamples/libDaisy//src/per/qspi.h ****     Status GetStatus();
 156:../../DaisyExamples/libDaisy//src/per/qspi.h **** 
 157:../../DaisyExamples/libDaisy//src/per/qspi.h ****     /** Returns a pointer to the actual memory used 
 158:../../DaisyExamples/libDaisy//src/per/qspi.h ****      *  The memory at this address is read-only
 159:../../DaisyExamples/libDaisy//src/per/qspi.h ****      *  to write to it use the Write function.
 160:../../DaisyExamples/libDaisy//src/per/qspi.h ****      * 
 161:../../DaisyExamples/libDaisy//src/per/qspi.h ****      *  \param offset returns the pointer starting this 
 162:../../DaisyExamples/libDaisy//src/per/qspi.h ****      *                many bytes into the memory
 163:../../DaisyExamples/libDaisy//src/per/qspi.h ****     */
ARM GAS  /var/folders/b5/3l92j93d5t1__l78tfntmwyr0000gn/T//ccqKg67w.s 			page 103


 164:../../DaisyExamples/libDaisy//src/per/qspi.h ****     void* GetData(uint32_t offset = 0);
 165:../../DaisyExamples/libDaisy//src/per/qspi.h **** 
 166:../../DaisyExamples/libDaisy//src/per/qspi.h ****     QSPIHandle() : pimpl_(nullptr) {}
 3447              		.loc 18 166 5 view .LVU845
 3448              	.LBE873:
 3449              	.LBE872:
 3450              	.LBE871:
 3451              	.LBE870:
 3452              	.LBE869:
 3453              		.loc 14 304 1 is_stmt 0 view .LVU846
 3454 0000 38B5     		push	{r3, r4, r5, lr}
 3455              		.cfi_def_cfa_offset 16
 3456              		.cfi_offset 3, -16
 3457              		.cfi_offset 4, -12
 3458              		.cfi_offset 5, -8
 3459              		.cfi_offset 14, -4
 3460              	.LBB925:
 3461              	.LBB923:
 3462              	.LBB893:
 3463              	.LBB890:
 3464              	.LBB878:
 3465              	.LBB874:
 3466              	.LBB875:
 3467              		.loc 18 166 34 view .LVU847
 3468 0002 2548     		ldr	r0, .L175
 3469 0004 0023     		movs	r3, #0
 3470              	.LBE875:
 3471              	.LBE874:
 3472              	.LBE878:
 3473              	.LBE890:
 3474              	.LBE893:
  17:MachineDaisyFile.cpp **** static AdcHandle adc;
 3475              		.loc 14 17 18 view .LVU848
 3476 0006 254C     		ldr	r4, .L175+4
 3477              	.LBB894:
 3478              	.LBB891:
 3479              	.LBB879:
 3480              	.LBB877:
 3481              	.LBB876:
 3482              		.loc 18 166 34 view .LVU849
 3483 0008 0360     		str	r3, [r0]
 3484              	.LVL169:
 3485              		.loc 18 166 34 view .LVU850
 3486              	.LBE876:
 3487              	.LBE877:
 3488              	.LBE879:
 3489              	.LBB880:
 3490              	.LBI880:
  95:../../DaisyExamples/libDaisy//src/hid/audio.h ****     ~AudioHandle() {}
 3491              		.loc 6 95 5 is_stmt 1 view .LVU851
 3492              	.LBB881:
 3493              	.LBB882:
  95:../../DaisyExamples/libDaisy//src/hid/audio.h ****     ~AudioHandle() {}
 3494              		.loc 6 95 35 is_stmt 0 view .LVU852
 3495 000a 4361     		str	r3, [r0, #20]
 3496              	.LVL170:
  95:../../DaisyExamples/libDaisy//src/hid/audio.h ****     ~AudioHandle() {}
ARM GAS  /var/folders/b5/3l92j93d5t1__l78tfntmwyr0000gn/T//ccqKg67w.s 			page 104


 3497              		.loc 6 95 35 view .LVU853
 3498              	.LBE882:
 3499              	.LBE881:
 3500              	.LBE880:
 3501              	.LBB883:
 3502              	.LBI883:
  92:../../DaisyExamples/libDaisy//src/per/adc.h ****     ~AdcHandle() {}
 3503              		.loc 1 92 5 is_stmt 1 view .LVU854
  92:../../DaisyExamples/libDaisy//src/per/adc.h ****     ~AdcHandle() {}
 3504              		.loc 1 92 5 is_stmt 0 view .LVU855
 3505              	.LBE883:
 3506              	.LBB884:
 3507              	.LBI884:
 3508              		.file 19 "../../DaisyExamples/libDaisy//src/per/dac.h"
   1:../../DaisyExamples/libDaisy//src/per/dac.h **** #pragma once
   2:../../DaisyExamples/libDaisy//src/per/dac.h **** #ifndef DSY_DAC_H
   3:../../DaisyExamples/libDaisy//src/per/dac.h **** #define DSY_DAC_H
   4:../../DaisyExamples/libDaisy//src/per/dac.h **** 
   5:../../DaisyExamples/libDaisy//src/per/dac.h **** #include "daisy_core.h"
   6:../../DaisyExamples/libDaisy//src/per/dac.h **** 
   7:../../DaisyExamples/libDaisy//src/per/dac.h **** namespace daisy
   8:../../DaisyExamples/libDaisy//src/per/dac.h **** {
   9:../../DaisyExamples/libDaisy//src/per/dac.h **** /** @brief DAC handle for Built-in DAC Peripheral 
  10:../../DaisyExamples/libDaisy//src/per/dac.h ****  *  @ingroup per_analog
  11:../../DaisyExamples/libDaisy//src/per/dac.h ****  ** 
  12:../../DaisyExamples/libDaisy//src/per/dac.h ****  ** For now only Normal Mode is supported,
  13:../../DaisyExamples/libDaisy//src/per/dac.h ****  ** Sample and hold mode provides reduced power consumption, but requires a bit more setup.
  14:../../DaisyExamples/libDaisy//src/per/dac.h ****  **
  15:../../DaisyExamples/libDaisy//src/per/dac.h ****  ** For now connecting the DAC through other internal peripherals is also not supported.
  16:../../DaisyExamples/libDaisy//src/per/dac.h ****  **
  17:../../DaisyExamples/libDaisy//src/per/dac.h ****  ** Since the DAC channels have dedicated pins we don't need to pass in a pin config like with
  18:../../DaisyExamples/libDaisy//src/per/dac.h ****  ** other modules. However, it is still important to not try to use the DAC pins for anything else.
  19:../../DaisyExamples/libDaisy//src/per/dac.h ****  ** DAC Channel 1 is on PA4, and DAC Channel 2 is on PA5
  20:../../DaisyExamples/libDaisy//src/per/dac.h ****  ***/
  21:../../DaisyExamples/libDaisy//src/per/dac.h **** class DacHandle
  22:../../DaisyExamples/libDaisy//src/per/dac.h **** {
  23:../../DaisyExamples/libDaisy//src/per/dac.h ****   public:
  24:../../DaisyExamples/libDaisy//src/per/dac.h ****     /** Return Values for the DacHandle class */
  25:../../DaisyExamples/libDaisy//src/per/dac.h ****     enum class Result
  26:../../DaisyExamples/libDaisy//src/per/dac.h ****     {
  27:../../DaisyExamples/libDaisy//src/per/dac.h ****         OK,
  28:../../DaisyExamples/libDaisy//src/per/dac.h ****         ERR,
  29:../../DaisyExamples/libDaisy//src/per/dac.h ****     };
  30:../../DaisyExamples/libDaisy//src/per/dac.h **** 
  31:../../DaisyExamples/libDaisy//src/per/dac.h ****     /** Selects which channel(s) will be configured for use. */
  32:../../DaisyExamples/libDaisy//src/per/dac.h ****     enum class Channel
  33:../../DaisyExamples/libDaisy//src/per/dac.h ****     {
  34:../../DaisyExamples/libDaisy//src/per/dac.h ****         ONE,
  35:../../DaisyExamples/libDaisy//src/per/dac.h ****         TWO,
  36:../../DaisyExamples/libDaisy//src/per/dac.h ****         BOTH,
  37:../../DaisyExamples/libDaisy//src/per/dac.h ****     };
  38:../../DaisyExamples/libDaisy//src/per/dac.h **** 
  39:../../DaisyExamples/libDaisy//src/per/dac.h ****     /** Sets the Mode for the DAC channels.
  40:../../DaisyExamples/libDaisy//src/per/dac.h ****      **
  41:../../DaisyExamples/libDaisy//src/per/dac.h ****      ** Polling mode uses the blocking mode to transmit a single value at a time.
  42:../../DaisyExamples/libDaisy//src/per/dac.h ****      **
  43:../../DaisyExamples/libDaisy//src/per/dac.h ****      ** DMA mode uses a buffer, and periodically transmits it triggering a 
ARM GAS  /var/folders/b5/3l92j93d5t1__l78tfntmwyr0000gn/T//ccqKg67w.s 			page 105


  44:../../DaisyExamples/libDaisy//src/per/dac.h ****      ** callback to fill the buffer when it is ready for more samples.
  45:../../DaisyExamples/libDaisy//src/per/dac.h ****      ***/
  46:../../DaisyExamples/libDaisy//src/per/dac.h ****     enum class Mode
  47:../../DaisyExamples/libDaisy//src/per/dac.h ****     {
  48:../../DaisyExamples/libDaisy//src/per/dac.h ****         POLLING,
  49:../../DaisyExamples/libDaisy//src/per/dac.h ****         DMA,
  50:../../DaisyExamples/libDaisy//src/per/dac.h ****     };
  51:../../DaisyExamples/libDaisy//src/per/dac.h **** 
  52:../../DaisyExamples/libDaisy//src/per/dac.h ****     /** Sets the number of bits per sample transmitted out of the DAC.
  53:../../DaisyExamples/libDaisy//src/per/dac.h ****      ** The output range will be: 0V - VDDA
  54:../../DaisyExamples/libDaisy//src/per/dac.h ****      ** The resolution will be roughly: bitdepth / (VDDA - 0V) 
  55:../../DaisyExamples/libDaisy//src/per/dac.h ****      ***/
  56:../../DaisyExamples/libDaisy//src/per/dac.h ****     enum class BitDepth
  57:../../DaisyExamples/libDaisy//src/per/dac.h ****     {
  58:../../DaisyExamples/libDaisy//src/per/dac.h ****         BITS_8,
  59:../../DaisyExamples/libDaisy//src/per/dac.h ****         BITS_12
  60:../../DaisyExamples/libDaisy//src/per/dac.h ****     };
  61:../../DaisyExamples/libDaisy//src/per/dac.h **** 
  62:../../DaisyExamples/libDaisy//src/per/dac.h ****     /** Sets whether the DAC output is buffered for higher drive ability. */
  63:../../DaisyExamples/libDaisy//src/per/dac.h ****     enum class BufferState
  64:../../DaisyExamples/libDaisy//src/per/dac.h ****     {
  65:../../DaisyExamples/libDaisy//src/per/dac.h ****         ENABLED,
  66:../../DaisyExamples/libDaisy//src/per/dac.h ****         DISABLED,
  67:../../DaisyExamples/libDaisy//src/per/dac.h ****     };
  68:../../DaisyExamples/libDaisy//src/per/dac.h **** 
  69:../../DaisyExamples/libDaisy//src/per/dac.h ****     /** Configuration structure for initializing the DAC structure. */
  70:../../DaisyExamples/libDaisy//src/per/dac.h ****     struct Config
  71:../../DaisyExamples/libDaisy//src/per/dac.h ****     {
  72:../../DaisyExamples/libDaisy//src/per/dac.h ****         /** Target Samplerate in Hz used to configure the internal 
  73:../../DaisyExamples/libDaisy//src/per/dac.h ****          ** timebase for DMA mode. Does nothing in POLLING mode.
  74:../../DaisyExamples/libDaisy//src/per/dac.h ****          ** If the value is 0 at Init time this will default to 48000Hz 
  75:../../DaisyExamples/libDaisy//src/per/dac.h ****          ** otherwise the driver will attempt meet the target.*/
  76:../../DaisyExamples/libDaisy//src/per/dac.h ****         uint32_t target_samplerate;
  77:../../DaisyExamples/libDaisy//src/per/dac.h **** 
  78:../../DaisyExamples/libDaisy//src/per/dac.h ****         Channel     chn;
  79:../../DaisyExamples/libDaisy//src/per/dac.h ****         Mode        mode;
  80:../../DaisyExamples/libDaisy//src/per/dac.h ****         BitDepth    bitdepth;
  81:../../DaisyExamples/libDaisy//src/per/dac.h ****         BufferState buff_state;
  82:../../DaisyExamples/libDaisy//src/per/dac.h ****     };
  83:../../DaisyExamples/libDaisy//src/per/dac.h **** 
  84:../../DaisyExamples/libDaisy//src/per/dac.h ****     DacHandle() : pimpl_(nullptr) {}
 3509              		.loc 19 84 5 is_stmt 1 view .LVU856
 3510              	.LBE884:
 3511              	.LBE891:
 3512              	.LBE894:
  17:MachineDaisyFile.cpp **** static AdcHandle adc;
 3513              		.loc 14 17 18 is_stmt 0 view .LVU857
 3514 000c 2246     		mov	r2, r4
 3515              	.LBB895:
 3516              	.LBB892:
 3517              	.LBB887:
 3518              	.LBB885:
 3519              	.LBB886:
 3520              		.loc 19 84 33 view .LVU858
 3521 000e 0362     		str	r3, [r0, #32]
 3522              	.LVL171:
 3523              		.loc 19 84 33 view .LVU859
ARM GAS  /var/folders/b5/3l92j93d5t1__l78tfntmwyr0000gn/T//ccqKg67w.s 			page 106


 3524              	.LBE886:
 3525              	.LBE885:
 3526              	.LBE887:
 3527              	.LBB888:
 3528              	.LBI888:
  40:../../DaisyExamples/libDaisy//src/hid/usb.h **** 
 3529              		.loc 5 40 5 is_stmt 1 view .LVU860
  40:../../DaisyExamples/libDaisy//src/hid/usb.h **** 
 3530              		.loc 5 40 5 is_stmt 0 view .LVU861
 3531              	.LBE888:
 3532              	.LBB889:
 3533              	.LBI889:
  77:../../DaisyExamples/libDaisy//src/sys/system.h ****     ~System() {}
 3534              		.loc 4 77 5 is_stmt 1 view .LVU862
  77:../../DaisyExamples/libDaisy//src/sys/system.h ****     ~System() {}
 3535              		.loc 4 77 5 is_stmt 0 view .LVU863
 3536              	.LBE889:
 3537              	.LBE892:
 3538              	.LBE895:
  27:MachineDaisyFile.cpp **** float buttonValue;
 3539              		.loc 14 27 8 view .LVU864
 3540 0010 234D     		ldr	r5, .L175+8
  17:MachineDaisyFile.cpp **** static AdcHandle adc;
 3541              		.loc 14 17 18 view .LVU865
 3542 0012 2449     		ldr	r1, .L175+12
 3543 0014 FFF7FEFF 		bl	__aeabi_atexit
 3544              	.LVL172:
 3545              	.LBB896:
 3546              	.LBI896:
  92:../../DaisyExamples/libDaisy//src/per/adc.h ****     ~AdcHandle() {}
 3547              		.loc 1 92 5 is_stmt 1 view .LVU866
  92:../../DaisyExamples/libDaisy//src/per/adc.h ****     ~AdcHandle() {}
 3548              		.loc 1 92 5 is_stmt 0 view .LVU867
 3549              	.LBE896:
  18:MachineDaisyFile.cpp **** 
 3550              		.loc 14 18 18 view .LVU868
 3551 0018 2246     		mov	r2, r4
 3552 001a 2349     		ldr	r1, .L175+16
 3553 001c 2348     		ldr	r0, .L175+20
 3554 001e FFF7FEFF 		bl	__aeabi_atexit
 3555              	.LVL173:
 3556              	.LBB897:
 3557              	.LBI897:
  41:../../DaisyExamples/libDaisy//src/hid/switch.h ****     ~Switch() {}
 3558              		.loc 2 41 5 is_stmt 1 view .LVU869
  41:../../DaisyExamples/libDaisy//src/hid/switch.h ****     ~Switch() {}
 3559              		.loc 2 41 5 is_stmt 0 view .LVU870
 3560              	.LBE897:
  27:MachineDaisyFile.cpp **** float buttonValue;
 3561              		.loc 14 27 8 view .LVU871
 3562 0022 2246     		mov	r2, r4
 3563 0024 2946     		mov	r1, r5
 3564 0026 2248     		ldr	r0, .L175+24
 3565 0028 FFF7FEFF 		bl	__aeabi_atexit
 3566              	.LVL174:
 3567              	.LBB898:
 3568              	.LBI898:
ARM GAS  /var/folders/b5/3l92j93d5t1__l78tfntmwyr0000gn/T//ccqKg67w.s 			page 107


  41:../../DaisyExamples/libDaisy//src/hid/switch.h ****     ~Switch() {}
 3569              		.loc 2 41 5 is_stmt 1 view .LVU872
  41:../../DaisyExamples/libDaisy//src/hid/switch.h ****     ~Switch() {}
 3570              		.loc 2 41 5 is_stmt 0 view .LVU873
 3571              	.LBE898:
  27:MachineDaisyFile.cpp **** float buttonValue;
 3572              		.loc 14 27 18 view .LVU874
 3573 002c 2246     		mov	r2, r4
 3574 002e 2946     		mov	r1, r5
 3575 0030 2048     		ldr	r0, .L175+28
 3576 0032 FFF7FEFF 		bl	__aeabi_atexit
 3577              	.LVL175:
 3578              	.LBB899:
 3579              	.LBI899:
  14:../../DaisyExamples/DaisySP//Source/Utility/metro.h ****     ~Metro() {}
 3580              		.loc 12 14 5 is_stmt 1 view .LVU875
  14:../../DaisyExamples/DaisySP//Source/Utility/metro.h ****     ~Metro() {}
 3581              		.loc 12 14 5 is_stmt 0 view .LVU876
 3582              	.LBE899:
  31:MachineDaisyFile.cpp **** AnalogBassDrum kick;
 3583              		.loc 14 31 7 view .LVU877
 3584 0036 2246     		mov	r2, r4
 3585 0038 1F49     		ldr	r1, .L175+32
 3586 003a 2048     		ldr	r0, .L175+36
 3587 003c FFF7FEFF 		bl	__aeabi_atexit
 3588              	.LVL176:
 3589              	.LBB900:
 3590              	.LBI900:
  26:../../DaisyExamples/DaisySP//Source/Drums/analogbassdrum.h ****     ~AnalogBassDrum() {}
 3591              		.loc 8 26 5 is_stmt 1 view .LVU878
 3592              	.LBB901:
 3593              	.LBB902:
 3594              	.LBI902:
  21:../../DaisyExamples/DaisySP//Source/Filters/svf.h ****     ~Svf() {}
 3595              		.loc 9 21 5 view .LVU879
  21:../../DaisyExamples/DaisySP//Source/Filters/svf.h ****     ~Svf() {}
 3596              		.loc 9 21 5 is_stmt 0 view .LVU880
 3597              	.LBE902:
 3598              	.LBE901:
 3599              	.LBE900:
  32:MachineDaisyFile.cpp **** HiHat<SquareNoise, LinearVCA, true> hat;
 3600              		.loc 14 32 16 view .LVU881
 3601 0040 2246     		mov	r2, r4
 3602 0042 1F49     		ldr	r1, .L175+40
 3603 0044 1F48     		ldr	r0, .L175+44
 3604 0046 FFF7FEFF 		bl	__aeabi_atexit
 3605              	.LVL177:
 3606              	.LBB903:
 3607              	.LBI903:
 112:../../DaisyExamples/DaisySP//Source/Drums/hihat.h ****     ~HiHat() {}
 3608              		.loc 13 112 5 is_stmt 1 view .LVU882
 3609              	.LBB904:
 3610              	.LBB905:
 3611              	.LBI905:
  27:../../DaisyExamples/DaisySP//Source/Drums/hihat.h ****     ~SquareNoise() {}
 3612              		.loc 13 27 5 view .LVU883
  27:../../DaisyExamples/DaisySP//Source/Drums/hihat.h ****     ~SquareNoise() {}
ARM GAS  /var/folders/b5/3l92j93d5t1__l78tfntmwyr0000gn/T//ccqKg67w.s 			page 108


 3613              		.loc 13 27 5 is_stmt 0 view .LVU884
 3614              	.LBE905:
 3615              	.LBB906:
 3616              	.LBI906:
  21:../../DaisyExamples/DaisySP//Source/Filters/svf.h ****     ~Svf() {}
 3617              		.loc 9 21 5 is_stmt 1 view .LVU885
  21:../../DaisyExamples/DaisySP//Source/Filters/svf.h ****     ~Svf() {}
 3618              		.loc 9 21 5 is_stmt 0 view .LVU886
 3619              	.LBE906:
 3620              	.LBB907:
 3621              	.LBI907:
  21:../../DaisyExamples/DaisySP//Source/Filters/svf.h ****     ~Svf() {}
 3622              		.loc 9 21 5 is_stmt 1 view .LVU887
  21:../../DaisyExamples/DaisySP//Source/Filters/svf.h ****     ~Svf() {}
 3623              		.loc 9 21 5 is_stmt 0 view .LVU888
 3624              	.LBE907:
 3625              	.LBE904:
 3626              	.LBE903:
  33:MachineDaisyFile.cpp **** SyntheticBassDrum synthKick;
 3627              		.loc 14 33 37 view .LVU889
 3628 004a 2246     		mov	r2, r4
 3629 004c 1E49     		ldr	r1, .L175+48
 3630 004e 1F48     		ldr	r0, .L175+52
  36:MachineDaisyFile.cpp **** //EZ_DSP::DelayLine<float, MAX_DELAY> DSY_SDRAM_BSS del;
 3631              		.loc 14 36 7 view .LVU890
 3632 0050 1F4D     		ldr	r5, .L175+56
  33:MachineDaisyFile.cpp **** SyntheticBassDrum synthKick;
 3633              		.loc 14 33 37 view .LVU891
 3634 0052 FFF7FEFF 		bl	__aeabi_atexit
 3635              	.LVL178:
 3636              	.LBB908:
 3637              	.LBI908:
  82:../../DaisyExamples/DaisySP//Source/Drums/synthbassdrum.h ****     ~SyntheticBassDrum() {}
 3638              		.loc 10 82 5 is_stmt 1 view .LVU892
 3639              	.LBB909:
 3640              	.LBB910:
 3641              	.LBI910:
  26:../../DaisyExamples/DaisySP//Source/Drums/synthbassdrum.h ****     ~SyntheticBassDrumClick() {}
 3642              		.loc 10 26 5 view .LVU893
 3643              	.LBB911:
 3644              	.LBB912:
 3645              	.LBI912:
  21:../../DaisyExamples/DaisySP//Source/Filters/svf.h ****     ~Svf() {}
 3646              		.loc 9 21 5 view .LVU894
  21:../../DaisyExamples/DaisySP//Source/Filters/svf.h ****     ~Svf() {}
 3647              		.loc 9 21 5 is_stmt 0 view .LVU895
 3648              	.LBE912:
 3649              	.LBE911:
 3650              	.LBE910:
 3651              	.LBB913:
 3652              	.LBI913:
  56:../../DaisyExamples/DaisySP//Source/Drums/synthbassdrum.h ****     ~SyntheticBassDrumAttackNoise() {}
 3653              		.loc 10 56 5 is_stmt 1 view .LVU896
  56:../../DaisyExamples/DaisySP//Source/Drums/synthbassdrum.h ****     ~SyntheticBassDrumAttackNoise() {}
 3654              		.loc 10 56 5 is_stmt 0 view .LVU897
 3655              	.LBE913:
 3656              	.LBE909:
ARM GAS  /var/folders/b5/3l92j93d5t1__l78tfntmwyr0000gn/T//ccqKg67w.s 			page 109


 3657              	.LBE908:
  34:MachineDaisyFile.cpp **** SyntheticSnareDrum snare;
 3658              		.loc 14 34 19 view .LVU898
 3659 0056 2246     		mov	r2, r4
 3660 0058 1E49     		ldr	r1, .L175+60
 3661 005a 1F48     		ldr	r0, .L175+64
 3662 005c FFF7FEFF 		bl	__aeabi_atexit
 3663              	.LVL179:
 3664              	.LBB914:
 3665              	.LBI914:
  29:../../DaisyExamples/DaisySP//Source/Drums/synthsnaredrum.h ****     ~SyntheticSnareDrum() {}
 3666              		.loc 11 29 5 is_stmt 1 view .LVU899
 3667              	.LBB915:
 3668              	.LBB916:
 3669              	.LBI916:
  21:../../DaisyExamples/DaisySP//Source/Filters/svf.h ****     ~Svf() {}
 3670              		.loc 9 21 5 view .LVU900
  21:../../DaisyExamples/DaisySP//Source/Filters/svf.h ****     ~Svf() {}
 3671              		.loc 9 21 5 is_stmt 0 view .LVU901
 3672              	.LBE916:
 3673              	.LBB917:
 3674              	.LBI917:
  21:../../DaisyExamples/DaisySP//Source/Filters/svf.h ****     ~Svf() {}
 3675              		.loc 9 21 5 is_stmt 1 view .LVU902
  21:../../DaisyExamples/DaisySP//Source/Filters/svf.h ****     ~Svf() {}
 3676              		.loc 9 21 5 is_stmt 0 view .LVU903
 3677              	.LBE917:
 3678              	.LBB918:
 3679              	.LBI918:
  21:../../DaisyExamples/DaisySP//Source/Filters/svf.h ****     ~Svf() {}
 3680              		.loc 9 21 5 is_stmt 1 view .LVU904
  21:../../DaisyExamples/DaisySP//Source/Filters/svf.h ****     ~Svf() {}
 3681              		.loc 9 21 5 is_stmt 0 view .LVU905
 3682              	.LBE918:
 3683              	.LBE915:
 3684              	.LBE914:
  35:MachineDaisyFile.cpp **** AdEnv kickEnv, snareEnv, hatEnv, synthEnv;
 3685              		.loc 14 35 20 view .LVU906
 3686 0060 2246     		mov	r2, r4
 3687 0062 1E49     		ldr	r1, .L175+68
 3688 0064 1E48     		ldr	r0, .L175+72
 3689 0066 FFF7FEFF 		bl	__aeabi_atexit
 3690              	.LVL180:
 3691              	.LBB919:
 3692              	.LBI919:
  34:../../DaisyExamples/DaisySP//Source/Control/adenv.h ****     ~AdEnv() {}
 3693              		.loc 7 34 5 is_stmt 1 view .LVU907
  34:../../DaisyExamples/DaisySP//Source/Control/adenv.h ****     ~AdEnv() {}
 3694              		.loc 7 34 5 is_stmt 0 view .LVU908
 3695              	.LBE919:
  36:MachineDaisyFile.cpp **** //EZ_DSP::DelayLine<float, MAX_DELAY> DSY_SDRAM_BSS del;
 3696              		.loc 14 36 7 view .LVU909
 3697 006a 2246     		mov	r2, r4
 3698 006c 2946     		mov	r1, r5
 3699 006e 1D48     		ldr	r0, .L175+76
 3700 0070 FFF7FEFF 		bl	__aeabi_atexit
 3701              	.LVL181:
ARM GAS  /var/folders/b5/3l92j93d5t1__l78tfntmwyr0000gn/T//ccqKg67w.s 			page 110


 3702              	.LBB920:
 3703              	.LBI920:
  34:../../DaisyExamples/DaisySP//Source/Control/adenv.h ****     ~AdEnv() {}
 3704              		.loc 7 34 5 is_stmt 1 view .LVU910
  34:../../DaisyExamples/DaisySP//Source/Control/adenv.h ****     ~AdEnv() {}
 3705              		.loc 7 34 5 is_stmt 0 view .LVU911
 3706              	.LBE920:
  36:MachineDaisyFile.cpp **** //EZ_DSP::DelayLine<float, MAX_DELAY> DSY_SDRAM_BSS del;
 3707              		.loc 14 36 16 view .LVU912
 3708 0074 2246     		mov	r2, r4
 3709 0076 2946     		mov	r1, r5
 3710 0078 1B48     		ldr	r0, .L175+80
 3711 007a FFF7FEFF 		bl	__aeabi_atexit
 3712              	.LVL182:
 3713              	.LBB921:
 3714              	.LBI921:
  34:../../DaisyExamples/DaisySP//Source/Control/adenv.h ****     ~AdEnv() {}
 3715              		.loc 7 34 5 is_stmt 1 view .LVU913
  34:../../DaisyExamples/DaisySP//Source/Control/adenv.h ****     ~AdEnv() {}
 3716              		.loc 7 34 5 is_stmt 0 view .LVU914
 3717              	.LBE921:
  36:MachineDaisyFile.cpp **** //EZ_DSP::DelayLine<float, MAX_DELAY> DSY_SDRAM_BSS del;
 3718              		.loc 14 36 26 view .LVU915
 3719 007e 2246     		mov	r2, r4
 3720 0080 2946     		mov	r1, r5
 3721 0082 1A48     		ldr	r0, .L175+84
 3722 0084 FFF7FEFF 		bl	__aeabi_atexit
 3723              	.LVL183:
 3724              	.LBB922:
 3725              	.LBI922:
  34:../../DaisyExamples/DaisySP//Source/Control/adenv.h ****     ~AdEnv() {}
 3726              		.loc 7 34 5 is_stmt 1 view .LVU916
  34:../../DaisyExamples/DaisySP//Source/Control/adenv.h ****     ~AdEnv() {}
 3727              		.loc 7 34 5 is_stmt 0 view .LVU917
 3728              	.LBE922:
  36:MachineDaisyFile.cpp **** //EZ_DSP::DelayLine<float, MAX_DELAY> DSY_SDRAM_BSS del;
 3729              		.loc 14 36 34 view .LVU918
 3730 0088 2246     		mov	r2, r4
 3731 008a 2946     		mov	r1, r5
 3732 008c 1848     		ldr	r0, .L175+88
 3733              	.LBE923:
 3734              	.LBE925:
 3735              		.loc 14 304 1 view .LVU919
 3736 008e BDE83840 		pop	{r3, r4, r5, lr}
 3737              		.cfi_restore 14
 3738              		.cfi_restore 5
 3739              		.cfi_restore 4
 3740              		.cfi_restore 3
 3741              		.cfi_def_cfa_offset 0
 3742              	.LBB926:
 3743              	.LBB924:
  36:MachineDaisyFile.cpp **** //EZ_DSP::DelayLine<float, MAX_DELAY> DSY_SDRAM_BSS del;
 3744              		.loc 14 36 34 view .LVU920
 3745 0092 FFF7FEBF 		b	__aeabi_atexit
 3746              	.LVL184:
 3747              	.L176:
 3748 0096 00BF     		.align	2
ARM GAS  /var/folders/b5/3l92j93d5t1__l78tfntmwyr0000gn/T//ccqKg67w.s 			page 111


 3749              	.L175:
 3750 0098 00000000 		.word	.LANCHOR5
 3751 009c 00000000 		.word	__dso_handle
 3752 00a0 00000000 		.word	_ZN5daisy6SwitchD1Ev
 3753 00a4 00000000 		.word	_ZN5daisy9DaisySeedD1Ev
 3754 00a8 00000000 		.word	_ZN5daisy9AdcHandleD1Ev
 3755 00ac 00000000 		.word	.LANCHOR22
 3756 00b0 00000000 		.word	.LANCHOR13
 3757 00b4 00000000 		.word	.LANCHOR14
 3758 00b8 00000000 		.word	_ZN7daisysp5MetroD1Ev
 3759 00bc 00000000 		.word	.LANCHOR19
 3760 00c0 00000000 		.word	_ZN7daisysp14AnalogBassDrumD1Ev
 3761 00c4 00000000 		.word	.LANCHOR10
 3762 00c8 00000000 		.word	_ZN7daisysp5HiHatINS_11SquareNoiseENS_9LinearVCAELb1EED1Ev
 3763 00cc 00000000 		.word	.LANCHOR11
 3764 00d0 00000000 		.word	_ZN7daisysp5AdEnvD1Ev
 3765 00d4 00000000 		.word	_ZN7daisysp17SyntheticBassDrumD1Ev
 3766 00d8 00000000 		.word	.LANCHOR12
 3767 00dc 00000000 		.word	_ZN7daisysp18SyntheticSnareDrumD1Ev
 3768 00e0 00000000 		.word	.LANCHOR20
 3769 00e4 00000000 		.word	.LANCHOR23
 3770 00e8 00000000 		.word	.LANCHOR24
 3771 00ec 00000000 		.word	.LANCHOR25
 3772 00f0 00000000 		.word	.LANCHOR26
 3773              	.LBE924:
 3774              	.LBE926:
 3775              		.cfi_endproc
 3776              	.LFE5443:
 3778              		.section	.init_array,"aw",%init_array
 3779              		.align	2
 3780 0000 00000000 		.word	_GLOBAL__sub_I_drumMode(target1)
 3781              		.global	delWet
 3782              		.global	delTime
 3783              		.global	delFeedback
 3784              		.global	lastDebounceTime
 3785              		.global	debounceDelay
 3786              		.global	tempoMult
 3787              		.global	onSwitchValue
 3788              		.global	tempoKnobValue
 3789              		.global	tempoMode
 3790              		.global	patternIn
 3791              		.global	step
 3792              		.global	synths
 3793              		.global	hats
 3794              		.global	kicks
 3795              		.global	snares
 3796              		.global	synthEnv
 3797              		.global	hatEnv
 3798              		.global	snareEnv
 3799              		.global	kickEnv
 3800              		.global	snare
 3801              		.global	synthKick
 3802              		.global	hat
 3803              		.global	kick
 3804              		.global	tick
 3805              		.global	buttonValue
 3806              		.global	tempoModON
ARM GAS  /var/folders/b5/3l92j93d5t1__l78tfntmwyr0000gn/T//ccqKg67w.s 			page 112


 3807              		.global	selector
 3808              		.global	drumMode
 3809              		.section	.bss._ZL2hw,"aw",%nobits
 3810              		.align	2
 3811              		.set	.LANCHOR5,. + 0
 3814              	_ZL2hw:
 3815 0000 00000000 		.space	60
 3815      00000000 
 3815      00000000 
 3815      00000000 
 3815      00000000 
 3816              		.section	.bss._ZL3adc,"aw",%nobits
 3817              		.align	2
 3818              		.set	.LANCHOR22,. + 0
 3821              	_ZL3adc:
 3822 0000 00000000 		.space	8
 3822      00000000 
 3823              		.section	.bss.buttonValue,"aw",%nobits
 3824              		.align	2
 3825              		.set	.LANCHOR6,. + 0
 3828              	buttonValue:
 3829 0000 00000000 		.space	4
 3830              		.section	.bss.drumMode,"aw",%nobits
 3831              		.align	2
 3832              		.set	.LANCHOR7,. + 0
 3835              	drumMode:
 3836 0000 00000000 		.space	4
 3837              		.section	.bss.hat,"aw",%nobits
 3838              		.align	2
 3839              		.set	.LANCHOR11,. + 0
 3842              	hat:
 3843 0000 00000000 		.space	220
 3843      00000000 
 3843      00000000 
 3843      00000000 
 3843      00000000 
 3844              		.section	.bss.hatEnv,"aw",%nobits
 3845              		.align	2
 3846              		.set	.LANCHOR25,. + 0
 3849              	hatEnv:
 3850 0000 00000000 		.space	56
 3850      00000000 
 3850      00000000 
 3850      00000000 
 3850      00000000 
 3851              		.section	.bss.hats,"aw",%nobits
 3852              		.align	2
 3853              		.set	.LANCHOR1,. + 0
 3856              	hats:
 3857 0000 00000000 		.space	8
 3857      00000000 
 3858              		.section	.bss.kick,"aw",%nobits
 3859              		.align	2
 3860              		.set	.LANCHOR10,. + 0
 3863              	kick:
 3864 0000 00000000 		.space	152
 3864      00000000 
ARM GAS  /var/folders/b5/3l92j93d5t1__l78tfntmwyr0000gn/T//ccqKg67w.s 			page 113


 3864      00000000 
 3864      00000000 
 3864      00000000 
 3865              		.section	.bss.kickEnv,"aw",%nobits
 3866              		.align	2
 3867              		.set	.LANCHOR23,. + 0
 3870              	kickEnv:
 3871 0000 00000000 		.space	56
 3871      00000000 
 3871      00000000 
 3871      00000000 
 3871      00000000 
 3872              		.section	.bss.kicks,"aw",%nobits
 3873              		.align	2
 3874              		.set	.LANCHOR2,. + 0
 3877              	kicks:
 3878 0000 00000000 		.space	8
 3878      00000000 
 3879              		.section	.bss.lastDebounceTime,"aw",%nobits
 3880              		.align	2
 3881              		.set	.LANCHOR8,. + 0
 3884              	lastDebounceTime:
 3885 0000 00000000 		.space	4
 3886              		.section	.bss.onSwitchValue,"aw",%nobits
 3887              		.align	2
 3888              		.set	.LANCHOR18,. + 0
 3891              	onSwitchValue:
 3892 0000 00000000 		.space	4
 3893              		.section	.bss.patternIn,"aw",%nobits
 3894              		.set	.LANCHOR4,. + 0
 3897              	patternIn:
 3898 0000 00       		.space	1
 3899              		.section	.bss.selector,"aw",%nobits
 3900              		.align	2
 3901              		.set	.LANCHOR13,. + 0
 3904              	selector:
 3905 0000 00000000 		.space	16
 3905      00000000 
 3905      00000000 
 3905      00000000 
 3906              		.section	.bss.snare,"aw",%nobits
 3907              		.align	2
 3908              		.set	.LANCHOR20,. + 0
 3911              	snare:
 3912 0000 00000000 		.space	284
 3912      00000000 
 3912      00000000 
 3912      00000000 
 3912      00000000 
 3913              		.section	.bss.snareEnv,"aw",%nobits
 3914              		.align	2
 3915              		.set	.LANCHOR24,. + 0
 3918              	snareEnv:
 3919 0000 00000000 		.space	56
 3919      00000000 
 3919      00000000 
 3919      00000000 
ARM GAS  /var/folders/b5/3l92j93d5t1__l78tfntmwyr0000gn/T//ccqKg67w.s 			page 114


 3919      00000000 
 3920              		.section	.bss.snares,"aw",%nobits
 3921              		.align	2
 3922              		.set	.LANCHOR3,. + 0
 3925              	snares:
 3926 0000 00000000 		.space	8
 3926      00000000 
 3927              		.section	.bss.step,"aw",%nobits
 3928              		.align	2
 3929              		.set	.LANCHOR21,. + 0
 3932              	step:
 3933 0000 00000000 		.space	4
 3934              		.section	.bss.synthEnv,"aw",%nobits
 3935              		.align	2
 3936              		.set	.LANCHOR26,. + 0
 3939              	synthEnv:
 3940 0000 00000000 		.space	56
 3940      00000000 
 3940      00000000 
 3940      00000000 
 3940      00000000 
 3941              		.section	.bss.synthKick,"aw",%nobits
 3942              		.align	2
 3943              		.set	.LANCHOR12,. + 0
 3946              	synthKick:
 3947 0000 00000000 		.space	180
 3947      00000000 
 3947      00000000 
 3947      00000000 
 3947      00000000 
 3948              		.section	.bss.synths,"aw",%nobits
 3949              		.align	2
 3950              		.set	.LANCHOR0,. + 0
 3953              	synths:
 3954 0000 00000000 		.space	8
 3954      00000000 
 3955              		.section	.bss.tempoKnobValue,"aw",%nobits
 3956              		.align	2
 3957              		.set	.LANCHOR17,. + 0
 3960              	tempoKnobValue:
 3961 0000 00000000 		.space	4
 3962              		.section	.bss.tempoModON,"aw",%nobits
 3963              		.align	2
 3964              		.set	.LANCHOR14,. + 0
 3967              	tempoModON:
 3968 0000 00000000 		.space	16
 3968      00000000 
 3968      00000000 
 3968      00000000 
 3969              		.section	.bss.tempoMult,"aw",%nobits
 3970              		.align	2
 3971              		.set	.LANCHOR16,. + 0
 3974              	tempoMult:
 3975 0000 00000000 		.space	4
 3976              		.section	.bss.tick,"aw",%nobits
 3977              		.align	2
 3978              		.set	.LANCHOR19,. + 0
ARM GAS  /var/folders/b5/3l92j93d5t1__l78tfntmwyr0000gn/T//ccqKg67w.s 			page 115


 3981              	tick:
 3982 0000 00000000 		.space	16
 3982      00000000 
 3982      00000000 
 3982      00000000 
 3983              		.section	.data.debounceDelay,"aw"
 3984              		.align	2
 3985              		.set	.LANCHOR9,. + 0
 3988              	debounceDelay:
 3989 0000 A0860100 		.word	100000
 3990              		.section	.data.delFeedback,"aw"
 3991              		.align	2
 3994              	delFeedback:
 3995 0000 0000003F 		.word	1056964608
 3996              		.section	.data.delTime,"aw"
 3997              		.align	2
 4000              	delTime:
 4001 0000 00803B46 		.word	1178304512
 4002              		.section	.data.delWet,"aw"
 4003              		.align	2
 4006              	delWet:
 4007 0000 0000003F 		.word	1056964608
 4008              		.section	.data.tempoMode,"aw"
 4009              		.set	.LANCHOR15,. + 0
 4012              	tempoMode:
 4013 0000 01       		.byte	1
 4014              		.text
 4015              	.Letext0:
 4016              		.file 20 "/Library/DaisyToolchain/0.2.0/arm/arm-none-eabi/include/machine/_default_types.h"
 4017              		.file 21 "/Library/DaisyToolchain/0.2.0/arm/arm-none-eabi/include/sys/_stdint.h"
 4018              		.file 22 "/Library/DaisyToolchain/0.2.0/arm/arm-none-eabi/include/stdint.h"
 4019              		.file 23 "/Library/DaisyToolchain/0.2.0/arm/lib/gcc/arm-none-eabi/10.3.1/include/stddef.h"
 4020              		.file 24 "/Library/DaisyToolchain/0.2.0/arm/arm-none-eabi/include/c++/10.3.1/cmath"
 4021              		.file 25 "/Library/DaisyToolchain/0.2.0/arm/arm-none-eabi/include/c++/10.3.1/bits/std_abs.h"
 4022              		.file 26 "/Library/DaisyToolchain/0.2.0/arm/arm-none-eabi/include/c++/10.3.1/cstdlib"
 4023              		.file 27 "/Library/DaisyToolchain/0.2.0/arm/arm-none-eabi/include/c++/10.3.1/cstdint"
 4024              		.file 28 "/Library/DaisyToolchain/0.2.0/arm/arm-none-eabi/include/c++/10.3.1/type_traits"
 4025              		.file 29 "/Library/DaisyToolchain/0.2.0/arm/arm-none-eabi/include/c++/10.3.1/debug/debug.h"
 4026              		.file 30 "/Library/DaisyToolchain/0.2.0/arm/arm-none-eabi/include/c++/10.3.1/arm-none-eabi/thumb/v
 4027              		.file 31 "/Library/DaisyToolchain/0.2.0/arm/arm-none-eabi/include/c++/10.3.1/bits/algorithmfwd.h"
 4028              		.file 32 "/Library/DaisyToolchain/0.2.0/arm/arm-none-eabi/include/c++/10.3.1/bits/stl_pair.h"
 4029              		.file 33 "/Library/DaisyToolchain/0.2.0/arm/arm-none-eabi/include/c++/10.3.1/bits/exception_ptr.h"
 4030              		.file 34 "/Library/DaisyToolchain/0.2.0/arm/arm-none-eabi/include/c++/10.3.1/cstdarg"
 4031              		.file 35 "/Library/DaisyToolchain/0.2.0/arm/arm-none-eabi/include/c++/10.3.1/cstdio"
 4032              		.file 36 "/Library/DaisyToolchain/0.2.0/arm/arm-none-eabi/include/c++/10.3.1/cstring"
 4033              		.file 37 "/Library/DaisyToolchain/0.2.0/arm/arm-none-eabi/include/c++/10.3.1/cwchar"
 4034              		.file 38 "/Library/DaisyToolchain/0.2.0/arm/arm-none-eabi/include/c++/10.3.1/clocale"
 4035              		.file 39 "/Library/DaisyToolchain/0.2.0/arm/arm-none-eabi/include/c++/10.3.1/bits/basic_string.h"
 4036              		.file 40 "/Library/DaisyToolchain/0.2.0/arm/arm-none-eabi/include/c++/10.3.1/bits/stl_iterator.h"
 4037              		.file 41 "/Library/DaisyToolchain/0.2.0/arm/arm-none-eabi/include/c++/10.3.1/bits/predefined_ops.h
 4038              		.file 42 "/Library/DaisyToolchain/0.2.0/arm/arm-none-eabi/include/sys/_types.h"
 4039              		.file 43 "/Library/DaisyToolchain/0.2.0/arm/arm-none-eabi/include/sys/reent.h"
 4040              		.file 44 "/Library/DaisyToolchain/0.2.0/arm/arm-none-eabi/include/sys/lock.h"
 4041              		.file 45 "/Library/DaisyToolchain/0.2.0/arm/arm-none-eabi/include/math.h"
 4042              		.file 46 "/Library/DaisyToolchain/0.2.0/arm/arm-none-eabi/include/stdlib.h"
 4043              		.file 47 "/Library/DaisyToolchain/0.2.0/arm/arm-none-eabi/include/c++/10.3.1/math.h"
 4044              		.file 48 "/Library/DaisyToolchain/0.2.0/arm/arm-none-eabi/include/c++/10.3.1/stdlib.h"
ARM GAS  /var/folders/b5/3l92j93d5t1__l78tfntmwyr0000gn/T//ccqKg67w.s 			page 116


 4045              		.file 49 "../../DaisyExamples/libDaisy//src/per/tim.h"
 4046              		.file 50 "../../DaisyExamples/libDaisy//src/per/sai.h"
 4047              		.file 51 "../../DaisyExamples/libDaisy//src/util/wav_format.h"
 4048              		.file 52 "../../DaisyExamples/libDaisy//src/dev/max11300.h"
 4049              		.file 53 "../../DaisyExamples/libDaisy//src/per/gpio.h"
 4050              		.file 54 "../../DaisyExamples/libDaisy//src/dev/sdram.h"
 4051              		.file 55 "/Library/DaisyToolchain/0.2.0/arm/lib/gcc/arm-none-eabi/10.3.1/include/stdarg.h"
 4052              		.file 56 "/Library/DaisyToolchain/0.2.0/arm/arm-none-eabi/include/stdio.h"
 4053              		.file 57 "/Library/DaisyToolchain/0.2.0/arm/arm-none-eabi/include/string.h"
 4054              		.file 58 "/Library/DaisyToolchain/0.2.0/arm/arm-none-eabi/include/wchar.h"
 4055              		.file 59 "/Library/DaisyToolchain/0.2.0/arm/arm-none-eabi/include/locale.h"
 4056              		.file 60 "<built-in>"
 4057              		.file 61 "../../DaisyExamples/libDaisy//src/dev/sr_595.h"
ARM GAS  /var/folders/b5/3l92j93d5t1__l78tfntmwyr0000gn/T//ccqKg67w.s 			page 117


DEFINED SYMBOLS
                            *ABS*:0000000000000000 MachineDaisyFile.cpp
/var/folders/b5/3l92j93d5t1__l78tfntmwyr0000gn/T//ccqKg67w.s:19     .text._ZN5daisy9AdcHandleD2Ev:0000000000000000 $t
/var/folders/b5/3l92j93d5t1__l78tfntmwyr0000gn/T//ccqKg67w.s:26     .text._ZN5daisy9AdcHandleD2Ev:0000000000000000 _ZN5daisy9AdcHandleD2Ev
/var/folders/b5/3l92j93d5t1__l78tfntmwyr0000gn/T//ccqKg67w.s:26     .text._ZN5daisy9AdcHandleD2Ev:0000000000000000 _ZN5daisy9AdcHandleD1Ev
/var/folders/b5/3l92j93d5t1__l78tfntmwyr0000gn/T//ccqKg67w.s:43     .text._ZN5daisy6SwitchD2Ev:0000000000000000 $t
/var/folders/b5/3l92j93d5t1__l78tfntmwyr0000gn/T//ccqKg67w.s:50     .text._ZN5daisy6SwitchD2Ev:0000000000000000 _ZN5daisy6SwitchD2Ev
/var/folders/b5/3l92j93d5t1__l78tfntmwyr0000gn/T//ccqKg67w.s:50     .text._ZN5daisy6SwitchD2Ev:0000000000000000 _ZN5daisy6SwitchD1Ev
/var/folders/b5/3l92j93d5t1__l78tfntmwyr0000gn/T//ccqKg67w.s:67     .text._ZN5daisy9DaisySeedD2Ev:0000000000000000 $t
/var/folders/b5/3l92j93d5t1__l78tfntmwyr0000gn/T//ccqKg67w.s:74     .text._ZN5daisy9DaisySeedD2Ev:0000000000000000 _ZN5daisy9DaisySeedD2Ev
/var/folders/b5/3l92j93d5t1__l78tfntmwyr0000gn/T//ccqKg67w.s:74     .text._ZN5daisy9DaisySeedD2Ev:0000000000000000 _ZN5daisy9DaisySeedD1Ev
/var/folders/b5/3l92j93d5t1__l78tfntmwyr0000gn/T//ccqKg67w.s:114    .text._ZN7daisysp5AdEnvD2Ev:0000000000000000 $t
/var/folders/b5/3l92j93d5t1__l78tfntmwyr0000gn/T//ccqKg67w.s:121    .text._ZN7daisysp5AdEnvD2Ev:0000000000000000 _ZN7daisysp5AdEnvD2Ev
/var/folders/b5/3l92j93d5t1__l78tfntmwyr0000gn/T//ccqKg67w.s:121    .text._ZN7daisysp5AdEnvD2Ev:0000000000000000 _ZN7daisysp5AdEnvD1Ev
/var/folders/b5/3l92j93d5t1__l78tfntmwyr0000gn/T//ccqKg67w.s:138    .text._ZN7daisysp14AnalogBassDrumD2Ev:0000000000000000 $t
/var/folders/b5/3l92j93d5t1__l78tfntmwyr0000gn/T//ccqKg67w.s:145    .text._ZN7daisysp14AnalogBassDrumD2Ev:0000000000000000 _ZN7daisysp14AnalogBassDrumD2Ev
/var/folders/b5/3l92j93d5t1__l78tfntmwyr0000gn/T//ccqKg67w.s:145    .text._ZN7daisysp14AnalogBassDrumD2Ev:0000000000000000 _ZN7daisysp14AnalogBassDrumD1Ev
/var/folders/b5/3l92j93d5t1__l78tfntmwyr0000gn/T//ccqKg67w.s:168    .text._ZN7daisysp17SyntheticBassDrumD2Ev:0000000000000000 $t
/var/folders/b5/3l92j93d5t1__l78tfntmwyr0000gn/T//ccqKg67w.s:175    .text._ZN7daisysp17SyntheticBassDrumD2Ev:0000000000000000 _ZN7daisysp17SyntheticBassDrumD2Ev
/var/folders/b5/3l92j93d5t1__l78tfntmwyr0000gn/T//ccqKg67w.s:175    .text._ZN7daisysp17SyntheticBassDrumD2Ev:0000000000000000 _ZN7daisysp17SyntheticBassDrumD1Ev
/var/folders/b5/3l92j93d5t1__l78tfntmwyr0000gn/T//ccqKg67w.s:206    .text._ZN7daisysp18SyntheticSnareDrumD2Ev:0000000000000000 $t
/var/folders/b5/3l92j93d5t1__l78tfntmwyr0000gn/T//ccqKg67w.s:213    .text._ZN7daisysp18SyntheticSnareDrumD2Ev:0000000000000000 _ZN7daisysp18SyntheticSnareDrumD2Ev
/var/folders/b5/3l92j93d5t1__l78tfntmwyr0000gn/T//ccqKg67w.s:213    .text._ZN7daisysp18SyntheticSnareDrumD2Ev:0000000000000000 _ZN7daisysp18SyntheticSnareDrumD1Ev
/var/folders/b5/3l92j93d5t1__l78tfntmwyr0000gn/T//ccqKg67w.s:245    .text._ZN7daisysp5MetroD2Ev:0000000000000000 $t
/var/folders/b5/3l92j93d5t1__l78tfntmwyr0000gn/T//ccqKg67w.s:252    .text._ZN7daisysp5MetroD2Ev:0000000000000000 _ZN7daisysp5MetroD2Ev
/var/folders/b5/3l92j93d5t1__l78tfntmwyr0000gn/T//ccqKg67w.s:252    .text._ZN7daisysp5MetroD2Ev:0000000000000000 _ZN7daisysp5MetroD1Ev
/var/folders/b5/3l92j93d5t1__l78tfntmwyr0000gn/T//ccqKg67w.s:269    .text._ZN7daisysp5HiHatINS_11SquareNoiseENS_9LinearVCAELb1EED2Ev:0000000000000000 $t
/var/folders/b5/3l92j93d5t1__l78tfntmwyr0000gn/T//ccqKg67w.s:276    .text._ZN7daisysp5HiHatINS_11SquareNoiseENS_9LinearVCAELb1EED2Ev:0000000000000000 _ZN7daisysp5HiHatINS_11SquareNoiseENS_9LinearVCAELb1EED2Ev
/var/folders/b5/3l92j93d5t1__l78tfntmwyr0000gn/T//ccqKg67w.s:276    .text._ZN7daisysp5HiHatINS_11SquareNoiseENS_9LinearVCAELb1EED2Ev:0000000000000000 _ZN7daisysp5HiHatINS_11SquareNoiseENS_9LinearVCAELb1EED1Ev
/var/folders/b5/3l92j93d5t1__l78tfntmwyr0000gn/T//ccqKg67w.s:308    .text._Z12clearPatternv:0000000000000000 $t
/var/folders/b5/3l92j93d5t1__l78tfntmwyr0000gn/T//ccqKg67w.s:315    .text._Z12clearPatternv:0000000000000000 _Z12clearPatternv
/var/folders/b5/3l92j93d5t1__l78tfntmwyr0000gn/T//ccqKg67w.s:369    .text._Z12clearPatternv:0000000000000028 $d
/var/folders/b5/3l92j93d5t1__l78tfntmwyr0000gn/T//ccqKg67w.s:378    .text._Z15isButtonPressedi:0000000000000000 $t
/var/folders/b5/3l92j93d5t1__l78tfntmwyr0000gn/T//ccqKg67w.s:385    .text._Z15isButtonPressedi:0000000000000000 _Z15isButtonPressedi
/var/folders/b5/3l92j93d5t1__l78tfntmwyr0000gn/T//ccqKg67w.s:642    .text._Z15isButtonPressedi:0000000000000190 $d
/var/folders/b5/3l92j93d5t1__l78tfntmwyr0000gn/T//ccqKg67w.s:659    .text._Z14processButtonsv.part.0:0000000000000000 $t
/var/folders/b5/3l92j93d5t1__l78tfntmwyr0000gn/T//ccqKg67w.s:665    .text._Z14processButtonsv.part.0:0000000000000000 _Z14processButtonsv.part.0
/var/folders/b5/3l92j93d5t1__l78tfntmwyr0000gn/T//ccqKg67w.s:716    .text._Z14processButtonsv.part.0:000000000000002a $d
/var/folders/b5/3l92j93d5t1__l78tfntmwyr0000gn/T//ccqKg67w.s:720    .text._Z14processButtonsv.part.0:000000000000002e $t
/var/folders/b5/3l92j93d5t1__l78tfntmwyr0000gn/T//ccqKg67w.s:795    .text._Z14processButtonsv.part.0:0000000000000074 $d
/var/folders/b5/3l92j93d5t1__l78tfntmwyr0000gn/T//ccqKg67w.s:808    .text._Z14processButtonsv:0000000000000000 $t
/var/folders/b5/3l92j93d5t1__l78tfntmwyr0000gn/T//ccqKg67w.s:815    .text._Z14processButtonsv:0000000000000000 _Z14processButtonsv
/var/folders/b5/3l92j93d5t1__l78tfntmwyr0000gn/T//ccqKg67w.s:860    .text._Z14processButtonsv:0000000000000020 $d
/var/folders/b5/3l92j93d5t1__l78tfntmwyr0000gn/T//ccqKg67w.s:866    .text._Z13setDrumParamsv:0000000000000000 $t
/var/folders/b5/3l92j93d5t1__l78tfntmwyr0000gn/T//ccqKg67w.s:873    .text._Z13setDrumParamsv:0000000000000000 _Z13setDrumParamsv
/var/folders/b5/3l92j93d5t1__l78tfntmwyr0000gn/T//ccqKg67w.s:1134   .text._Z13setDrumParamsv:0000000000000080 $d
/var/folders/b5/3l92j93d5t1__l78tfntmwyr0000gn/T//ccqKg67w.s:1151   .text._Z14digitalButtonsv:0000000000000000 $t
/var/folders/b5/3l92j93d5t1__l78tfntmwyr0000gn/T//ccqKg67w.s:1158   .text._Z14digitalButtonsv:0000000000000000 _Z14digitalButtonsv
/var/folders/b5/3l92j93d5t1__l78tfntmwyr0000gn/T//ccqKg67w.s:1446   .text._Z14digitalButtonsv:00000000000000e0 $d
/var/folders/b5/3l92j93d5t1__l78tfntmwyr0000gn/T//ccqKg67w.s:1461   .text._Z20processKnobAndSwitchv:0000000000000000 $t
/var/folders/b5/3l92j93d5t1__l78tfntmwyr0000gn/T//ccqKg67w.s:1468   .text._Z20processKnobAndSwitchv:0000000000000000 _Z20processKnobAndSwitchv
/var/folders/b5/3l92j93d5t1__l78tfntmwyr0000gn/T//ccqKg67w.s:1661   .text._Z20processKnobAndSwitchv:0000000000000074 $d
/var/folders/b5/3l92j93d5t1__l78tfntmwyr0000gn/T//ccqKg67w.s:1674   .text._Z9initDrumsv:0000000000000000 $t
/var/folders/b5/3l92j93d5t1__l78tfntmwyr0000gn/T//ccqKg67w.s:1681   .text._Z9initDrumsv:0000000000000000 _Z9initDrumsv
/var/folders/b5/3l92j93d5t1__l78tfntmwyr0000gn/T//ccqKg67w.s:2211   .text._Z9initDrumsv:00000000000000f8 $d
/var/folders/b5/3l92j93d5t1__l78tfntmwyr0000gn/T//ccqKg67w.s:2229   .text._Z12initControlsv:0000000000000000 $t
/var/folders/b5/3l92j93d5t1__l78tfntmwyr0000gn/T//ccqKg67w.s:2236   .text._Z12initControlsv:0000000000000000 _Z12initControlsv
ARM GAS  /var/folders/b5/3l92j93d5t1__l78tfntmwyr0000gn/T//ccqKg67w.s 			page 118


/var/folders/b5/3l92j93d5t1__l78tfntmwyr0000gn/T//ccqKg67w.s:2425   .text._Z12initControlsv:0000000000000090 $d
/var/folders/b5/3l92j93d5t1__l78tfntmwyr0000gn/T//ccqKg67w.s:2432   .text.startup.main:0000000000000000 $t
/var/folders/b5/3l92j93d5t1__l78tfntmwyr0000gn/T//ccqKg67w.s:2439   .text.startup.main:0000000000000000 main
/var/folders/b5/3l92j93d5t1__l78tfntmwyr0000gn/T//ccqKg67w.s:2501   .text.startup.main:0000000000000040 $d
/var/folders/b5/3l92j93d5t1__l78tfntmwyr0000gn/T//ccqKg67w.s:3313   .text._Z13AudioCallbackPKPKfPPfj:0000000000000000 _Z13AudioCallbackPKPKfPPfj
/var/folders/b5/3l92j93d5t1__l78tfntmwyr0000gn/T//ccqKg67w.s:2508   .text._ZN7daisysp5HiHatINS_11SquareNoiseENS_9LinearVCAELb1EE7ProcessEb:0000000000000000 $t
/var/folders/b5/3l92j93d5t1__l78tfntmwyr0000gn/T//ccqKg67w.s:2515   .text._ZN7daisysp5HiHatINS_11SquareNoiseENS_9LinearVCAELb1EE7ProcessEb:0000000000000000 _ZN7daisysp5HiHatINS_11SquareNoiseENS_9LinearVCAELb1EE7ProcessEb
/var/folders/b5/3l92j93d5t1__l78tfntmwyr0000gn/T//ccqKg67w.s:3013   .text._ZN7daisysp5HiHatINS_11SquareNoiseENS_9LinearVCAELb1EE7ProcessEb:000000000000020c $d
/var/folders/b5/3l92j93d5t1__l78tfntmwyr0000gn/T//ccqKg67w.s:3029   .text._Z16processSequencerv:0000000000000000 $t
/var/folders/b5/3l92j93d5t1__l78tfntmwyr0000gn/T//ccqKg67w.s:3036   .text._Z16processSequencerv:0000000000000000 _Z16processSequencerv
/var/folders/b5/3l92j93d5t1__l78tfntmwyr0000gn/T//ccqKg67w.s:3292   .text._Z16processSequencerv:0000000000000114 $d
/var/folders/b5/3l92j93d5t1__l78tfntmwyr0000gn/T//ccqKg67w.s:3306   .text._Z13AudioCallbackPKPKfPPfj:0000000000000000 $t
/var/folders/b5/3l92j93d5t1__l78tfntmwyr0000gn/T//ccqKg67w.s:3417   .text._Z13AudioCallbackPKPKfPPfj:0000000000000050 $d
/var/folders/b5/3l92j93d5t1__l78tfntmwyr0000gn/T//ccqKg67w.s:3423   .text.startup._GLOBAL__sub_I_drumMode:0000000000000000 $t
/var/folders/b5/3l92j93d5t1__l78tfntmwyr0000gn/T//ccqKg67w.s:3429   .text.startup._GLOBAL__sub_I_drumMode:0000000000000000 _GLOBAL__sub_I_drumMode
/var/folders/b5/3l92j93d5t1__l78tfntmwyr0000gn/T//ccqKg67w.s:3750   .text.startup._GLOBAL__sub_I_drumMode:0000000000000098 $d
/var/folders/b5/3l92j93d5t1__l78tfntmwyr0000gn/T//ccqKg67w.s:3779   .init_array:0000000000000000 $d
/var/folders/b5/3l92j93d5t1__l78tfntmwyr0000gn/T//ccqKg67w.s:4006   .data.delWet:0000000000000000 delWet
/var/folders/b5/3l92j93d5t1__l78tfntmwyr0000gn/T//ccqKg67w.s:4000   .data.delTime:0000000000000000 delTime
/var/folders/b5/3l92j93d5t1__l78tfntmwyr0000gn/T//ccqKg67w.s:3994   .data.delFeedback:0000000000000000 delFeedback
/var/folders/b5/3l92j93d5t1__l78tfntmwyr0000gn/T//ccqKg67w.s:3884   .bss.lastDebounceTime:0000000000000000 lastDebounceTime
/var/folders/b5/3l92j93d5t1__l78tfntmwyr0000gn/T//ccqKg67w.s:3988   .data.debounceDelay:0000000000000000 debounceDelay
/var/folders/b5/3l92j93d5t1__l78tfntmwyr0000gn/T//ccqKg67w.s:3974   .bss.tempoMult:0000000000000000 tempoMult
/var/folders/b5/3l92j93d5t1__l78tfntmwyr0000gn/T//ccqKg67w.s:3891   .bss.onSwitchValue:0000000000000000 onSwitchValue
/var/folders/b5/3l92j93d5t1__l78tfntmwyr0000gn/T//ccqKg67w.s:3960   .bss.tempoKnobValue:0000000000000000 tempoKnobValue
/var/folders/b5/3l92j93d5t1__l78tfntmwyr0000gn/T//ccqKg67w.s:4012   .data.tempoMode:0000000000000000 tempoMode
/var/folders/b5/3l92j93d5t1__l78tfntmwyr0000gn/T//ccqKg67w.s:3897   .bss.patternIn:0000000000000000 patternIn
/var/folders/b5/3l92j93d5t1__l78tfntmwyr0000gn/T//ccqKg67w.s:3932   .bss.step:0000000000000000 step
/var/folders/b5/3l92j93d5t1__l78tfntmwyr0000gn/T//ccqKg67w.s:3953   .bss.synths:0000000000000000 synths
/var/folders/b5/3l92j93d5t1__l78tfntmwyr0000gn/T//ccqKg67w.s:3856   .bss.hats:0000000000000000 hats
/var/folders/b5/3l92j93d5t1__l78tfntmwyr0000gn/T//ccqKg67w.s:3877   .bss.kicks:0000000000000000 kicks
/var/folders/b5/3l92j93d5t1__l78tfntmwyr0000gn/T//ccqKg67w.s:3925   .bss.snares:0000000000000000 snares
/var/folders/b5/3l92j93d5t1__l78tfntmwyr0000gn/T//ccqKg67w.s:3939   .bss.synthEnv:0000000000000000 synthEnv
/var/folders/b5/3l92j93d5t1__l78tfntmwyr0000gn/T//ccqKg67w.s:3849   .bss.hatEnv:0000000000000000 hatEnv
/var/folders/b5/3l92j93d5t1__l78tfntmwyr0000gn/T//ccqKg67w.s:3918   .bss.snareEnv:0000000000000000 snareEnv
/var/folders/b5/3l92j93d5t1__l78tfntmwyr0000gn/T//ccqKg67w.s:3870   .bss.kickEnv:0000000000000000 kickEnv
/var/folders/b5/3l92j93d5t1__l78tfntmwyr0000gn/T//ccqKg67w.s:3911   .bss.snare:0000000000000000 snare
/var/folders/b5/3l92j93d5t1__l78tfntmwyr0000gn/T//ccqKg67w.s:3946   .bss.synthKick:0000000000000000 synthKick
/var/folders/b5/3l92j93d5t1__l78tfntmwyr0000gn/T//ccqKg67w.s:3842   .bss.hat:0000000000000000 hat
/var/folders/b5/3l92j93d5t1__l78tfntmwyr0000gn/T//ccqKg67w.s:3863   .bss.kick:0000000000000000 kick
/var/folders/b5/3l92j93d5t1__l78tfntmwyr0000gn/T//ccqKg67w.s:3981   .bss.tick:0000000000000000 tick
/var/folders/b5/3l92j93d5t1__l78tfntmwyr0000gn/T//ccqKg67w.s:3828   .bss.buttonValue:0000000000000000 buttonValue
/var/folders/b5/3l92j93d5t1__l78tfntmwyr0000gn/T//ccqKg67w.s:3967   .bss.tempoModON:0000000000000000 tempoModON
/var/folders/b5/3l92j93d5t1__l78tfntmwyr0000gn/T//ccqKg67w.s:3904   .bss.selector:0000000000000000 selector
/var/folders/b5/3l92j93d5t1__l78tfntmwyr0000gn/T//ccqKg67w.s:3835   .bss.drumMode:0000000000000000 drumMode
/var/folders/b5/3l92j93d5t1__l78tfntmwyr0000gn/T//ccqKg67w.s:3810   .bss._ZL2hw:0000000000000000 $d
/var/folders/b5/3l92j93d5t1__l78tfntmwyr0000gn/T//ccqKg67w.s:3814   .bss._ZL2hw:0000000000000000 _ZL2hw
/var/folders/b5/3l92j93d5t1__l78tfntmwyr0000gn/T//ccqKg67w.s:3817   .bss._ZL3adc:0000000000000000 $d
/var/folders/b5/3l92j93d5t1__l78tfntmwyr0000gn/T//ccqKg67w.s:3821   .bss._ZL3adc:0000000000000000 _ZL3adc
/var/folders/b5/3l92j93d5t1__l78tfntmwyr0000gn/T//ccqKg67w.s:3824   .bss.buttonValue:0000000000000000 $d
/var/folders/b5/3l92j93d5t1__l78tfntmwyr0000gn/T//ccqKg67w.s:3831   .bss.drumMode:0000000000000000 $d
/var/folders/b5/3l92j93d5t1__l78tfntmwyr0000gn/T//ccqKg67w.s:3838   .bss.hat:0000000000000000 $d
/var/folders/b5/3l92j93d5t1__l78tfntmwyr0000gn/T//ccqKg67w.s:3845   .bss.hatEnv:0000000000000000 $d
/var/folders/b5/3l92j93d5t1__l78tfntmwyr0000gn/T//ccqKg67w.s:3852   .bss.hats:0000000000000000 $d
/var/folders/b5/3l92j93d5t1__l78tfntmwyr0000gn/T//ccqKg67w.s:3859   .bss.kick:0000000000000000 $d
/var/folders/b5/3l92j93d5t1__l78tfntmwyr0000gn/T//ccqKg67w.s:3866   .bss.kickEnv:0000000000000000 $d
/var/folders/b5/3l92j93d5t1__l78tfntmwyr0000gn/T//ccqKg67w.s:3873   .bss.kicks:0000000000000000 $d
ARM GAS  /var/folders/b5/3l92j93d5t1__l78tfntmwyr0000gn/T//ccqKg67w.s 			page 119


/var/folders/b5/3l92j93d5t1__l78tfntmwyr0000gn/T//ccqKg67w.s:3880   .bss.lastDebounceTime:0000000000000000 $d
/var/folders/b5/3l92j93d5t1__l78tfntmwyr0000gn/T//ccqKg67w.s:3887   .bss.onSwitchValue:0000000000000000 $d
/var/folders/b5/3l92j93d5t1__l78tfntmwyr0000gn/T//ccqKg67w.s:3898   .bss.patternIn:0000000000000000 $d
/var/folders/b5/3l92j93d5t1__l78tfntmwyr0000gn/T//ccqKg67w.s:3900   .bss.selector:0000000000000000 $d
/var/folders/b5/3l92j93d5t1__l78tfntmwyr0000gn/T//ccqKg67w.s:3907   .bss.snare:0000000000000000 $d
/var/folders/b5/3l92j93d5t1__l78tfntmwyr0000gn/T//ccqKg67w.s:3914   .bss.snareEnv:0000000000000000 $d
/var/folders/b5/3l92j93d5t1__l78tfntmwyr0000gn/T//ccqKg67w.s:3921   .bss.snares:0000000000000000 $d
/var/folders/b5/3l92j93d5t1__l78tfntmwyr0000gn/T//ccqKg67w.s:3928   .bss.step:0000000000000000 $d
/var/folders/b5/3l92j93d5t1__l78tfntmwyr0000gn/T//ccqKg67w.s:3935   .bss.synthEnv:0000000000000000 $d
/var/folders/b5/3l92j93d5t1__l78tfntmwyr0000gn/T//ccqKg67w.s:3942   .bss.synthKick:0000000000000000 $d
/var/folders/b5/3l92j93d5t1__l78tfntmwyr0000gn/T//ccqKg67w.s:3949   .bss.synths:0000000000000000 $d
/var/folders/b5/3l92j93d5t1__l78tfntmwyr0000gn/T//ccqKg67w.s:3956   .bss.tempoKnobValue:0000000000000000 $d
/var/folders/b5/3l92j93d5t1__l78tfntmwyr0000gn/T//ccqKg67w.s:3963   .bss.tempoModON:0000000000000000 $d
/var/folders/b5/3l92j93d5t1__l78tfntmwyr0000gn/T//ccqKg67w.s:3970   .bss.tempoMult:0000000000000000 $d
/var/folders/b5/3l92j93d5t1__l78tfntmwyr0000gn/T//ccqKg67w.s:3977   .bss.tick:0000000000000000 $d
/var/folders/b5/3l92j93d5t1__l78tfntmwyr0000gn/T//ccqKg67w.s:3984   .data.debounceDelay:0000000000000000 $d
/var/folders/b5/3l92j93d5t1__l78tfntmwyr0000gn/T//ccqKg67w.s:3991   .data.delFeedback:0000000000000000 $d
/var/folders/b5/3l92j93d5t1__l78tfntmwyr0000gn/T//ccqKg67w.s:3997   .data.delTime:0000000000000000 $d
/var/folders/b5/3l92j93d5t1__l78tfntmwyr0000gn/T//ccqKg67w.s:4003   .data.delWet:0000000000000000 $d
                           .group:0000000000000000 _ZN5daisy9AdcHandleD5Ev
                           .group:0000000000000000 _ZN5daisy6SwitchD5Ev
                           .group:0000000000000000 _ZN5daisy9DaisySeedD5Ev
                           .group:0000000000000000 _ZN7daisysp5AdEnvD5Ev
                           .group:0000000000000000 _ZN7daisysp14AnalogBassDrumD5Ev
                           .group:0000000000000000 _ZN7daisysp17SyntheticBassDrumD5Ev
                           .group:0000000000000000 _ZN7daisysp18SyntheticSnareDrumD5Ev
                           .group:0000000000000000 _ZN7daisysp5MetroD5Ev
                           .group:0000000000000000 _ZN7daisysp5HiHatINS_11SquareNoiseENS_9LinearVCAELb1EED5Ev

UNDEFINED SYMBOLS
_ZNK5daisy9AdcHandle8GetFloatEh
_ZN5daisy6System5GetUsEv
_ZN7daisysp14AnalogBassDrum7SetFreqEf
_ZN7daisysp17SyntheticBassDrum9SetAccentEf
_ZN7daisysp17SyntheticBassDrum12SetDirtinessEf
_ZN7daisysp17SyntheticBassDrum8SetDecayEf
_ZN7daisysp17SyntheticBassDrum7SetFreqEf
_ZN5daisy6Switch8DebounceEv
_ZN5daisy6System6GetNowEv
_ZN7daisysp5Metro7SetFreqEf
_ZN5daisy9DaisySeed15AudioSampleRateEv
_ZN7daisysp5Metro4InitEff
_ZN7daisysp14AnalogBassDrum4InitEf
_ZN7daisysp18SyntheticSnareDrum4InitEf
_ZN7daisysp11SquareNoise4InitEf
_ZN7daisysp3Svf4InitEf
_ZN7daisysp17SyntheticBassDrum4InitEf
_ZNK5daisy9DaisySeed17AudioCallbackRateEv
_ZN5daisy6Switch4InitE12dsy_gpio_pinf
_ZN5daisy16AdcChannelConfig10InitSingleE12dsy_gpio_pin
_ZN5daisy9AdcHandle4InitEPNS_16AdcChannelConfigEjNS0_12OverSamplingE
_ZN5daisy9AdcHandle5StartEv
_ZN5daisy9DaisySeed4InitEb
_ZN5daisy9DaisySeed17SetAudioBlockSizeEj
_ZN5daisy9DaisySeed18SetAudioSampleRateENS_9SaiHandle6Config10SampleRateE
_ZN5daisy9DaisySeed6SetLedEb
_ZN5daisy9DaisySeed10StartAudioEPFvPKPKfPPfjE
ARM GAS  /var/folders/b5/3l92j93d5t1__l78tfntmwyr0000gn/T//ccqKg67w.s 			page 120


powf
_ZN7daisysp11SquareNoise7ProcessEf
_ZN7daisysp3Svf7SetFreqEf
_ZN7daisysp3Svf6SetResEf
_ZN7daisysp3Svf7ProcessEf
rand
_ZN7daisysp5Metro7ProcessEv
_ZN7daisysp14AnalogBassDrum7ProcessEb
_ZN7daisysp18SyntheticSnareDrum7ProcessEb
_ZN7daisysp17SyntheticBassDrum7ProcessEb
__aeabi_atexit
__dso_handle
