ARM GAS  /var/folders/b5/3l92j93d5t1__l78tfntmwyr0000gn/T//ccOBeKL9.s 			page 1


   1              		.cpu cortex-m7
   2              		.arch armv7e-m
   3              		.fpu fpv5-d16
   4              		.eabi_attribute 28, 1
   5              		.eabi_attribute 20, 1
   6              		.eabi_attribute 21, 1
   7              		.eabi_attribute 23, 3
   8              		.eabi_attribute 24, 1
   9              		.eabi_attribute 25, 1
  10              		.eabi_attribute 26, 1
  11              		.eabi_attribute 30, 2
  12              		.eabi_attribute 34, 1
  13              		.eabi_attribute 18, 4
  14              		.file	"MachineDaisyFile.cpp"
  15              		.text
  16              	.Ltext0:
  17              		.cfi_sections	.debug_frame
  18              		.section	.text._ZN5daisy9AdcHandleD2Ev,"axG",%progbits,_ZN5daisy9AdcHandleD5Ev,comdat
  19              		.align	1
  20              		.p2align 2,,3
  21              		.weak	_ZN5daisy9AdcHandleD2Ev
  22              		.syntax unified
  23              		.thumb
  24              		.thumb_func
  26              	_ZN5daisy9AdcHandleD2Ev:
  27              	.LVL0:
  28              	.LFB671:
  29              		.file 1 "../../DaisyExamples/libDaisy//src/per/adc.h"
   1:../../DaisyExamples/libDaisy//src/per/adc.h **** #pragma once
   2:../../DaisyExamples/libDaisy//src/per/adc.h **** #ifndef DSY_ADC_H
   3:../../DaisyExamples/libDaisy//src/per/adc.h **** #define DSY_ADC_H /**< Macro */
   4:../../DaisyExamples/libDaisy//src/per/adc.h **** #include <stdint.h>
   5:../../DaisyExamples/libDaisy//src/per/adc.h **** #include <stdlib.h>
   6:../../DaisyExamples/libDaisy//src/per/adc.h **** #include "daisy_core.h"
   7:../../DaisyExamples/libDaisy//src/per/adc.h **** #include "per/gpio.h"
   8:../../DaisyExamples/libDaisy//src/per/adc.h **** 
   9:../../DaisyExamples/libDaisy//src/per/adc.h **** #define DSY_ADC_MAX_CHANNELS 16 /**< Maximum number of ADC channels */
  10:../../DaisyExamples/libDaisy//src/per/adc.h **** 
  11:../../DaisyExamples/libDaisy//src/per/adc.h **** namespace daisy
  12:../../DaisyExamples/libDaisy//src/per/adc.h **** {
  13:../../DaisyExamples/libDaisy//src/per/adc.h **** /** @addtogroup per_analog
  14:../../DaisyExamples/libDaisy//src/per/adc.h ****     @{
  15:../../DaisyExamples/libDaisy//src/per/adc.h **** */
  16:../../DaisyExamples/libDaisy//src/per/adc.h **** 
  17:../../DaisyExamples/libDaisy//src/per/adc.h **** /* While there may not be many configuration options here,
  18:../../DaisyExamples/libDaisy//src/per/adc.h **** using a struct like this allows us to add more configuration
  19:../../DaisyExamples/libDaisy//src/per/adc.h **** later without breaking existing functionality.
  20:../../DaisyExamples/libDaisy//src/per/adc.h **** */
  21:../../DaisyExamples/libDaisy//src/per/adc.h **** 
  22:../../DaisyExamples/libDaisy//src/per/adc.h **** /** @brief   Configuration Structure for an ADC Channel 
  23:../../DaisyExamples/libDaisy//src/per/adc.h ****  *  @details This can be used to configure a a single input, 
  24:../../DaisyExamples/libDaisy//src/per/adc.h ****  *           or a multiplexed input, allowing up to 8 inputs on 
  25:../../DaisyExamples/libDaisy//src/per/adc.h ****  *           one channel.
  26:../../DaisyExamples/libDaisy//src/per/adc.h ****  *  @note    Sharing data lines to multiple muxes _is_ possible, but
  27:../../DaisyExamples/libDaisy//src/per/adc.h ****  *           each channel sharing data lines must be set to the maximum
  28:../../DaisyExamples/libDaisy//src/per/adc.h ****  *           number of channels, even if some multiplexers have fewer
  29:../../DaisyExamples/libDaisy//src/per/adc.h ****  *           inputs connected.
ARM GAS  /var/folders/b5/3l92j93d5t1__l78tfntmwyr0000gn/T//ccOBeKL9.s 			page 2


  30:../../DaisyExamples/libDaisy//src/per/adc.h **** */
  31:../../DaisyExamples/libDaisy//src/per/adc.h **** struct AdcChannelConfig
  32:../../DaisyExamples/libDaisy//src/per/adc.h **** {
  33:../../DaisyExamples/libDaisy//src/per/adc.h ****     /** Which pin to use for multiplexing */
  34:../../DaisyExamples/libDaisy//src/per/adc.h ****     enum MuxPin
  35:../../DaisyExamples/libDaisy//src/per/adc.h ****     {
  36:../../DaisyExamples/libDaisy//src/per/adc.h ****         MUX_SEL_0,    /**< & */
  37:../../DaisyExamples/libDaisy//src/per/adc.h ****         MUX_SEL_1,    /**< & */
  38:../../DaisyExamples/libDaisy//src/per/adc.h ****         MUX_SEL_2,    /**< & */
  39:../../DaisyExamples/libDaisy//src/per/adc.h ****         MUX_SEL_LAST, /**< & */
  40:../../DaisyExamples/libDaisy//src/per/adc.h ****     };
  41:../../DaisyExamples/libDaisy//src/per/adc.h **** 
  42:../../DaisyExamples/libDaisy//src/per/adc.h ****     /** Initializes a single ADC pin as an ADC. 
  43:../../DaisyExamples/libDaisy//src/per/adc.h ****     \param pin Pin to init.
  44:../../DaisyExamples/libDaisy//src/per/adc.h ****      */
  45:../../DaisyExamples/libDaisy//src/per/adc.h ****     void InitSingle(dsy_gpio_pin pin);
  46:../../DaisyExamples/libDaisy//src/per/adc.h **** 
  47:../../DaisyExamples/libDaisy//src/per/adc.h ****     /** 
  48:../../DaisyExamples/libDaisy//src/per/adc.h ****     Initializes a single ADC pin as a Multiplexed ADC.
  49:../../DaisyExamples/libDaisy//src/per/adc.h ****     Requires a CD405X Multiplexer connected to the pin.
  50:../../DaisyExamples/libDaisy//src/per/adc.h ****     You only need to supply the mux pins that are required,
  51:../../DaisyExamples/libDaisy//src/per/adc.h ****     e.g. a 4052 mux would only require mux_0 and mux_1.
  52:../../DaisyExamples/libDaisy//src/per/adc.h ****     Internal Callbacks handle the pin addressing.
  53:../../DaisyExamples/libDaisy//src/per/adc.h ****     \param mux_channels must be 1-8
  54:../../DaisyExamples/libDaisy//src/per/adc.h ****     \param mux_0 First mux pin
  55:../../DaisyExamples/libDaisy//src/per/adc.h ****     \param mux_1 Second mux pin
  56:../../DaisyExamples/libDaisy//src/per/adc.h ****     \param mux_2 Third mux pin
  57:../../DaisyExamples/libDaisy//src/per/adc.h ****     \param adc_pin &
  58:../../DaisyExamples/libDaisy//src/per/adc.h ****     */
  59:../../DaisyExamples/libDaisy//src/per/adc.h ****     void InitMux(dsy_gpio_pin adc_pin,
  60:../../DaisyExamples/libDaisy//src/per/adc.h ****                  size_t       mux_channels,
  61:../../DaisyExamples/libDaisy//src/per/adc.h ****                  dsy_gpio_pin mux_0,
  62:../../DaisyExamples/libDaisy//src/per/adc.h ****                  dsy_gpio_pin mux_1 = {DSY_GPIOX, 0},
  63:../../DaisyExamples/libDaisy//src/per/adc.h ****                  dsy_gpio_pin mux_2 = {DSY_GPIOX, 0});
  64:../../DaisyExamples/libDaisy//src/per/adc.h **** 
  65:../../DaisyExamples/libDaisy//src/per/adc.h ****     dsy_gpio pin_;                   /**< & */
  66:../../DaisyExamples/libDaisy//src/per/adc.h ****     dsy_gpio mux_pin_[MUX_SEL_LAST]; /**< & */
  67:../../DaisyExamples/libDaisy//src/per/adc.h ****     uint8_t  mux_channels_;          /**< & */
  68:../../DaisyExamples/libDaisy//src/per/adc.h **** };
  69:../../DaisyExamples/libDaisy//src/per/adc.h **** 
  70:../../DaisyExamples/libDaisy//src/per/adc.h **** /**
  71:../../DaisyExamples/libDaisy//src/per/adc.h ****    @brief Handler for analog to digital conversion
  72:../../DaisyExamples/libDaisy//src/per/adc.h **** */
  73:../../DaisyExamples/libDaisy//src/per/adc.h **** class AdcHandle
  74:../../DaisyExamples/libDaisy//src/per/adc.h **** {
  75:../../DaisyExamples/libDaisy//src/per/adc.h ****   public:
  76:../../DaisyExamples/libDaisy//src/per/adc.h ****     /** Supported oversampling amounts */
  77:../../DaisyExamples/libDaisy//src/per/adc.h ****     enum OverSampling
  78:../../DaisyExamples/libDaisy//src/per/adc.h ****     {
  79:../../DaisyExamples/libDaisy//src/per/adc.h ****         OVS_NONE, /**< & */
  80:../../DaisyExamples/libDaisy//src/per/adc.h ****         OVS_4,    /**< & */
  81:../../DaisyExamples/libDaisy//src/per/adc.h ****         OVS_8,    /**< & */
  82:../../DaisyExamples/libDaisy//src/per/adc.h ****         OVS_16,   /**< & */
  83:../../DaisyExamples/libDaisy//src/per/adc.h ****         OVS_32,   /**< & */
  84:../../DaisyExamples/libDaisy//src/per/adc.h ****         OVS_64,   /**< & */
  85:../../DaisyExamples/libDaisy//src/per/adc.h ****         OVS_128,  /**< & */
  86:../../DaisyExamples/libDaisy//src/per/adc.h ****         OVS_256,  /**< & */
ARM GAS  /var/folders/b5/3l92j93d5t1__l78tfntmwyr0000gn/T//ccOBeKL9.s 			page 3


  87:../../DaisyExamples/libDaisy//src/per/adc.h ****         OVS_512,  /**< & */
  88:../../DaisyExamples/libDaisy//src/per/adc.h ****         OVS_1024, /**< & */
  89:../../DaisyExamples/libDaisy//src/per/adc.h ****         OVS_LAST, /**< & */
  90:../../DaisyExamples/libDaisy//src/per/adc.h ****     };
  91:../../DaisyExamples/libDaisy//src/per/adc.h **** 
  92:../../DaisyExamples/libDaisy//src/per/adc.h ****     AdcHandle() {}
  93:../../DaisyExamples/libDaisy//src/per/adc.h ****     ~AdcHandle() {}
  30              		.loc 1 93 5 view -0
  31              		.cfi_startproc
  32              		@ args = 0, pretend = 0, frame = 0
  33              		@ frame_needed = 0, uses_anonymous_args = 0
  34              		@ link register save eliminated.
  35              		.loc 1 93 19 is_stmt 0 view .LVU1
  36 0000 7047     		bx	lr
  37              		.cfi_endproc
  38              	.LFE671:
  40              		.weak	_ZN5daisy9AdcHandleD1Ev
  41              		.thumb_set _ZN5daisy9AdcHandleD1Ev,_ZN5daisy9AdcHandleD2Ev
  42 0002 00BF     		.section	.text._ZN5daisy6SwitchD2Ev,"axG",%progbits,_ZN5daisy6SwitchD5Ev,comdat
  43              		.align	1
  44              		.p2align 2,,3
  45              		.weak	_ZN5daisy6SwitchD2Ev
  46              		.syntax unified
  47              		.thumb
  48              		.thumb_func
  50              	_ZN5daisy6SwitchD2Ev:
  51              	.LVL1:
  52              	.LFB1606:
  53              		.file 2 "../../DaisyExamples/libDaisy//src/hid/switch.h"
   1:../../DaisyExamples/libDaisy//src/hid/switch.h **** #pragma once
   2:../../DaisyExamples/libDaisy//src/hid/switch.h **** #ifndef DSY_SWITCH_H
   3:../../DaisyExamples/libDaisy//src/hid/switch.h **** #define DSY_SWITCH_H
   4:../../DaisyExamples/libDaisy//src/hid/switch.h **** #include "daisy_core.h"
   5:../../DaisyExamples/libDaisy//src/hid/switch.h **** #include "per/gpio.h"
   6:../../DaisyExamples/libDaisy//src/hid/switch.h **** #include "sys/system.h"
   7:../../DaisyExamples/libDaisy//src/hid/switch.h **** 
   8:../../DaisyExamples/libDaisy//src/hid/switch.h **** namespace daisy
   9:../../DaisyExamples/libDaisy//src/hid/switch.h **** {
  10:../../DaisyExamples/libDaisy//src/hid/switch.h **** /** 
  11:../../DaisyExamples/libDaisy//src/hid/switch.h ****     Generic Class for handling momentary/latching switches \n 
  12:../../DaisyExamples/libDaisy//src/hid/switch.h ****     Inspired/influenced by Mutable Instruments (pichenettes) Switch classes
  13:../../DaisyExamples/libDaisy//src/hid/switch.h ****     @author Stephen Hensley
  14:../../DaisyExamples/libDaisy//src/hid/switch.h ****     @date December 2019
  15:../../DaisyExamples/libDaisy//src/hid/switch.h ****     @ingroup controls
  16:../../DaisyExamples/libDaisy//src/hid/switch.h **** */
  17:../../DaisyExamples/libDaisy//src/hid/switch.h **** class Switch
  18:../../DaisyExamples/libDaisy//src/hid/switch.h **** {
  19:../../DaisyExamples/libDaisy//src/hid/switch.h ****   public:
  20:../../DaisyExamples/libDaisy//src/hid/switch.h ****     /** Specifies the expected behavior of the switch */
  21:../../DaisyExamples/libDaisy//src/hid/switch.h ****     enum Type
  22:../../DaisyExamples/libDaisy//src/hid/switch.h ****     {
  23:../../DaisyExamples/libDaisy//src/hid/switch.h ****         TYPE_TOGGLE,    /**< & */
  24:../../DaisyExamples/libDaisy//src/hid/switch.h ****         TYPE_MOMENTARY, /**< & */
  25:../../DaisyExamples/libDaisy//src/hid/switch.h ****     };
  26:../../DaisyExamples/libDaisy//src/hid/switch.h ****     /** Specifies whether the pressed is HIGH or LOW. */
  27:../../DaisyExamples/libDaisy//src/hid/switch.h ****     enum Polarity
  28:../../DaisyExamples/libDaisy//src/hid/switch.h ****     {
ARM GAS  /var/folders/b5/3l92j93d5t1__l78tfntmwyr0000gn/T//ccOBeKL9.s 			page 4


  29:../../DaisyExamples/libDaisy//src/hid/switch.h ****         POLARITY_NORMAL,   /**< & */
  30:../../DaisyExamples/libDaisy//src/hid/switch.h ****         POLARITY_INVERTED, /**< & */
  31:../../DaisyExamples/libDaisy//src/hid/switch.h ****     };
  32:../../DaisyExamples/libDaisy//src/hid/switch.h **** 
  33:../../DaisyExamples/libDaisy//src/hid/switch.h ****     /** Specifies whether to use built-in Pull Up/Down resistors to hold button at a given state wh
  34:../../DaisyExamples/libDaisy//src/hid/switch.h ****     enum Pull
  35:../../DaisyExamples/libDaisy//src/hid/switch.h ****     {
  36:../../DaisyExamples/libDaisy//src/hid/switch.h ****         PULL_UP,   /**< & */
  37:../../DaisyExamples/libDaisy//src/hid/switch.h ****         PULL_DOWN, /**< & */
  38:../../DaisyExamples/libDaisy//src/hid/switch.h ****         PULL_NONE, /**< & */
  39:../../DaisyExamples/libDaisy//src/hid/switch.h ****     };
  40:../../DaisyExamples/libDaisy//src/hid/switch.h **** 
  41:../../DaisyExamples/libDaisy//src/hid/switch.h ****     Switch() {}
  42:../../DaisyExamples/libDaisy//src/hid/switch.h ****     ~Switch() {}
  54              		.loc 2 42 5 is_stmt 1 view -0
  55              		.cfi_startproc
  56              		@ args = 0, pretend = 0, frame = 0
  57              		@ frame_needed = 0, uses_anonymous_args = 0
  58              		@ link register save eliminated.
  59              		.loc 2 42 16 is_stmt 0 view .LVU3
  60 0000 7047     		bx	lr
  61              		.cfi_endproc
  62              	.LFE1606:
  64              		.weak	_ZN5daisy6SwitchD1Ev
  65              		.thumb_set _ZN5daisy6SwitchD1Ev,_ZN5daisy6SwitchD2Ev
  66 0002 00BF     		.section	.text._ZN5daisy9DaisySeedD2Ev,"axG",%progbits,_ZN5daisy9DaisySeedD5Ev,comdat
  67              		.align	1
  68              		.p2align 2,,3
  69              		.weak	_ZN5daisy9DaisySeedD2Ev
  70              		.syntax unified
  71              		.thumb
  72              		.thumb_func
  74              	_ZN5daisy9DaisySeedD2Ev:
  75              	.LVL2:
  76              	.LFB2529:
  77              		.file 3 "../../DaisyExamples/libDaisy//src/daisy_seed.h"
   1:../../DaisyExamples/libDaisy//src/daisy_seed.h **** #pragma once
   2:../../DaisyExamples/libDaisy//src/daisy_seed.h **** #ifndef DSY_SEED_H
   3:../../DaisyExamples/libDaisy//src/daisy_seed.h **** #define DSY_SEED_H
   4:../../DaisyExamples/libDaisy//src/daisy_seed.h **** 
   5:../../DaisyExamples/libDaisy//src/daisy_seed.h **** #include "daisy.h"
   6:../../DaisyExamples/libDaisy//src/daisy_seed.h **** 
   7:../../DaisyExamples/libDaisy//src/daisy_seed.h **** //Uncomment this out if you're still using the rev2 hardware
   8:../../DaisyExamples/libDaisy//src/daisy_seed.h **** //#define SEED_REV2
   9:../../DaisyExamples/libDaisy//src/daisy_seed.h **** 
  10:../../DaisyExamples/libDaisy//src/daisy_seed.h **** namespace daisy
  11:../../DaisyExamples/libDaisy//src/daisy_seed.h **** {
  12:../../DaisyExamples/libDaisy//src/daisy_seed.h **** /**
  13:../../DaisyExamples/libDaisy//src/daisy_seed.h ****    @brief This is the higher-level interface for the Daisy board. \n 
  14:../../DaisyExamples/libDaisy//src/daisy_seed.h ****     All basic peripheral configuration/initialization is setup here. \n
  15:../../DaisyExamples/libDaisy//src/daisy_seed.h **** 
  16:../../DaisyExamples/libDaisy//src/daisy_seed.h ****    @ingroup boards
  17:../../DaisyExamples/libDaisy//src/daisy_seed.h **** */
  18:../../DaisyExamples/libDaisy//src/daisy_seed.h **** class DaisySeed
  19:../../DaisyExamples/libDaisy//src/daisy_seed.h **** {
  20:../../DaisyExamples/libDaisy//src/daisy_seed.h ****   public:
  21:../../DaisyExamples/libDaisy//src/daisy_seed.h ****     DaisySeed() {}
ARM GAS  /var/folders/b5/3l92j93d5t1__l78tfntmwyr0000gn/T//ccOBeKL9.s 			page 5


  22:../../DaisyExamples/libDaisy//src/daisy_seed.h ****     ~DaisySeed() {}
  78              		.loc 3 22 5 is_stmt 1 view -0
  79              		.cfi_startproc
  80              		@ args = 0, pretend = 0, frame = 0
  81              		@ frame_needed = 0, uses_anonymous_args = 0
  82              		@ link register save eliminated.
  83              	.LBB371:
  84              	.LBI371:
  85              		.file 4 "../../DaisyExamples/libDaisy//src/sys/system.h"
   1:../../DaisyExamples/libDaisy//src/sys/system.h **** #ifndef DSY_SYSTEM_H
   2:../../DaisyExamples/libDaisy//src/sys/system.h **** #define DSY_SYSTEM_H
   3:../../DaisyExamples/libDaisy//src/sys/system.h **** 
   4:../../DaisyExamples/libDaisy//src/sys/system.h **** #ifndef UNIT_TEST // for unit tests, a dummy implementation is provided below
   5:../../DaisyExamples/libDaisy//src/sys/system.h **** 
   6:../../DaisyExamples/libDaisy//src/sys/system.h **** #include <cstdint>
   7:../../DaisyExamples/libDaisy//src/sys/system.h **** #include "per/tim.h"
   8:../../DaisyExamples/libDaisy//src/sys/system.h **** 
   9:../../DaisyExamples/libDaisy//src/sys/system.h **** namespace daisy
  10:../../DaisyExamples/libDaisy//src/sys/system.h **** {
  11:../../DaisyExamples/libDaisy//src/sys/system.h **** /** A handle for interacting with the Core System. 
  12:../../DaisyExamples/libDaisy//src/sys/system.h ****  ** This includes the Clock tree, MPU, global DMA initialization,
  13:../../DaisyExamples/libDaisy//src/sys/system.h ****  ** cache handling, and any other necessary global initiailzation
  14:../../DaisyExamples/libDaisy//src/sys/system.h ****  **
  15:../../DaisyExamples/libDaisy//src/sys/system.h ****  ** @author shensley
  16:../../DaisyExamples/libDaisy//src/sys/system.h ****  ** @ingroup system
  17:../../DaisyExamples/libDaisy//src/sys/system.h ****  */
  18:../../DaisyExamples/libDaisy//src/sys/system.h **** class System
  19:../../DaisyExamples/libDaisy//src/sys/system.h **** {
  20:../../DaisyExamples/libDaisy//src/sys/system.h ****   public:
  21:../../DaisyExamples/libDaisy//src/sys/system.h ****     /** Contains settings for initializing the System */
  22:../../DaisyExamples/libDaisy//src/sys/system.h ****     struct Config
  23:../../DaisyExamples/libDaisy//src/sys/system.h ****     {
  24:../../DaisyExamples/libDaisy//src/sys/system.h ****         /** Specifies the system clock frequency that feeds APB/AHB clocks, etc. */
  25:../../DaisyExamples/libDaisy//src/sys/system.h ****         enum class SysClkFreq
  26:../../DaisyExamples/libDaisy//src/sys/system.h ****         {
  27:../../DaisyExamples/libDaisy//src/sys/system.h ****             FREQ_400MHZ,
  28:../../DaisyExamples/libDaisy//src/sys/system.h ****             FREQ_480MHZ,
  29:../../DaisyExamples/libDaisy//src/sys/system.h ****         };
  30:../../DaisyExamples/libDaisy//src/sys/system.h **** 
  31:../../DaisyExamples/libDaisy//src/sys/system.h ****         /** Method to call on the struct to set to defaults
  32:../../DaisyExamples/libDaisy//src/sys/system.h ****          ** CPU Freq set to 400MHz
  33:../../DaisyExamples/libDaisy//src/sys/system.h ****          ** Cache Enabled 
  34:../../DaisyExamples/libDaisy//src/sys/system.h ****          ** */
  35:../../DaisyExamples/libDaisy//src/sys/system.h ****         void Defaults()
  36:../../DaisyExamples/libDaisy//src/sys/system.h ****         {
  37:../../DaisyExamples/libDaisy//src/sys/system.h ****             cpu_freq    = SysClkFreq::FREQ_400MHZ;
  38:../../DaisyExamples/libDaisy//src/sys/system.h ****             use_dcache  = true;
  39:../../DaisyExamples/libDaisy//src/sys/system.h ****             use_icache  = true;
  40:../../DaisyExamples/libDaisy//src/sys/system.h ****             skip_clocks = false;
  41:../../DaisyExamples/libDaisy//src/sys/system.h ****         }
  42:../../DaisyExamples/libDaisy//src/sys/system.h **** 
  43:../../DaisyExamples/libDaisy//src/sys/system.h ****         /** Method to call on the struct to set to boost mode:
  44:../../DaisyExamples/libDaisy//src/sys/system.h ****          ** CPU Freq set to 480MHz
  45:../../DaisyExamples/libDaisy//src/sys/system.h ****          ** Cache Enabled 
  46:../../DaisyExamples/libDaisy//src/sys/system.h ****          ** */
  47:../../DaisyExamples/libDaisy//src/sys/system.h ****         void Boost()
  48:../../DaisyExamples/libDaisy//src/sys/system.h ****         {
ARM GAS  /var/folders/b5/3l92j93d5t1__l78tfntmwyr0000gn/T//ccOBeKL9.s 			page 6


  49:../../DaisyExamples/libDaisy//src/sys/system.h ****             cpu_freq    = SysClkFreq::FREQ_480MHZ;
  50:../../DaisyExamples/libDaisy//src/sys/system.h ****             use_dcache  = true;
  51:../../DaisyExamples/libDaisy//src/sys/system.h ****             use_icache  = true;
  52:../../DaisyExamples/libDaisy//src/sys/system.h ****             skip_clocks = false;
  53:../../DaisyExamples/libDaisy//src/sys/system.h ****         }
  54:../../DaisyExamples/libDaisy//src/sys/system.h **** 
  55:../../DaisyExamples/libDaisy//src/sys/system.h ****         SysClkFreq cpu_freq;
  56:../../DaisyExamples/libDaisy//src/sys/system.h ****         bool       use_dcache;
  57:../../DaisyExamples/libDaisy//src/sys/system.h ****         bool       use_icache;
  58:../../DaisyExamples/libDaisy//src/sys/system.h ****         bool       skip_clocks;
  59:../../DaisyExamples/libDaisy//src/sys/system.h ****     };
  60:../../DaisyExamples/libDaisy//src/sys/system.h **** 
  61:../../DaisyExamples/libDaisy//src/sys/system.h ****     /** Describes the different regions of memory available to the Daisy
  62:../../DaisyExamples/libDaisy//src/sys/system.h ****      * 
  63:../../DaisyExamples/libDaisy//src/sys/system.h ****      */
  64:../../DaisyExamples/libDaisy//src/sys/system.h ****     enum MemoryRegion
  65:../../DaisyExamples/libDaisy//src/sys/system.h ****     {
  66:../../DaisyExamples/libDaisy//src/sys/system.h ****         INTERNAL_FLASH = 0,
  67:../../DaisyExamples/libDaisy//src/sys/system.h ****         ITCMRAM,
  68:../../DaisyExamples/libDaisy//src/sys/system.h ****         DTCMRAM,
  69:../../DaisyExamples/libDaisy//src/sys/system.h ****         SRAM_D1,
  70:../../DaisyExamples/libDaisy//src/sys/system.h ****         SRAM_D2,
  71:../../DaisyExamples/libDaisy//src/sys/system.h ****         SRAM_D3,
  72:../../DaisyExamples/libDaisy//src/sys/system.h ****         SDRAM,
  73:../../DaisyExamples/libDaisy//src/sys/system.h ****         QSPI,
  74:../../DaisyExamples/libDaisy//src/sys/system.h ****         INVALID_ADDRESS,
  75:../../DaisyExamples/libDaisy//src/sys/system.h ****     };
  76:../../DaisyExamples/libDaisy//src/sys/system.h **** 
  77:../../DaisyExamples/libDaisy//src/sys/system.h ****     System() {}
  78:../../DaisyExamples/libDaisy//src/sys/system.h ****     ~System() {}
  86              		.loc 4 78 5 view .LVU5
  87              		.loc 4 78 5 is_stmt 0 view .LVU6
  88              	.LBE371:
  89              	.LBB372:
  90              	.LBI372:
  91              		.file 5 "../../DaisyExamples/libDaisy//src/hid/usb.h"
   1:../../DaisyExamples/libDaisy//src/hid/usb.h **** #pragma once
   2:../../DaisyExamples/libDaisy//src/hid/usb.h **** #ifndef DSY_HID_USB_H
   3:../../DaisyExamples/libDaisy//src/hid/usb.h **** #define DSY_HID_USB_H
   4:../../DaisyExamples/libDaisy//src/hid/usb.h **** #include <stdint.h>
   5:../../DaisyExamples/libDaisy//src/hid/usb.h **** #include <stdlib.h>
   6:../../DaisyExamples/libDaisy//src/hid/usb.h **** 
   7:../../DaisyExamples/libDaisy//src/hid/usb.h **** namespace daisy
   8:../../DaisyExamples/libDaisy//src/hid/usb.h **** /** @addtogroup human_interface
   9:../../DaisyExamples/libDaisy//src/hid/usb.h ****     @{
  10:../../DaisyExamples/libDaisy//src/hid/usb.h **** */
  11:../../DaisyExamples/libDaisy//src/hid/usb.h **** 
  12:../../DaisyExamples/libDaisy//src/hid/usb.h **** {
  13:../../DaisyExamples/libDaisy//src/hid/usb.h **** /** 
  14:../../DaisyExamples/libDaisy//src/hid/usb.h ****     @brief Interface for initializing and using the USB Peripherals on the daisy
  15:../../DaisyExamples/libDaisy//src/hid/usb.h ****     @author Stephen Hensley
  16:../../DaisyExamples/libDaisy//src/hid/usb.h ****     @date December 2019
  17:../../DaisyExamples/libDaisy//src/hid/usb.h **** */
  18:../../DaisyExamples/libDaisy//src/hid/usb.h **** class UsbHandle
  19:../../DaisyExamples/libDaisy//src/hid/usb.h **** {
  20:../../DaisyExamples/libDaisy//src/hid/usb.h ****   public:
  21:../../DaisyExamples/libDaisy//src/hid/usb.h ****     /** Return values for USBHandle Functions */
ARM GAS  /var/folders/b5/3l92j93d5t1__l78tfntmwyr0000gn/T//ccOBeKL9.s 			page 7


  22:../../DaisyExamples/libDaisy//src/hid/usb.h ****     enum class Result
  23:../../DaisyExamples/libDaisy//src/hid/usb.h ****     {
  24:../../DaisyExamples/libDaisy//src/hid/usb.h ****         OK,
  25:../../DaisyExamples/libDaisy//src/hid/usb.h ****         ERR,
  26:../../DaisyExamples/libDaisy//src/hid/usb.h ****     };
  27:../../DaisyExamples/libDaisy//src/hid/usb.h **** 
  28:../../DaisyExamples/libDaisy//src/hid/usb.h ****     /** Specified which of the two USB Peripherals to initialize. */
  29:../../DaisyExamples/libDaisy//src/hid/usb.h ****     enum UsbPeriph
  30:../../DaisyExamples/libDaisy//src/hid/usb.h ****     {
  31:../../DaisyExamples/libDaisy//src/hid/usb.h ****         FS_INTERNAL, /**< Internal pin */
  32:../../DaisyExamples/libDaisy//src/hid/usb.h ****         FS_EXTERNAL, /**< FS External D+ pin is Pin 38 (GPIO32). FS External D- pin is Pin 37 (GPIO
  33:../../DaisyExamples/libDaisy//src/hid/usb.h ****         FS_BOTH,     /**< Both */
  34:../../DaisyExamples/libDaisy//src/hid/usb.h ****     };
  35:../../DaisyExamples/libDaisy//src/hid/usb.h **** 
  36:../../DaisyExamples/libDaisy//src/hid/usb.h **** 
  37:../../DaisyExamples/libDaisy//src/hid/usb.h ****     /** Function called upon reception of a buffer */
  38:../../DaisyExamples/libDaisy//src/hid/usb.h ****     typedef void (*ReceiveCallback)(uint8_t* buff, uint32_t* len);
  39:../../DaisyExamples/libDaisy//src/hid/usb.h **** 
  40:../../DaisyExamples/libDaisy//src/hid/usb.h ****     UsbHandle() {}
  41:../../DaisyExamples/libDaisy//src/hid/usb.h **** 
  42:../../DaisyExamples/libDaisy//src/hid/usb.h ****     ~UsbHandle() {}
  92              		.loc 5 42 5 is_stmt 1 view .LVU7
  93              		.loc 5 42 5 is_stmt 0 view .LVU8
  94              	.LBE372:
  95              	.LBB373:
  96              	.LBI373:
  97              		.loc 1 93 5 is_stmt 1 view .LVU9
  98              		.loc 1 93 5 is_stmt 0 view .LVU10
  99              	.LBE373:
 100              	.LBB374:
 101              	.LBI374:
 102              		.file 6 "../../DaisyExamples/libDaisy//src/hid/audio.h"
   1:../../DaisyExamples/libDaisy//src/hid/audio.h **** #ifndef DSY_AUDIO_H
   2:../../DaisyExamples/libDaisy//src/hid/audio.h **** #define DSY_AUDIO_H /**< & */
   3:../../DaisyExamples/libDaisy//src/hid/audio.h **** 
   4:../../DaisyExamples/libDaisy//src/hid/audio.h **** #include "per/sai.h"
   5:../../DaisyExamples/libDaisy//src/hid/audio.h **** 
   6:../../DaisyExamples/libDaisy//src/hid/audio.h **** namespace daisy
   7:../../DaisyExamples/libDaisy//src/hid/audio.h **** {
   8:../../DaisyExamples/libDaisy//src/hid/audio.h **** /** @brief Audio Engine Handle
   9:../../DaisyExamples/libDaisy//src/hid/audio.h ****  *  @ingroup audio 
  10:../../DaisyExamples/libDaisy//src/hid/audio.h ****  *  @details This class allows for higher level access to an audio engine.
  11:../../DaisyExamples/libDaisy//src/hid/audio.h ****  *           If you're using a SOM like the DaisySeed or DaisyPatchSM (or any 
  12:../../DaisyExamples/libDaisy//src/hid/audio.h ****  *            board that includes one of those objects) then the intialization
  13:../../DaisyExamples/libDaisy//src/hid/audio.h ****  *            is already taken  care of.
  14:../../DaisyExamples/libDaisy//src/hid/audio.h ****  *           If you're setting up your own custom hardware, or need to make changes
  15:../../DaisyExamples/libDaisy//src/hid/audio.h ****  *           you will have to take the following steps:
  16:../../DaisyExamples/libDaisy//src/hid/audio.h ****  *             1. Create and Initialize an SaiHandle or two depending on your requirements
  17:../../DaisyExamples/libDaisy//src/hid/audio.h ****  *             2. Initialize the Audio Handle with the desired settings and the Initialized SaiHand
  18:../../DaisyExamples/libDaisy//src/hid/audio.h ****  *             3. If the connected codec requires special configuration or initialization, do so
  19:../../DaisyExamples/libDaisy//src/hid/audio.h ****  *             4. Write a callback method using either the AudioCallback or the InterleavingAudioCa
  20:../../DaisyExamples/libDaisy//src/hid/audio.h ****  *             5. Start the Audio using one of the StartAudio function
  21:../../DaisyExamples/libDaisy//src/hid/audio.h ****  */
  22:../../DaisyExamples/libDaisy//src/hid/audio.h **** class AudioHandle
  23:../../DaisyExamples/libDaisy//src/hid/audio.h **** {
  24:../../DaisyExamples/libDaisy//src/hid/audio.h ****   public:
  25:../../DaisyExamples/libDaisy//src/hid/audio.h ****     /** Manually configurable details about the Audio Engine */
ARM GAS  /var/folders/b5/3l92j93d5t1__l78tfntmwyr0000gn/T//ccOBeKL9.s 			page 8


  26:../../DaisyExamples/libDaisy//src/hid/audio.h ****     /** TODO: Figure out how to get samplerate in here. */
  27:../../DaisyExamples/libDaisy//src/hid/audio.h ****     struct Config
  28:../../DaisyExamples/libDaisy//src/hid/audio.h ****     {
  29:../../DaisyExamples/libDaisy//src/hid/audio.h ****         /** number of samples to process per callback */
  30:../../DaisyExamples/libDaisy//src/hid/audio.h ****         size_t blocksize;
  31:../../DaisyExamples/libDaisy//src/hid/audio.h **** 
  32:../../DaisyExamples/libDaisy//src/hid/audio.h ****         /**< Sample rate of audio */
  33:../../DaisyExamples/libDaisy//src/hid/audio.h ****         SaiHandle::Config::SampleRate samplerate;
  34:../../DaisyExamples/libDaisy//src/hid/audio.h **** 
  35:../../DaisyExamples/libDaisy//src/hid/audio.h ****         /** factor for adjustment before and after callback for hardware that may have extra headro
  36:../../DaisyExamples/libDaisy//src/hid/audio.h ****         float postgain;
  37:../../DaisyExamples/libDaisy//src/hid/audio.h **** 
  38:../../DaisyExamples/libDaisy//src/hid/audio.h ****         /** factor for additional one-sided compensation to audio path for hardware that may
  39:../../DaisyExamples/libDaisy//src/hid/audio.h ****          *  have unequal input/output ranges
  40:../../DaisyExamples/libDaisy//src/hid/audio.h ****          */
  41:../../DaisyExamples/libDaisy//src/hid/audio.h ****         float output_compensation;
  42:../../DaisyExamples/libDaisy//src/hid/audio.h **** 
  43:../../DaisyExamples/libDaisy//src/hid/audio.h ****         /** Sets default values for config struct */
  44:../../DaisyExamples/libDaisy//src/hid/audio.h ****         Config()
  45:../../DaisyExamples/libDaisy//src/hid/audio.h ****         : blocksize(48),
  46:../../DaisyExamples/libDaisy//src/hid/audio.h ****           samplerate(SaiHandle::Config::SampleRate::SAI_48KHZ),
  47:../../DaisyExamples/libDaisy//src/hid/audio.h ****           postgain(1.f),
  48:../../DaisyExamples/libDaisy//src/hid/audio.h ****           output_compensation(1.f)
  49:../../DaisyExamples/libDaisy//src/hid/audio.h ****         {
  50:../../DaisyExamples/libDaisy//src/hid/audio.h ****         }
  51:../../DaisyExamples/libDaisy//src/hid/audio.h ****     };
  52:../../DaisyExamples/libDaisy//src/hid/audio.h **** 
  53:../../DaisyExamples/libDaisy//src/hid/audio.h ****     enum class Result
  54:../../DaisyExamples/libDaisy//src/hid/audio.h ****     {
  55:../../DaisyExamples/libDaisy//src/hid/audio.h ****         OK,
  56:../../DaisyExamples/libDaisy//src/hid/audio.h ****         ERR,
  57:../../DaisyExamples/libDaisy//src/hid/audio.h ****     };
  58:../../DaisyExamples/libDaisy//src/hid/audio.h **** 
  59:../../DaisyExamples/libDaisy//src/hid/audio.h ****     /** Non-Interleaving input buffer
  60:../../DaisyExamples/libDaisy//src/hid/audio.h ****      * Buffer arranged by float[chn][sample] 
  61:../../DaisyExamples/libDaisy//src/hid/audio.h ****      * const so that the user can't modify the input
  62:../../DaisyExamples/libDaisy//src/hid/audio.h ****      */
  63:../../DaisyExamples/libDaisy//src/hid/audio.h ****     typedef const float* const* InputBuffer;
  64:../../DaisyExamples/libDaisy//src/hid/audio.h **** 
  65:../../DaisyExamples/libDaisy//src/hid/audio.h ****     /** Non-Interleaving output buffer
  66:../../DaisyExamples/libDaisy//src/hid/audio.h ****      * Arranged by float[chn][sample] 
  67:../../DaisyExamples/libDaisy//src/hid/audio.h ****      */
  68:../../DaisyExamples/libDaisy//src/hid/audio.h ****     typedef float** OutputBuffer;
  69:../../DaisyExamples/libDaisy//src/hid/audio.h **** 
  70:../../DaisyExamples/libDaisy//src/hid/audio.h ****     /** Type for a Non-Interleaving audio callback 
  71:../../DaisyExamples/libDaisy//src/hid/audio.h ****      * Non-Interleaving audio callbacks in daisy will be of this type
  72:../../DaisyExamples/libDaisy//src/hid/audio.h ****      */
  73:../../DaisyExamples/libDaisy//src/hid/audio.h ****     typedef void (*AudioCallback)(InputBuffer  in,
  74:../../DaisyExamples/libDaisy//src/hid/audio.h ****                                   OutputBuffer out,
  75:../../DaisyExamples/libDaisy//src/hid/audio.h ****                                   size_t       size);
  76:../../DaisyExamples/libDaisy//src/hid/audio.h **** 
  77:../../DaisyExamples/libDaisy//src/hid/audio.h ****     /** Interleaving Input buffer
  78:../../DaisyExamples/libDaisy//src/hid/audio.h ****      ** audio is prepared as { L0, R0, L1, R1, . . . LN, RN }]
  79:../../DaisyExamples/libDaisy//src/hid/audio.h ****      ** this is const, as the user shouldn't modify it
  80:../../DaisyExamples/libDaisy//src/hid/audio.h ****     */
  81:../../DaisyExamples/libDaisy//src/hid/audio.h ****     typedef const float* InterleavingInputBuffer;
  82:../../DaisyExamples/libDaisy//src/hid/audio.h **** 
ARM GAS  /var/folders/b5/3l92j93d5t1__l78tfntmwyr0000gn/T//ccOBeKL9.s 			page 9


  83:../../DaisyExamples/libDaisy//src/hid/audio.h ****     /** Interleaving Output buffer 
  84:../../DaisyExamples/libDaisy//src/hid/audio.h ****      ** audio is prepared as { L0, R0, L1, R1, . . . LN, RN }
  85:../../DaisyExamples/libDaisy//src/hid/audio.h ****     */
  86:../../DaisyExamples/libDaisy//src/hid/audio.h ****     typedef float* InterleavingOutputBuffer;
  87:../../DaisyExamples/libDaisy//src/hid/audio.h **** 
  88:../../DaisyExamples/libDaisy//src/hid/audio.h ****     /** Interleaving Audio Callback 
  89:../../DaisyExamples/libDaisy//src/hid/audio.h ****      * Interleaving audio callbacks in daisy must be of this type
  90:../../DaisyExamples/libDaisy//src/hid/audio.h ****      */
  91:../../DaisyExamples/libDaisy//src/hid/audio.h ****     typedef void (*InterleavingAudioCallback)(InterleavingInputBuffer  in,
  92:../../DaisyExamples/libDaisy//src/hid/audio.h ****                                               InterleavingOutputBuffer out,
  93:../../DaisyExamples/libDaisy//src/hid/audio.h ****                                               size_t                   size);
  94:../../DaisyExamples/libDaisy//src/hid/audio.h **** 
  95:../../DaisyExamples/libDaisy//src/hid/audio.h ****     AudioHandle() : pimpl_(nullptr) {}
  96:../../DaisyExamples/libDaisy//src/hid/audio.h ****     ~AudioHandle() {}
 103              		.loc 6 96 5 is_stmt 1 view .LVU11
 104              		.loc 6 96 5 is_stmt 0 view .LVU12
 105              	.LBE374:
 106              		.loc 3 22 19 view .LVU13
 107 0000 7047     		bx	lr
 108              		.cfi_endproc
 109              	.LFE2529:
 111              		.weak	_ZN5daisy9DaisySeedD1Ev
 112              		.thumb_set _ZN5daisy9DaisySeedD1Ev,_ZN5daisy9DaisySeedD2Ev
 113 0002 00BF     		.section	.text._ZN7daisysp5AdEnvD2Ev,"axG",%progbits,_ZN7daisysp5AdEnvD5Ev,comdat
 114              		.align	1
 115              		.p2align 2,,3
 116              		.weak	_ZN7daisysp5AdEnvD2Ev
 117              		.syntax unified
 118              		.thumb
 119              		.thumb_func
 121              	_ZN7daisysp5AdEnvD2Ev:
 122              	.LVL3:
 123              	.LFB2538:
 124              		.file 7 "../../DaisyExamples/DaisySP//Source/Control/adenv.h"
   1:../../DaisyExamples/DaisySP//Source/Control/adenv.h **** #pragma once
   2:../../DaisyExamples/DaisySP//Source/Control/adenv.h **** #ifndef ADENV_H
   3:../../DaisyExamples/DaisySP//Source/Control/adenv.h **** #define ADENV_H
   4:../../DaisyExamples/DaisySP//Source/Control/adenv.h **** #include <stdint.h>
   5:../../DaisyExamples/DaisySP//Source/Control/adenv.h **** #ifdef __cplusplus
   6:../../DaisyExamples/DaisySP//Source/Control/adenv.h **** 
   7:../../DaisyExamples/DaisySP//Source/Control/adenv.h **** namespace daisysp
   8:../../DaisyExamples/DaisySP//Source/Control/adenv.h **** {
   9:../../DaisyExamples/DaisySP//Source/Control/adenv.h **** /** Distinct stages that the phase of the envelope can be located in.
  10:../../DaisyExamples/DaisySP//Source/Control/adenv.h ****     @see AdEnv
  11:../../DaisyExamples/DaisySP//Source/Control/adenv.h **** */
  12:../../DaisyExamples/DaisySP//Source/Control/adenv.h **** enum AdEnvSegment
  13:../../DaisyExamples/DaisySP//Source/Control/adenv.h **** {
  14:../../DaisyExamples/DaisySP//Source/Control/adenv.h ****     /** located at phase location 0, and not currently running */
  15:../../DaisyExamples/DaisySP//Source/Control/adenv.h ****     ADENV_SEG_IDLE,
  16:../../DaisyExamples/DaisySP//Source/Control/adenv.h ****     /** First segment of envelope where phase moves from MIN value to MAX value */
  17:../../DaisyExamples/DaisySP//Source/Control/adenv.h ****     ADENV_SEG_ATTACK,
  18:../../DaisyExamples/DaisySP//Source/Control/adenv.h ****     /** Second segment of envelope where phase moves from MAX to MIN value */
  19:../../DaisyExamples/DaisySP//Source/Control/adenv.h ****     ADENV_SEG_DECAY,
  20:../../DaisyExamples/DaisySP//Source/Control/adenv.h ****     /** The final segment of the envelope (currently decay) */
  21:../../DaisyExamples/DaisySP//Source/Control/adenv.h ****     ADENV_SEG_LAST,
  22:../../DaisyExamples/DaisySP//Source/Control/adenv.h **** };
  23:../../DaisyExamples/DaisySP//Source/Control/adenv.h **** 
ARM GAS  /var/folders/b5/3l92j93d5t1__l78tfntmwyr0000gn/T//ccOBeKL9.s 			page 10


  24:../../DaisyExamples/DaisySP//Source/Control/adenv.h **** /** Trigger-able envelope with adjustable min/max, and independent per-segment time control.
  25:../../DaisyExamples/DaisySP//Source/Control/adenv.h **** 
  26:../../DaisyExamples/DaisySP//Source/Control/adenv.h ****     \author shensley
  27:../../DaisyExamples/DaisySP//Source/Control/adenv.h ****     \todo - Add Cycling
  28:../../DaisyExamples/DaisySP//Source/Control/adenv.h ****     \todo - Implement Curve (its only linear for now).
  29:../../DaisyExamples/DaisySP//Source/Control/adenv.h ****     \todo - Maybe make this an ADsr_ that has AD/AR/Asr_ modes.
  30:../../DaisyExamples/DaisySP//Source/Control/adenv.h ****  */
  31:../../DaisyExamples/DaisySP//Source/Control/adenv.h **** class AdEnv
  32:../../DaisyExamples/DaisySP//Source/Control/adenv.h **** {
  33:../../DaisyExamples/DaisySP//Source/Control/adenv.h ****   public:
  34:../../DaisyExamples/DaisySP//Source/Control/adenv.h ****     AdEnv() {}
  35:../../DaisyExamples/DaisySP//Source/Control/adenv.h ****     ~AdEnv() {}
 125              		.loc 7 35 5 is_stmt 1 view -0
 126              		.cfi_startproc
 127              		@ args = 0, pretend = 0, frame = 0
 128              		@ frame_needed = 0, uses_anonymous_args = 0
 129              		@ link register save eliminated.
 130              		.loc 7 35 15 is_stmt 0 view .LVU15
 131 0000 7047     		bx	lr
 132              		.cfi_endproc
 133              	.LFE2538:
 135              		.weak	_ZN7daisysp5AdEnvD1Ev
 136              		.thumb_set _ZN7daisysp5AdEnvD1Ev,_ZN7daisysp5AdEnvD2Ev
 137 0002 00BF     		.section	.text._ZN7daisysp14AnalogBassDrumD2Ev,"axG",%progbits,_ZN7daisysp14AnalogBassDrumD5Ev,com
 138              		.align	1
 139              		.p2align 2,,3
 140              		.weak	_ZN7daisysp14AnalogBassDrumD2Ev
 141              		.syntax unified
 142              		.thumb
 143              		.thumb_func
 145              	_ZN7daisysp14AnalogBassDrumD2Ev:
 146              	.LVL4:
 147              	.LFB4247:
 148              		.file 8 "../../DaisyExamples/DaisySP//Source/Drums/analogbassdrum.h"
   1:../../DaisyExamples/DaisySP//Source/Drums/analogbassdrum.h **** #pragma once
   2:../../DaisyExamples/DaisySP//Source/Drums/analogbassdrum.h **** #ifndef DSY_ANALOG_BD_H
   3:../../DaisyExamples/DaisySP//Source/Drums/analogbassdrum.h **** #define DSY_ANALOG_BD_H
   4:../../DaisyExamples/DaisySP//Source/Drums/analogbassdrum.h **** 
   5:../../DaisyExamples/DaisySP//Source/Drums/analogbassdrum.h **** #include <stdint.h>
   6:../../DaisyExamples/DaisySP//Source/Drums/analogbassdrum.h **** #ifdef __cplusplus
   7:../../DaisyExamples/DaisySP//Source/Drums/analogbassdrum.h **** 
   8:../../DaisyExamples/DaisySP//Source/Drums/analogbassdrum.h **** #include "Synthesis/oscillator.h"
   9:../../DaisyExamples/DaisySP//Source/Drums/analogbassdrum.h **** #include "Filters/svf.h"
  10:../../DaisyExamples/DaisySP//Source/Drums/analogbassdrum.h **** 
  11:../../DaisyExamples/DaisySP//Source/Drums/analogbassdrum.h **** /** @file analogbassdrum.h */
  12:../../DaisyExamples/DaisySP//Source/Drums/analogbassdrum.h **** 
  13:../../DaisyExamples/DaisySP//Source/Drums/analogbassdrum.h **** namespace daisysp
  14:../../DaisyExamples/DaisySP//Source/Drums/analogbassdrum.h **** {
  15:../../DaisyExamples/DaisySP//Source/Drums/analogbassdrum.h **** /**  
  16:../../DaisyExamples/DaisySP//Source/Drums/analogbassdrum.h ****        @brief 808 bass drum model, revisited.
  17:../../DaisyExamples/DaisySP//Source/Drums/analogbassdrum.h ****        @author Ben Sergentanis
  18:../../DaisyExamples/DaisySP//Source/Drums/analogbassdrum.h ****        @date Jan 2021 
  19:../../DaisyExamples/DaisySP//Source/Drums/analogbassdrum.h ****        Ported from pichenettes/eurorack/plaits/dsp/drums/analog_bass_drum.h \n
  20:../../DaisyExamples/DaisySP//Source/Drums/analogbassdrum.h ****        to an independent module. \n
  21:../../DaisyExamples/DaisySP//Source/Drums/analogbassdrum.h ****        Original code written by Emilie Gillet in 2016. \n
  22:../../DaisyExamples/DaisySP//Source/Drums/analogbassdrum.h **** */
  23:../../DaisyExamples/DaisySP//Source/Drums/analogbassdrum.h **** class AnalogBassDrum
ARM GAS  /var/folders/b5/3l92j93d5t1__l78tfntmwyr0000gn/T//ccOBeKL9.s 			page 11


  24:../../DaisyExamples/DaisySP//Source/Drums/analogbassdrum.h **** {
  25:../../DaisyExamples/DaisySP//Source/Drums/analogbassdrum.h ****   public:
  26:../../DaisyExamples/DaisySP//Source/Drums/analogbassdrum.h ****     AnalogBassDrum() {}
  27:../../DaisyExamples/DaisySP//Source/Drums/analogbassdrum.h ****     ~AnalogBassDrum() {}
 149              		.loc 8 27 5 is_stmt 1 view -0
 150              		.cfi_startproc
 151              		@ args = 0, pretend = 0, frame = 0
 152              		@ frame_needed = 0, uses_anonymous_args = 0
 153              		@ link register save eliminated.
 154              	.LBB375:
 155              	.LBI375:
 156              		.file 9 "../../DaisyExamples/DaisySP//Source/Filters/svf.h"
   1:../../DaisyExamples/DaisySP//Source/Filters/svf.h **** #pragma once
   2:../../DaisyExamples/DaisySP//Source/Filters/svf.h **** #ifndef DSY_SVF_H
   3:../../DaisyExamples/DaisySP//Source/Filters/svf.h **** #define DSY_SVF_H
   4:../../DaisyExamples/DaisySP//Source/Filters/svf.h **** 
   5:../../DaisyExamples/DaisySP//Source/Filters/svf.h **** namespace daisysp
   6:../../DaisyExamples/DaisySP//Source/Filters/svf.h **** {
   7:../../DaisyExamples/DaisySP//Source/Filters/svf.h **** /**      Double Sampled, Stable State Variable Filter
   8:../../DaisyExamples/DaisySP//Source/Filters/svf.h **** 
   9:../../DaisyExamples/DaisySP//Source/Filters/svf.h **** Credit to Andrew Simper from musicdsp.org
  10:../../DaisyExamples/DaisySP//Source/Filters/svf.h **** 
  11:../../DaisyExamples/DaisySP//Source/Filters/svf.h **** This is his "State Variable Filter (Double Sampled, Stable)"
  12:../../DaisyExamples/DaisySP//Source/Filters/svf.h **** 
  13:../../DaisyExamples/DaisySP//Source/Filters/svf.h **** Additional thanks to Laurent de Soras for stability limit, and 
  14:../../DaisyExamples/DaisySP//Source/Filters/svf.h **** Stefan Diedrichsen for the correct notch output
  15:../../DaisyExamples/DaisySP//Source/Filters/svf.h **** 
  16:../../DaisyExamples/DaisySP//Source/Filters/svf.h **** Ported by: Stephen Hensley
  17:../../DaisyExamples/DaisySP//Source/Filters/svf.h **** */
  18:../../DaisyExamples/DaisySP//Source/Filters/svf.h **** class Svf
  19:../../DaisyExamples/DaisySP//Source/Filters/svf.h **** {
  20:../../DaisyExamples/DaisySP//Source/Filters/svf.h ****   public:
  21:../../DaisyExamples/DaisySP//Source/Filters/svf.h ****     Svf() {}
  22:../../DaisyExamples/DaisySP//Source/Filters/svf.h ****     ~Svf() {}
 157              		.loc 9 22 5 view .LVU17
 158              		.loc 9 22 5 is_stmt 0 view .LVU18
 159              	.LBE375:
 160              		.loc 8 27 24 view .LVU19
 161 0000 7047     		bx	lr
 162              		.cfi_endproc
 163              	.LFE4247:
 165              		.weak	_ZN7daisysp14AnalogBassDrumD1Ev
 166              		.thumb_set _ZN7daisysp14AnalogBassDrumD1Ev,_ZN7daisysp14AnalogBassDrumD2Ev
 167 0002 00BF     		.section	.text._ZN7daisysp15AnalogSnareDrumD2Ev,"axG",%progbits,_ZN7daisysp15AnalogSnareDrumD5Ev,c
 168              		.align	1
 169              		.p2align 2,,3
 170              		.weak	_ZN7daisysp15AnalogSnareDrumD2Ev
 171              		.syntax unified
 172              		.thumb
 173              		.thumb_func
 175              	_ZN7daisysp15AnalogSnareDrumD2Ev:
 176              	.LVL5:
 177              	.LFB4253:
 178              		.file 10 "../../DaisyExamples/DaisySP//Source/Drums/analogsnaredrum.h"
   1:../../DaisyExamples/DaisySP//Source/Drums/analogsnaredrum.h **** #pragma once
   2:../../DaisyExamples/DaisySP//Source/Drums/analogsnaredrum.h **** #ifndef DSY_ANALOG_SNARE_H
   3:../../DaisyExamples/DaisySP//Source/Drums/analogsnaredrum.h **** #define DSY_ANALOG_SNARE_H
ARM GAS  /var/folders/b5/3l92j93d5t1__l78tfntmwyr0000gn/T//ccOBeKL9.s 			page 12


   4:../../DaisyExamples/DaisySP//Source/Drums/analogsnaredrum.h **** 
   5:../../DaisyExamples/DaisySP//Source/Drums/analogsnaredrum.h **** #include "Filters/svf.h"
   6:../../DaisyExamples/DaisySP//Source/Drums/analogsnaredrum.h **** 
   7:../../DaisyExamples/DaisySP//Source/Drums/analogsnaredrum.h **** #include <stdint.h>
   8:../../DaisyExamples/DaisySP//Source/Drums/analogsnaredrum.h **** #ifdef __cplusplus
   9:../../DaisyExamples/DaisySP//Source/Drums/analogsnaredrum.h **** 
  10:../../DaisyExamples/DaisySP//Source/Drums/analogsnaredrum.h **** /** @file analogsnaredrum.h */
  11:../../DaisyExamples/DaisySP//Source/Drums/analogsnaredrum.h **** 
  12:../../DaisyExamples/DaisySP//Source/Drums/analogsnaredrum.h **** namespace daisysp
  13:../../DaisyExamples/DaisySP//Source/Drums/analogsnaredrum.h **** {
  14:../../DaisyExamples/DaisySP//Source/Drums/analogsnaredrum.h **** /**  
  15:../../DaisyExamples/DaisySP//Source/Drums/analogsnaredrum.h ****        @brief 808 snare drum model, revisited.
  16:../../DaisyExamples/DaisySP//Source/Drums/analogsnaredrum.h ****        @author Ben Sergentanis
  17:../../DaisyExamples/DaisySP//Source/Drums/analogsnaredrum.h ****        @date Jan 2021
  18:../../DaisyExamples/DaisySP//Source/Drums/analogsnaredrum.h ****        Ported from pichenettes/eurorack/plaits/dsp/drums/analog_snare_drum.h \n
  19:../../DaisyExamples/DaisySP//Source/Drums/analogsnaredrum.h ****        to an independent module. \n
  20:../../DaisyExamples/DaisySP//Source/Drums/analogsnaredrum.h ****        Original code written by Emilie Gillet in 2016. \n
  21:../../DaisyExamples/DaisySP//Source/Drums/analogsnaredrum.h **** */
  22:../../DaisyExamples/DaisySP//Source/Drums/analogsnaredrum.h **** class AnalogSnareDrum
  23:../../DaisyExamples/DaisySP//Source/Drums/analogsnaredrum.h **** {
  24:../../DaisyExamples/DaisySP//Source/Drums/analogsnaredrum.h ****   public:
  25:../../DaisyExamples/DaisySP//Source/Drums/analogsnaredrum.h ****     AnalogSnareDrum() {}
  26:../../DaisyExamples/DaisySP//Source/Drums/analogsnaredrum.h ****     ~AnalogSnareDrum() {}
 179              		.loc 10 26 5 is_stmt 1 view -0
 180              		.cfi_startproc
 181              		@ args = 0, pretend = 0, frame = 0
 182              		@ frame_needed = 0, uses_anonymous_args = 0
 183              		@ link register save eliminated.
 184              	.LBB376:
 185              	.LBI376:
 186              		.loc 9 22 5 view .LVU21
 187              		.loc 9 22 5 is_stmt 0 view .LVU22
 188              	.LBE376:
 189              		.loc 10 26 25 view .LVU23
 190 0000 7047     		bx	lr
 191              		.cfi_endproc
 192              	.LFE4253:
 194              		.weak	_ZN7daisysp15AnalogSnareDrumD1Ev
 195              		.thumb_set _ZN7daisysp15AnalogSnareDrumD1Ev,_ZN7daisysp15AnalogSnareDrumD2Ev
 196 0002 00BF     		.section	.text._ZN7daisysp17SyntheticBassDrumD2Ev,"axG",%progbits,_ZN7daisysp17SyntheticBassDrumD5
 197              		.align	1
 198              		.p2align 2,,3
 199              		.weak	_ZN7daisysp17SyntheticBassDrumD2Ev
 200              		.syntax unified
 201              		.thumb
 202              		.thumb_func
 204              	_ZN7daisysp17SyntheticBassDrumD2Ev:
 205              	.LVL6:
 206              	.LFB4297:
 207              		.file 11 "../../DaisyExamples/DaisySP//Source/Drums/synthbassdrum.h"
   1:../../DaisyExamples/DaisySP//Source/Drums/synthbassdrum.h **** #pragma once
   2:../../DaisyExamples/DaisySP//Source/Drums/synthbassdrum.h **** #ifndef DSY_SYNTHBD_H
   3:../../DaisyExamples/DaisySP//Source/Drums/synthbassdrum.h **** #define DSY_SYNTHBD_H
   4:../../DaisyExamples/DaisySP//Source/Drums/synthbassdrum.h **** 
   5:../../DaisyExamples/DaisySP//Source/Drums/synthbassdrum.h **** #include "Filters/svf.h"
   6:../../DaisyExamples/DaisySP//Source/Drums/synthbassdrum.h **** #include "Utility/dsp.h"
   7:../../DaisyExamples/DaisySP//Source/Drums/synthbassdrum.h **** 
ARM GAS  /var/folders/b5/3l92j93d5t1__l78tfntmwyr0000gn/T//ccOBeKL9.s 			page 13


   8:../../DaisyExamples/DaisySP//Source/Drums/synthbassdrum.h **** #include <stdint.h>
   9:../../DaisyExamples/DaisySP//Source/Drums/synthbassdrum.h **** #ifdef __cplusplus
  10:../../DaisyExamples/DaisySP//Source/Drums/synthbassdrum.h **** 
  11:../../DaisyExamples/DaisySP//Source/Drums/synthbassdrum.h **** /** @file synthbassdrum.h */
  12:../../DaisyExamples/DaisySP//Source/Drums/synthbassdrum.h **** 
  13:../../DaisyExamples/DaisySP//Source/Drums/synthbassdrum.h **** namespace daisysp
  14:../../DaisyExamples/DaisySP//Source/Drums/synthbassdrum.h **** {
  15:../../DaisyExamples/DaisySP//Source/Drums/synthbassdrum.h **** /**  
  16:../../DaisyExamples/DaisySP//Source/Drums/synthbassdrum.h ****        @brief Click noise for SyntheticBassDrum
  17:../../DaisyExamples/DaisySP//Source/Drums/synthbassdrum.h ****        @author Ben Sergentanis
  18:../../DaisyExamples/DaisySP//Source/Drums/synthbassdrum.h ****        @date Jan 2021
  19:../../DaisyExamples/DaisySP//Source/Drums/synthbassdrum.h ****        Ported from pichenettes/eurorack/plaits/dsp/drums/synthetic_bass_drum.h \n
  20:../../DaisyExamples/DaisySP//Source/Drums/synthbassdrum.h ****        to an independent module. \n
  21:../../DaisyExamples/DaisySP//Source/Drums/synthbassdrum.h ****        Original code written by Emilie Gillet in 2016. \n
  22:../../DaisyExamples/DaisySP//Source/Drums/synthbassdrum.h **** */
  23:../../DaisyExamples/DaisySP//Source/Drums/synthbassdrum.h **** class SyntheticBassDrumClick
  24:../../DaisyExamples/DaisySP//Source/Drums/synthbassdrum.h **** {
  25:../../DaisyExamples/DaisySP//Source/Drums/synthbassdrum.h ****   public:
  26:../../DaisyExamples/DaisySP//Source/Drums/synthbassdrum.h ****     SyntheticBassDrumClick() {}
  27:../../DaisyExamples/DaisySP//Source/Drums/synthbassdrum.h ****     ~SyntheticBassDrumClick() {}
  28:../../DaisyExamples/DaisySP//Source/Drums/synthbassdrum.h **** 
  29:../../DaisyExamples/DaisySP//Source/Drums/synthbassdrum.h ****     /** Init the module
  30:../../DaisyExamples/DaisySP//Source/Drums/synthbassdrum.h ****         \param sample_rate Audio engine sample rate.
  31:../../DaisyExamples/DaisySP//Source/Drums/synthbassdrum.h ****     */
  32:../../DaisyExamples/DaisySP//Source/Drums/synthbassdrum.h ****     void Init(float sample_rate);
  33:../../DaisyExamples/DaisySP//Source/Drums/synthbassdrum.h **** 
  34:../../DaisyExamples/DaisySP//Source/Drums/synthbassdrum.h ****     /** Get the next sample.
  35:../../DaisyExamples/DaisySP//Source/Drums/synthbassdrum.h ****         \param in Trigger the click.
  36:../../DaisyExamples/DaisySP//Source/Drums/synthbassdrum.h ****     */
  37:../../DaisyExamples/DaisySP//Source/Drums/synthbassdrum.h ****     float Process(float in);
  38:../../DaisyExamples/DaisySP//Source/Drums/synthbassdrum.h **** 
  39:../../DaisyExamples/DaisySP//Source/Drums/synthbassdrum.h ****   private:
  40:../../DaisyExamples/DaisySP//Source/Drums/synthbassdrum.h ****     float lp_;
  41:../../DaisyExamples/DaisySP//Source/Drums/synthbassdrum.h ****     float hp_;
  42:../../DaisyExamples/DaisySP//Source/Drums/synthbassdrum.h ****     Svf   filter_;
  43:../../DaisyExamples/DaisySP//Source/Drums/synthbassdrum.h **** };
  44:../../DaisyExamples/DaisySP//Source/Drums/synthbassdrum.h **** 
  45:../../DaisyExamples/DaisySP//Source/Drums/synthbassdrum.h **** /**  
  46:../../DaisyExamples/DaisySP//Source/Drums/synthbassdrum.h ****        @brief Attack Noise generator for SyntheticBassDrum. 
  47:../../DaisyExamples/DaisySP//Source/Drums/synthbassdrum.h ****        @author Ben Sergentanis
  48:../../DaisyExamples/DaisySP//Source/Drums/synthbassdrum.h ****        @date Jan 2021
  49:../../DaisyExamples/DaisySP//Source/Drums/synthbassdrum.h ****        Ported from pichenettes/eurorack/plaits/dsp/drums/synthetic_bass_drum.h \n
  50:../../DaisyExamples/DaisySP//Source/Drums/synthbassdrum.h ****        to an independent module. \n
  51:../../DaisyExamples/DaisySP//Source/Drums/synthbassdrum.h ****        Original code written by Emilie Gillet in 2016. \n
  52:../../DaisyExamples/DaisySP//Source/Drums/synthbassdrum.h **** */
  53:../../DaisyExamples/DaisySP//Source/Drums/synthbassdrum.h **** class SyntheticBassDrumAttackNoise
  54:../../DaisyExamples/DaisySP//Source/Drums/synthbassdrum.h **** {
  55:../../DaisyExamples/DaisySP//Source/Drums/synthbassdrum.h ****   public:
  56:../../DaisyExamples/DaisySP//Source/Drums/synthbassdrum.h ****     SyntheticBassDrumAttackNoise() {}
  57:../../DaisyExamples/DaisySP//Source/Drums/synthbassdrum.h ****     ~SyntheticBassDrumAttackNoise() {}
  58:../../DaisyExamples/DaisySP//Source/Drums/synthbassdrum.h **** 
  59:../../DaisyExamples/DaisySP//Source/Drums/synthbassdrum.h ****     /** Init the module */
  60:../../DaisyExamples/DaisySP//Source/Drums/synthbassdrum.h ****     void Init();
  61:../../DaisyExamples/DaisySP//Source/Drums/synthbassdrum.h **** 
  62:../../DaisyExamples/DaisySP//Source/Drums/synthbassdrum.h ****     /** Get the next sample. */
  63:../../DaisyExamples/DaisySP//Source/Drums/synthbassdrum.h ****     float Process();
  64:../../DaisyExamples/DaisySP//Source/Drums/synthbassdrum.h **** 
ARM GAS  /var/folders/b5/3l92j93d5t1__l78tfntmwyr0000gn/T//ccOBeKL9.s 			page 14


  65:../../DaisyExamples/DaisySP//Source/Drums/synthbassdrum.h ****   private:
  66:../../DaisyExamples/DaisySP//Source/Drums/synthbassdrum.h ****     float lp_;
  67:../../DaisyExamples/DaisySP//Source/Drums/synthbassdrum.h ****     float hp_;
  68:../../DaisyExamples/DaisySP//Source/Drums/synthbassdrum.h **** };
  69:../../DaisyExamples/DaisySP//Source/Drums/synthbassdrum.h **** 
  70:../../DaisyExamples/DaisySP//Source/Drums/synthbassdrum.h **** /**  
  71:../../DaisyExamples/DaisySP//Source/Drums/synthbassdrum.h ****        @brief Naive bass drum model (modulated oscillator with FM + envelope).
  72:../../DaisyExamples/DaisySP//Source/Drums/synthbassdrum.h ****        @author Ben Sergentanis
  73:../../DaisyExamples/DaisySP//Source/Drums/synthbassdrum.h ****        @date Jan 2021
  74:../../DaisyExamples/DaisySP//Source/Drums/synthbassdrum.h ****        Inadvertently 909-ish. \n \n 
  75:../../DaisyExamples/DaisySP//Source/Drums/synthbassdrum.h ****        Ported from pichenettes/eurorack/plaits/dsp/drums/synthetic_bass_drum.h \n
  76:../../DaisyExamples/DaisySP//Source/Drums/synthbassdrum.h ****        to an independent module. \n
  77:../../DaisyExamples/DaisySP//Source/Drums/synthbassdrum.h ****        Original code written by Emilie Gillet in 2016. \n
  78:../../DaisyExamples/DaisySP//Source/Drums/synthbassdrum.h **** */
  79:../../DaisyExamples/DaisySP//Source/Drums/synthbassdrum.h **** class SyntheticBassDrum
  80:../../DaisyExamples/DaisySP//Source/Drums/synthbassdrum.h **** {
  81:../../DaisyExamples/DaisySP//Source/Drums/synthbassdrum.h ****   public:
  82:../../DaisyExamples/DaisySP//Source/Drums/synthbassdrum.h ****     SyntheticBassDrum() {}
  83:../../DaisyExamples/DaisySP//Source/Drums/synthbassdrum.h ****     ~SyntheticBassDrum() {}
 208              		.loc 11 83 5 is_stmt 1 view -0
 209              		.cfi_startproc
 210              		@ args = 0, pretend = 0, frame = 0
 211              		@ frame_needed = 0, uses_anonymous_args = 0
 212              		@ link register save eliminated.
 213              	.LBB377:
 214              	.LBI377:
  57:../../DaisyExamples/DaisySP//Source/Drums/synthbassdrum.h **** 
 215              		.loc 11 57 5 view .LVU25
  57:../../DaisyExamples/DaisySP//Source/Drums/synthbassdrum.h **** 
 216              		.loc 11 57 5 is_stmt 0 view .LVU26
 217              	.LBE377:
 218              	.LBB378:
 219              	.LBI378:
  27:../../DaisyExamples/DaisySP//Source/Drums/synthbassdrum.h **** 
 220              		.loc 11 27 5 is_stmt 1 view .LVU27
 221              	.LBB379:
 222              	.LBI379:
 223              		.loc 9 22 5 view .LVU28
 224              		.loc 9 22 5 is_stmt 0 view .LVU29
 225              	.LBE379:
 226              	.LBE378:
 227              		.loc 11 83 27 view .LVU30
 228 0000 7047     		bx	lr
 229              		.cfi_endproc
 230              	.LFE4297:
 232              		.weak	_ZN7daisysp17SyntheticBassDrumD1Ev
 233              		.thumb_set _ZN7daisysp17SyntheticBassDrumD1Ev,_ZN7daisysp17SyntheticBassDrumD2Ev
 234 0002 00BF     		.section	.text._ZN7daisysp5MetroD2Ev,"axG",%progbits,_ZN7daisysp5MetroD5Ev,comdat
 235              		.align	1
 236              		.p2align 2,,3
 237              		.weak	_ZN7daisysp5MetroD2Ev
 238              		.syntax unified
 239              		.thumb
 240              		.thumb_func
 242              	_ZN7daisysp5MetroD2Ev:
 243              	.LVL7:
 244              	.LFB4760:
ARM GAS  /var/folders/b5/3l92j93d5t1__l78tfntmwyr0000gn/T//ccOBeKL9.s 			page 15


 245              		.file 12 "../../DaisyExamples/DaisySP//Source/Utility/metro.h"
   1:../../DaisyExamples/DaisySP//Source/Utility/metro.h **** #pragma once
   2:../../DaisyExamples/DaisySP//Source/Utility/metro.h **** #ifndef DSY_METRO_H
   3:../../DaisyExamples/DaisySP//Source/Utility/metro.h **** #define DSY_METRO_H
   4:../../DaisyExamples/DaisySP//Source/Utility/metro.h **** #include <stdint.h>
   5:../../DaisyExamples/DaisySP//Source/Utility/metro.h **** #ifdef __cplusplus
   6:../../DaisyExamples/DaisySP//Source/Utility/metro.h **** 
   7:../../DaisyExamples/DaisySP//Source/Utility/metro.h **** namespace daisysp
   8:../../DaisyExamples/DaisySP//Source/Utility/metro.h **** {
   9:../../DaisyExamples/DaisySP//Source/Utility/metro.h **** /** Creates a clock signal at a specific frequency.
  10:../../DaisyExamples/DaisySP//Source/Utility/metro.h **** */
  11:../../DaisyExamples/DaisySP//Source/Utility/metro.h **** class Metro
  12:../../DaisyExamples/DaisySP//Source/Utility/metro.h **** {
  13:../../DaisyExamples/DaisySP//Source/Utility/metro.h ****   public:
  14:../../DaisyExamples/DaisySP//Source/Utility/metro.h ****     Metro() {}
  15:../../DaisyExamples/DaisySP//Source/Utility/metro.h ****     ~Metro() {}
 246              		.loc 12 15 5 is_stmt 1 view -0
 247              		.cfi_startproc
 248              		@ args = 0, pretend = 0, frame = 0
 249              		@ frame_needed = 0, uses_anonymous_args = 0
 250              		@ link register save eliminated.
 251              		.loc 12 15 15 is_stmt 0 view .LVU32
 252 0000 7047     		bx	lr
 253              		.cfi_endproc
 254              	.LFE4760:
 256              		.weak	_ZN7daisysp5MetroD1Ev
 257              		.thumb_set _ZN7daisysp5MetroD1Ev,_ZN7daisysp5MetroD2Ev
 258 0002 00BF     		.section	.text._ZN7daisysp5HiHatINS_11SquareNoiseENS_9LinearVCAELb1EED2Ev,"axG",%progbits,_ZN7dais
 259              		.align	1
 260              		.p2align 2,,3
 261              		.weak	_ZN7daisysp5HiHatINS_11SquareNoiseENS_9LinearVCAELb1EED2Ev
 262              		.syntax unified
 263              		.thumb
 264              		.thumb_func
 266              	_ZN7daisysp5HiHatINS_11SquareNoiseENS_9LinearVCAELb1EED2Ev:
 267              	.LVL8:
 268              	.LFB5418:
 269              		.file 13 "../../DaisyExamples/DaisySP//Source/Drums/hihat.h"
   1:../../DaisyExamples/DaisySP//Source/Drums/hihat.h **** #pragma once
   2:../../DaisyExamples/DaisySP//Source/Drums/hihat.h **** #ifndef DSY_HIHAT_H
   3:../../DaisyExamples/DaisySP//Source/Drums/hihat.h **** #define DSY_HIHAT_H
   4:../../DaisyExamples/DaisySP//Source/Drums/hihat.h **** 
   5:../../DaisyExamples/DaisySP//Source/Drums/hihat.h **** #include "Filters/svf.h"
   6:../../DaisyExamples/DaisySP//Source/Drums/hihat.h **** #include "Synthesis/oscillator.h"
   7:../../DaisyExamples/DaisySP//Source/Drums/hihat.h **** 
   8:../../DaisyExamples/DaisySP//Source/Drums/hihat.h **** #include <stdint.h>
   9:../../DaisyExamples/DaisySP//Source/Drums/hihat.h **** #include <stdlib.h>
  10:../../DaisyExamples/DaisySP//Source/Drums/hihat.h **** #ifdef __cplusplus
  11:../../DaisyExamples/DaisySP//Source/Drums/hihat.h **** 
  12:../../DaisyExamples/DaisySP//Source/Drums/hihat.h **** /** @file hihat.h */
  13:../../DaisyExamples/DaisySP//Source/Drums/hihat.h **** 
  14:../../DaisyExamples/DaisySP//Source/Drums/hihat.h **** namespace daisysp
  15:../../DaisyExamples/DaisySP//Source/Drums/hihat.h **** {
  16:../../DaisyExamples/DaisySP//Source/Drums/hihat.h **** /**  
  17:../../DaisyExamples/DaisySP//Source/Drums/hihat.h ****        @brief 808 style "metallic noise" with 6 square oscillators.
  18:../../DaisyExamples/DaisySP//Source/Drums/hihat.h ****        @author Ben Sergentanis
  19:../../DaisyExamples/DaisySP//Source/Drums/hihat.h ****        @date Jan 2021
ARM GAS  /var/folders/b5/3l92j93d5t1__l78tfntmwyr0000gn/T//ccOBeKL9.s 			page 16


  20:../../DaisyExamples/DaisySP//Source/Drums/hihat.h ****        Ported from pichenettes/eurorack/plaits/dsp/drums/hihat.h \n
  21:../../DaisyExamples/DaisySP//Source/Drums/hihat.h ****        to an independent module. \n
  22:../../DaisyExamples/DaisySP//Source/Drums/hihat.h ****        Original code written by Emilie Gillet in 2016. \n
  23:../../DaisyExamples/DaisySP//Source/Drums/hihat.h **** */
  24:../../DaisyExamples/DaisySP//Source/Drums/hihat.h **** class SquareNoise
  25:../../DaisyExamples/DaisySP//Source/Drums/hihat.h **** {
  26:../../DaisyExamples/DaisySP//Source/Drums/hihat.h ****   public:
  27:../../DaisyExamples/DaisySP//Source/Drums/hihat.h ****     SquareNoise() {}
  28:../../DaisyExamples/DaisySP//Source/Drums/hihat.h ****     ~SquareNoise() {}
  29:../../DaisyExamples/DaisySP//Source/Drums/hihat.h **** 
  30:../../DaisyExamples/DaisySP//Source/Drums/hihat.h ****     void Init(float sample_rate);
  31:../../DaisyExamples/DaisySP//Source/Drums/hihat.h **** 
  32:../../DaisyExamples/DaisySP//Source/Drums/hihat.h ****     float Process(float f0);
  33:../../DaisyExamples/DaisySP//Source/Drums/hihat.h **** 
  34:../../DaisyExamples/DaisySP//Source/Drums/hihat.h ****   private:
  35:../../DaisyExamples/DaisySP//Source/Drums/hihat.h ****     uint32_t phase_[6];
  36:../../DaisyExamples/DaisySP//Source/Drums/hihat.h **** };
  37:../../DaisyExamples/DaisySP//Source/Drums/hihat.h **** 
  38:../../DaisyExamples/DaisySP//Source/Drums/hihat.h **** /**  
  39:../../DaisyExamples/DaisySP//Source/Drums/hihat.h ****        @brief Ring mod style metallic noise generator.
  40:../../DaisyExamples/DaisySP//Source/Drums/hihat.h ****        @author Ben Sergentanis
  41:../../DaisyExamples/DaisySP//Source/Drums/hihat.h ****        @date Jan 2021
  42:../../DaisyExamples/DaisySP//Source/Drums/hihat.h ****        Ported from pichenettes/eurorack/plaits/dsp/drums/hihat.h \n
  43:../../DaisyExamples/DaisySP//Source/Drums/hihat.h ****        to an independent module. \n
  44:../../DaisyExamples/DaisySP//Source/Drums/hihat.h ****        Original code written by Emilie Gillet in 2016. \n
  45:../../DaisyExamples/DaisySP//Source/Drums/hihat.h **** */
  46:../../DaisyExamples/DaisySP//Source/Drums/hihat.h **** class RingModNoise
  47:../../DaisyExamples/DaisySP//Source/Drums/hihat.h **** {
  48:../../DaisyExamples/DaisySP//Source/Drums/hihat.h ****   public:
  49:../../DaisyExamples/DaisySP//Source/Drums/hihat.h ****     RingModNoise() {}
  50:../../DaisyExamples/DaisySP//Source/Drums/hihat.h ****     ~RingModNoise() {}
  51:../../DaisyExamples/DaisySP//Source/Drums/hihat.h **** 
  52:../../DaisyExamples/DaisySP//Source/Drums/hihat.h ****     void Init(float sample_rate);
  53:../../DaisyExamples/DaisySP//Source/Drums/hihat.h **** 
  54:../../DaisyExamples/DaisySP//Source/Drums/hihat.h ****     float Process(float f0);
  55:../../DaisyExamples/DaisySP//Source/Drums/hihat.h **** 
  56:../../DaisyExamples/DaisySP//Source/Drums/hihat.h ****   private:
  57:../../DaisyExamples/DaisySP//Source/Drums/hihat.h ****     float      ProcessPair(Oscillator* osc, float f1, float f2);
  58:../../DaisyExamples/DaisySP//Source/Drums/hihat.h ****     Oscillator oscillator_[6];
  59:../../DaisyExamples/DaisySP//Source/Drums/hihat.h **** 
  60:../../DaisyExamples/DaisySP//Source/Drums/hihat.h ****     float sample_rate_;
  61:../../DaisyExamples/DaisySP//Source/Drums/hihat.h **** };
  62:../../DaisyExamples/DaisySP//Source/Drums/hihat.h **** 
  63:../../DaisyExamples/DaisySP//Source/Drums/hihat.h **** /**  
  64:../../DaisyExamples/DaisySP//Source/Drums/hihat.h ****        @brief Swing type VCA
  65:../../DaisyExamples/DaisySP//Source/Drums/hihat.h ****        @author Ben Sergentanis
  66:../../DaisyExamples/DaisySP//Source/Drums/hihat.h ****        @date Jan 2021
  67:../../DaisyExamples/DaisySP//Source/Drums/hihat.h ****        Ported from pichenettes/eurorack/plaits/dsp/drums/hihat.h \n
  68:../../DaisyExamples/DaisySP//Source/Drums/hihat.h ****        to an independent module. \n
  69:../../DaisyExamples/DaisySP//Source/Drums/hihat.h ****        Original code written by Emilie Gillet in 2016. \n
  70:../../DaisyExamples/DaisySP//Source/Drums/hihat.h **** */
  71:../../DaisyExamples/DaisySP//Source/Drums/hihat.h **** class SwingVCA
  72:../../DaisyExamples/DaisySP//Source/Drums/hihat.h **** {
  73:../../DaisyExamples/DaisySP//Source/Drums/hihat.h ****   public:
  74:../../DaisyExamples/DaisySP//Source/Drums/hihat.h ****     float operator()(float s, float gain)
  75:../../DaisyExamples/DaisySP//Source/Drums/hihat.h ****     {
  76:../../DaisyExamples/DaisySP//Source/Drums/hihat.h ****         s *= s > 0.0f ? 10.0f : 0.1f;
ARM GAS  /var/folders/b5/3l92j93d5t1__l78tfntmwyr0000gn/T//ccOBeKL9.s 			page 17


  77:../../DaisyExamples/DaisySP//Source/Drums/hihat.h ****         s = s / (1.0f + fabsf(s));
  78:../../DaisyExamples/DaisySP//Source/Drums/hihat.h ****         return (s + 1.0f) * gain;
  79:../../DaisyExamples/DaisySP//Source/Drums/hihat.h ****     }
  80:../../DaisyExamples/DaisySP//Source/Drums/hihat.h **** };
  81:../../DaisyExamples/DaisySP//Source/Drums/hihat.h **** 
  82:../../DaisyExamples/DaisySP//Source/Drums/hihat.h **** /**  
  83:../../DaisyExamples/DaisySP//Source/Drums/hihat.h ****        @brief Linear type VCA
  84:../../DaisyExamples/DaisySP//Source/Drums/hihat.h ****        @author Ben Sergentanis
  85:../../DaisyExamples/DaisySP//Source/Drums/hihat.h ****        @date Jan 2021
  86:../../DaisyExamples/DaisySP//Source/Drums/hihat.h ****        Ported from pichenettes/eurorack/plaits/dsp/drums/hihat.h \n
  87:../../DaisyExamples/DaisySP//Source/Drums/hihat.h ****        to an independent module. \n
  88:../../DaisyExamples/DaisySP//Source/Drums/hihat.h ****        Original code written by Emilie Gillet in 2016. \n
  89:../../DaisyExamples/DaisySP//Source/Drums/hihat.h **** */
  90:../../DaisyExamples/DaisySP//Source/Drums/hihat.h **** class LinearVCA
  91:../../DaisyExamples/DaisySP//Source/Drums/hihat.h **** {
  92:../../DaisyExamples/DaisySP//Source/Drums/hihat.h ****   public:
  93:../../DaisyExamples/DaisySP//Source/Drums/hihat.h ****     float operator()(float s, float gain) { return s * gain; }
  94:../../DaisyExamples/DaisySP//Source/Drums/hihat.h **** };
  95:../../DaisyExamples/DaisySP//Source/Drums/hihat.h **** 
  96:../../DaisyExamples/DaisySP//Source/Drums/hihat.h **** /**  
  97:../../DaisyExamples/DaisySP//Source/Drums/hihat.h ****        @brief 808 HH, with a few extra parameters to push things to the CY territory...
  98:../../DaisyExamples/DaisySP//Source/Drums/hihat.h ****        @author Ben Sergentanis
  99:../../DaisyExamples/DaisySP//Source/Drums/hihat.h ****        @date Jan 2021
 100:../../DaisyExamples/DaisySP//Source/Drums/hihat.h ****        The template parameter MetallicNoiseSource allows another kind of "metallic \n
 101:../../DaisyExamples/DaisySP//Source/Drums/hihat.h ****        noise" to be used, for results which are more similar to KR-55 or FM hi-hats. \n \n 
 102:../../DaisyExamples/DaisySP//Source/Drums/hihat.h ****        Ported from pichenettes/eurorack/plaits/dsp/drums/hihat.h \n
 103:../../DaisyExamples/DaisySP//Source/Drums/hihat.h ****        to an independent module. \n
 104:../../DaisyExamples/DaisySP//Source/Drums/hihat.h ****        Original code written by Emilie Gillet in 2016. \n
 105:../../DaisyExamples/DaisySP//Source/Drums/hihat.h **** */
 106:../../DaisyExamples/DaisySP//Source/Drums/hihat.h **** template <typename MetallicNoiseSource = SquareNoise,
 107:../../DaisyExamples/DaisySP//Source/Drums/hihat.h ****           typename VCA                 = LinearVCA,
 108:../../DaisyExamples/DaisySP//Source/Drums/hihat.h ****           bool resonance               = true>
 109:../../DaisyExamples/DaisySP//Source/Drums/hihat.h **** class HiHat
 110:../../DaisyExamples/DaisySP//Source/Drums/hihat.h **** {
 111:../../DaisyExamples/DaisySP//Source/Drums/hihat.h ****   public:
 112:../../DaisyExamples/DaisySP//Source/Drums/hihat.h ****     HiHat() {}
 113:../../DaisyExamples/DaisySP//Source/Drums/hihat.h ****     ~HiHat() {}
 270              		.loc 13 113 5 is_stmt 1 view -0
 271              		.cfi_startproc
 272              		@ args = 0, pretend = 0, frame = 0
 273              		@ frame_needed = 0, uses_anonymous_args = 0
 274              		@ link register save eliminated.
 275              	.LBB380:
 276              	.LBI380:
 277              		.loc 9 22 5 view .LVU34
 278              		.loc 9 22 5 is_stmt 0 view .LVU35
 279              	.LBE380:
 280              	.LBB381:
 281              	.LBI381:
 282              		.loc 9 22 5 is_stmt 1 view .LVU36
 283              		.loc 9 22 5 is_stmt 0 view .LVU37
 284              	.LBE381:
 285              	.LBB382:
 286              	.LBI382:
  28:../../DaisyExamples/DaisySP//Source/Drums/hihat.h **** 
 287              		.loc 13 28 5 is_stmt 1 view .LVU38
  28:../../DaisyExamples/DaisySP//Source/Drums/hihat.h **** 
ARM GAS  /var/folders/b5/3l92j93d5t1__l78tfntmwyr0000gn/T//ccOBeKL9.s 			page 18


 288              		.loc 13 28 5 is_stmt 0 view .LVU39
 289              	.LBE382:
 290              		.loc 13 113 15 view .LVU40
 291 0000 7047     		bx	lr
 292              		.cfi_endproc
 293              	.LFE5418:
 295              		.weak	_ZN7daisysp5HiHatINS_11SquareNoiseENS_9LinearVCAELb1EED1Ev
 296              		.thumb_set _ZN7daisysp5HiHatINS_11SquareNoiseENS_9LinearVCAELb1EED1Ev,_ZN7daisysp5HiHatINS_11Squar
 297 0002 00BF     		.section	.text._ZN6EZ_DSP9DelayLineIfLj96000EED2Ev,"axG",%progbits,_ZN6EZ_DSP9DelayLineIfLj96000EE
 298              		.align	1
 299              		.p2align 2,,3
 300              		.weak	_ZN6EZ_DSP9DelayLineIfLj96000EED2Ev
 301              		.syntax unified
 302              		.thumb
 303              		.thumb_func
 305              	_ZN6EZ_DSP9DelayLineIfLj96000EED2Ev:
 306              	.LVL9:
 307              	.LFB5421:
 308              		.file 14 "../EZ_DSP/delay_line.h"
   1:../EZ_DSP/delay_line.h **** #pragma once
   2:../EZ_DSP/delay_line.h **** #ifndef EZ_DSP_DELAY_LINE_H
   3:../EZ_DSP/delay_line.h **** #define EZ_DSP_DELAY_LINE_H
   4:../EZ_DSP/delay_line.h **** #include <stdlib.h>
   5:../EZ_DSP/delay_line.h **** #include <stdint.h>
   6:../EZ_DSP/delay_line.h **** 
   7:../EZ_DSP/delay_line.h **** namespace EZ_DSP
   8:../EZ_DSP/delay_line.h **** {
   9:../EZ_DSP/delay_line.h **** template <typename sampleType, size_t maxSize>
  10:../EZ_DSP/delay_line.h **** class DelayLine 
  11:../EZ_DSP/delay_line.h **** {
  12:../EZ_DSP/delay_line.h **** public:
  13:../EZ_DSP/delay_line.h ****     DelayLine(){}
  14:../EZ_DSP/delay_line.h ****     ~DelayLine(){}
 309              		.loc 14 14 5 is_stmt 1 view -0
 310              		.cfi_startproc
 311              		@ args = 0, pretend = 0, frame = 0
 312              		@ frame_needed = 0, uses_anonymous_args = 0
 313              		@ link register save eliminated.
 314              		.loc 14 14 18 is_stmt 0 view .LVU42
 315 0000 7047     		bx	lr
 316              		.cfi_endproc
 317              	.LFE5421:
 319              		.weak	_ZN6EZ_DSP9DelayLineIfLj96000EED1Ev
 320              		.thumb_set _ZN6EZ_DSP9DelayLineIfLj96000EED1Ev,_ZN6EZ_DSP9DelayLineIfLj96000EED2Ev
 321 0002 00BF     		.section	.text._Z6myfmapfff,"ax",%progbits
 322              		.align	1
 323              		.p2align 2,,3
 324              		.global	_Z6myfmapfff
 325              		.syntax unified
 326              		.thumb
 327              		.thumb_func
 329              	_Z6myfmapfff:
 330              	.LVL10:
 331              	.LFB4825:
 332              		.file 15 "MachineDaisyFile.cpp"
   1:MachineDaisyFile.cpp **** #include "daisy_seed.h"
   2:MachineDaisyFile.cpp **** #include "daisysp.h"
ARM GAS  /var/folders/b5/3l92j93d5t1__l78tfntmwyr0000gn/T//ccOBeKL9.s 			page 19


   3:MachineDaisyFile.cpp **** #include "../EZ_DSP/EZ_DSP.h"
   4:MachineDaisyFile.cpp **** 
   5:MachineDaisyFile.cpp **** 
   6:MachineDaisyFile.cpp **** #define MAX_DELAY 96000
   7:MachineDaisyFile.cpp **** #define NUM_STEPS 4
   8:MachineDaisyFile.cpp **** 
   9:MachineDaisyFile.cpp **** using namespace daisy;
  10:MachineDaisyFile.cpp **** using namespace daisysp;
  11:MachineDaisyFile.cpp **** 
  12:MachineDaisyFile.cpp **** constexpr Pin BUTTONS = seed::D15;
  13:MachineDaisyFile.cpp **** constexpr Pin SELECTOR = seed::D16;
  14:MachineDaisyFile.cpp **** 
  15:MachineDaisyFile.cpp **** static DaisySeed hw;
  16:MachineDaisyFile.cpp **** static AdcHandle adc;
  17:MachineDaisyFile.cpp **** 
  18:MachineDaisyFile.cpp **** 
  19:MachineDaisyFile.cpp **** enum drumModes
  20:MachineDaisyFile.cpp **** {
  21:MachineDaisyFile.cpp **** 	KICK, SNARE, HAT, SYNTH_KICK
  22:MachineDaisyFile.cpp **** };
  23:MachineDaisyFile.cpp **** 
  24:MachineDaisyFile.cpp **** int drumMode = 0;
  25:MachineDaisyFile.cpp **** Switch selector;
  26:MachineDaisyFile.cpp **** float buttonValue;
  27:MachineDaisyFile.cpp **** 
  28:MachineDaisyFile.cpp **** 
  29:MachineDaisyFile.cpp **** Metro tick;
  30:MachineDaisyFile.cpp **** AnalogBassDrum kick;
  31:MachineDaisyFile.cpp **** AnalogSnareDrum snare;
  32:MachineDaisyFile.cpp **** HiHat<SquareNoise, LinearVCA, true> hat;
  33:MachineDaisyFile.cpp **** SyntheticBassDrum synthKick;
  34:MachineDaisyFile.cpp **** AdEnv kickEnv, snareEnv, hatEnv, synthEnv;
  35:MachineDaisyFile.cpp **** EZ_DSP::DelayLine<float, MAX_DELAY> DSY_SDRAM_BSS del;
  36:MachineDaisyFile.cpp **** 
  37:MachineDaisyFile.cpp **** bool snares[4] = {false, false, false, false};
  38:MachineDaisyFile.cpp **** bool kicks[4] = {false, false, false, false};
  39:MachineDaisyFile.cpp **** bool hats[4] = {false, false, false, false};
  40:MachineDaisyFile.cpp **** bool synths[4] = {false, false, false, false};
  41:MachineDaisyFile.cpp **** 
  42:MachineDaisyFile.cpp **** int step=0;
  43:MachineDaisyFile.cpp **** 
  44:MachineDaisyFile.cpp **** float delFeedback = .5f, delTime = .25f*48000, delWet = .5f;
  45:MachineDaisyFile.cpp **** bool kickOn=false, snareOn=false, hatOn=false, synthOn=false;
  46:MachineDaisyFile.cpp **** 
  47:MachineDaisyFile.cpp **** //====================================================================================
  48:MachineDaisyFile.cpp **** float myfmap(float in, float min, float max)
  49:MachineDaisyFile.cpp **** {
 333              		.loc 15 49 1 is_stmt 1 view -0
 334              		.cfi_startproc
 335              		@ args = 0, pretend = 0, frame = 0
 336              		@ frame_needed = 0, uses_anonymous_args = 0
 337              		@ link register save eliminated.
  50:MachineDaisyFile.cpp **** 	return EZ_DSP::fclamp(min + in * (max - min), min, max);
 338              		.loc 15 50 2 view .LVU44
 339              		.loc 15 50 40 is_stmt 0 view .LVU45
 340 0000 31EE607A 		vsub.f32	s14, s2, s1
 341              		.loc 15 50 23 view .LVU46
ARM GAS  /var/folders/b5/3l92j93d5t1__l78tfntmwyr0000gn/T//ccOBeKL9.s 			page 20


 342 0004 F0EE607A 		vmov.f32	s15, s1
 343 0008 E7EE007A 		vfma.f32	s15, s14, s0
 344              	.LVL11:
 345              	.LBB383:
 346              	.LBI383:
 347              		.file 16 "../EZ_DSP/dsp.h"
   1:../EZ_DSP/dsp.h **** #pragma once
   2:../EZ_DSP/dsp.h **** #ifndef EZ_DSP_UTIL
   3:../EZ_DSP/dsp.h **** #define EZ_DSP_UTIL
   4:../EZ_DSP/dsp.h **** #include <cassert>
   5:../EZ_DSP/dsp.h **** #include <cstdint>
   6:../EZ_DSP/dsp.h **** #include <random>
   7:../EZ_DSP/dsp.h **** #include <cmath>
   8:../EZ_DSP/dsp.h **** 
   9:../EZ_DSP/dsp.h **** #define PI_F 3.1415927410125732421875f
  10:../EZ_DSP/dsp.h **** #define TWOPI_F (2.0f * PI_F)
  11:../EZ_DSP/dsp.h **** #define HALFPI_F (PI_F * 0.5f)
  12:../EZ_DSP/dsp.h **** namespace EZ_DSP 
  13:../EZ_DSP/dsp.h **** {
  14:../EZ_DSP/dsp.h ****     // fast maximum and minimum for floats, uses assembly if arm architecture
  15:../EZ_DSP/dsp.h ****     inline float fmax(float a, float b)
  16:../EZ_DSP/dsp.h ****     {
  17:../EZ_DSP/dsp.h ****         float max;
  18:../EZ_DSP/dsp.h ****         #ifdef __arm__
  19:../EZ_DSP/dsp.h ****             asm("vmaxnm.f32 %[d], %[n], %[m]" : [d] "=t"(max) : [n] "t"(a), [m] "t"(b) :);
  20:../EZ_DSP/dsp.h ****         #else
  21:../EZ_DSP/dsp.h ****             max = (a > b) ? a : b;
  22:../EZ_DSP/dsp.h ****         #endif // __arm__
  23:../EZ_DSP/dsp.h ****             return max;
  24:../EZ_DSP/dsp.h ****     }
  25:../EZ_DSP/dsp.h **** 
  26:../EZ_DSP/dsp.h ****     inline float fmin(float a, float b)
  27:../EZ_DSP/dsp.h ****     {
  28:../EZ_DSP/dsp.h ****         float min;
  29:../EZ_DSP/dsp.h ****         #ifdef __arm__
  30:../EZ_DSP/dsp.h ****             asm("vminnm.f32 %[d], %[n], %[m]" : [d] "=t"(min) : [n] "t"(a), [m] "t"(b) :);
  31:../EZ_DSP/dsp.h ****         #else 
  32:../EZ_DSP/dsp.h ****             min = a < b ? a : b;
  33:../EZ_DSP/dsp.h ****         #endif //__arm__
  34:../EZ_DSP/dsp.h ****             return min;
  35:../EZ_DSP/dsp.h ****     }
  36:../EZ_DSP/dsp.h ****     // clamp for floats
  37:../EZ_DSP/dsp.h ****     inline float fclamp(float in, float min, float max)
 348              		.loc 16 37 18 is_stmt 1 view .LVU47
 349              	.LBE383:
  38:../EZ_DSP/dsp.h ****     {
  39:../EZ_DSP/dsp.h ****         return fmin(fmax(in,min),max);
 350              		.loc 16 39 9 view .LVU48
 351              	.LBB388:
 352              	.LBB384:
 353              	.LBI384:
  15:../EZ_DSP/dsp.h ****     {
 354              		.loc 16 15 18 view .LVU49
 355              	.LBB385:
  17:../EZ_DSP/dsp.h ****         #ifdef __arm__
 356              		.loc 16 17 9 view .LVU50
  19:../EZ_DSP/dsp.h ****         #else
ARM GAS  /var/folders/b5/3l92j93d5t1__l78tfntmwyr0000gn/T//ccOBeKL9.s 			page 21


 357              		.loc 16 19 13 view .LVU51
 358              		.syntax unified
 359              	@ 19 "../EZ_DSP/dsp.h" 1
 360 000c C7FEA07A 		vmaxnm.f32 s15, s15, s1
 361              	@ 0 "" 2
 362              	.LVL12:
  23:../EZ_DSP/dsp.h ****     }
 363              		.loc 16 23 13 view .LVU52
  23:../EZ_DSP/dsp.h ****     }
 364              		.loc 16 23 13 is_stmt 0 view .LVU53
 365              		.thumb
 366              		.syntax unified
 367              	.LBE385:
 368              	.LBE384:
 369              	.LBB386:
 370              	.LBI386:
  26:../EZ_DSP/dsp.h ****     {
 371              		.loc 16 26 18 is_stmt 1 view .LVU54
 372              	.LBB387:
  28:../EZ_DSP/dsp.h ****         #ifdef __arm__
 373              		.loc 16 28 9 view .LVU55
  30:../EZ_DSP/dsp.h ****         #else 
 374              		.loc 16 30 13 view .LVU56
 375              		.syntax unified
 376              	@ 30 "../EZ_DSP/dsp.h" 1
 377 0010 87FEC10A 		vminnm.f32 s0, s15, s2
 378              	@ 0 "" 2
 379              	.LVL13:
  34:../EZ_DSP/dsp.h ****     }
 380              		.loc 16 34 13 view .LVU57
  34:../EZ_DSP/dsp.h ****     }
 381              		.loc 16 34 13 is_stmt 0 view .LVU58
 382              		.thumb
 383              		.syntax unified
 384              	.LBE387:
 385              	.LBE386:
 386              	.LBE388:
  51:MachineDaisyFile.cpp **** }
 387              		.loc 15 51 1 view .LVU59
 388 0014 7047     		bx	lr
 389              		.cfi_endproc
 390              	.LFE4825:
 392 0016 00BF     		.section	.text._Z15isButtonPressedi,"ax",%progbits
 393              		.align	1
 394              		.p2align 2,,3
 395              		.global	_Z15isButtonPressedi
 396              		.syntax unified
 397              		.thumb
 398              		.thumb_func
 400              	_Z15isButtonPressedi:
 401              	.LVL14:
 402              	.LFB4826:
  52:MachineDaisyFile.cpp **** 
  53:MachineDaisyFile.cpp **** //====================================================================================
  54:MachineDaisyFile.cpp **** bool isButtonPressed(int buttonIdx)
  55:MachineDaisyFile.cpp **** {
 403              		.loc 15 55 1 is_stmt 1 view -0
ARM GAS  /var/folders/b5/3l92j93d5t1__l78tfntmwyr0000gn/T//ccOBeKL9.s 			page 22


 404              		.cfi_startproc
 405              		@ args = 0, pretend = 0, frame = 0
 406              		@ frame_needed = 0, uses_anonymous_args = 0
  56:MachineDaisyFile.cpp **** 	buttonValue = hw.adc.GetFloat(0);
 407              		.loc 15 56 2 view .LVU61
  55:MachineDaisyFile.cpp **** 	buttonValue = hw.adc.GetFloat(0);
 408              		.loc 15 55 1 is_stmt 0 view .LVU62
 409 0000 10B5     		push	{r4, lr}
 410              		.cfi_def_cfa_offset 8
 411              		.cfi_offset 4, -8
 412              		.cfi_offset 14, -4
 413              		.loc 15 56 31 view .LVU63
 414 0002 0021     		movs	r1, #0
  55:MachineDaisyFile.cpp **** 	buttonValue = hw.adc.GetFloat(0);
 415              		.loc 15 55 1 view .LVU64
 416 0004 0446     		mov	r4, r0
 417              		.loc 15 56 31 view .LVU65
 418 0006 3248     		ldr	r0, .L26
 419              	.LVL15:
 420              		.loc 15 56 31 view .LVU66
 421 0008 FFF7FEFF 		bl	_ZNK5daisy9AdcHandle8GetFloatEh
 422              	.LVL16:
  57:MachineDaisyFile.cpp **** 	buttonValue = myfmap(buttonValue, 0, 3300); // maps 0-1 value to milliamp values
 423              		.loc 15 57 2 is_stmt 1 view .LVU67
 424              	.LBB389:
 425              	.LBI389:
  48:MachineDaisyFile.cpp **** {
 426              		.loc 15 48 7 view .LVU68
 427              	.LBB390:
  50:MachineDaisyFile.cpp **** }
 428              		.loc 15 50 2 view .LVU69
  50:MachineDaisyFile.cpp **** }
 429              		.loc 15 50 23 is_stmt 0 view .LVU70
 430 000c DFED317A 		vldr.32	s15, .L26+4
 431 0010 DFED316A 		vldr.32	s13, .L26+8
 432 0014 B0EE677A 		vmov.f32	s14, s15
 433              	.LBE390:
 434              	.LBE389:
  58:MachineDaisyFile.cpp **** 	if (buttonValue < 1850 && buttonIdx == 0)
 435              		.loc 15 58 2 view .LVU71
 436 0018 9FED306A 		vldr.32	s12, .L26+12
  57:MachineDaisyFile.cpp **** 	if (buttonValue < 1850 && buttonIdx == 0)
 437              		.loc 15 57 14 view .LVU72
 438 001c 304B     		ldr	r3, .L26+16
 439              	.LBB399:
 440              	.LBB397:
  50:MachineDaisyFile.cpp **** }
 441              		.loc 15 50 23 view .LVU73
 442 001e A0EE267A 		vfma.f32	s14, s0, s13
 443              	.LVL17:
 444              	.LBB391:
 445              	.LBI391:
  37:../EZ_DSP/dsp.h ****     {
 446              		.loc 16 37 18 is_stmt 1 view .LVU74
 447              	.LBE391:
 448              	.LBE397:
 449              	.LBE399:
ARM GAS  /var/folders/b5/3l92j93d5t1__l78tfntmwyr0000gn/T//ccOBeKL9.s 			page 23


 450              		.loc 16 39 9 view .LVU75
 451              	.LBB400:
 452              	.LBB398:
 453              	.LBB396:
 454              	.LBB392:
 455              	.LBI392:
  15:../EZ_DSP/dsp.h ****     {
 456              		.loc 16 15 18 view .LVU76
 457              	.LBB393:
  17:../EZ_DSP/dsp.h ****         #ifdef __arm__
 458              		.loc 16 17 9 view .LVU77
  19:../EZ_DSP/dsp.h ****         #else
 459              		.loc 16 19 13 view .LVU78
 460              		.syntax unified
 461              	@ 19 "../EZ_DSP/dsp.h" 1
 462 0022 C7FE277A 		vmaxnm.f32 s15, s14, s15
 463              	@ 0 "" 2
 464              	.LVL18:
  23:../EZ_DSP/dsp.h ****     }
 465              		.loc 16 23 13 view .LVU79
  23:../EZ_DSP/dsp.h ****     }
 466              		.loc 16 23 13 is_stmt 0 view .LVU80
 467              		.thumb
 468              		.syntax unified
 469              	.LBE393:
 470              	.LBE392:
 471              	.LBB394:
 472              	.LBI394:
  26:../EZ_DSP/dsp.h ****     {
 473              		.loc 16 26 18 is_stmt 1 view .LVU81
 474              	.LBB395:
  28:../EZ_DSP/dsp.h ****         #ifdef __arm__
 475              		.loc 16 28 9 view .LVU82
  30:../EZ_DSP/dsp.h ****         #else 
 476              		.loc 16 30 13 view .LVU83
 477              		.syntax unified
 478              	@ 30 "../EZ_DSP/dsp.h" 1
 479 0026 C7FEE67A 		vminnm.f32 s15, s15, s13
 480              	@ 0 "" 2
 481              	.LVL19:
  34:../EZ_DSP/dsp.h ****     }
 482              		.loc 16 34 13 view .LVU84
  34:../EZ_DSP/dsp.h ****     }
 483              		.loc 16 34 13 is_stmt 0 view .LVU85
 484              		.thumb
 485              		.syntax unified
 486              	.LBE395:
 487              	.LBE394:
 488              	.LBE396:
 489              	.LBE398:
 490              	.LBE400:
 491              		.loc 15 58 2 view .LVU86
 492 002a F4EEC67A 		vcmpe.f32	s15, s12
  57:MachineDaisyFile.cpp **** 	if (buttonValue < 1850 && buttonIdx == 0)
 493              		.loc 15 57 14 view .LVU87
 494 002e C3ED007A 		vstr.32	s15, [r3]
 495              		.loc 15 58 2 is_stmt 1 view .LVU88
ARM GAS  /var/folders/b5/3l92j93d5t1__l78tfntmwyr0000gn/T//ccOBeKL9.s 			page 24


 496 0032 F1EE10FA 		vmrs	APSR_nzcv, FPSCR
 497 0036 4CBF     		ite	mi
 498 0038 0123     		movmi	r3, #1
 499 003a 0023     		movpl	r3, #0
 500              		.loc 15 58 25 is_stmt 0 view .LVU89
 501 003c 002C     		cmp	r4, #0
 502 003e 14BF     		ite	ne
 503 0040 0020     		movne	r0, #0
 504 0042 03F00100 		andeq	r0, r3, #1
 505 0046 0028     		cmp	r0, #0
 506 0048 3ED1     		bne	.L14
  59:MachineDaisyFile.cpp **** 		return true;
  60:MachineDaisyFile.cpp **** 	if (buttonValue > 1850 && buttonValue < 2000 && buttonIdx == 1)
 507              		.loc 15 60 2 is_stmt 1 view .LVU90
 508 004a F4EEC67A 		vcmpe.f32	s15, s12
 509 004e F1EE10FA 		vmrs	APSR_nzcv, FPSCR
 510 0052 0EDD     		ble	.L15
 511              		.loc 15 60 25 is_stmt 0 discriminator 2 view .LVU91
 512 0054 9FED237A 		vldr.32	s14, .L26+20
 513 0058 F4EEC77A 		vcmpe.f32	s15, s14
 514 005c F1EE10FA 		vmrs	APSR_nzcv, FPSCR
 515 0060 4CBF     		ite	mi
 516 0062 0123     		movmi	r3, #1
 517 0064 0023     		movpl	r3, #0
 518              		.loc 15 60 47 discriminator 2 view .LVU92
 519 0066 012C     		cmp	r4, #1
 520 0068 14BF     		ite	ne
 521 006a 0023     		movne	r3, #0
 522 006c 03F00103 		andeq	r3, r3, #1
 523 0070 5BBB     		cbnz	r3, .L21
 524              	.L15:
  61:MachineDaisyFile.cpp **** 		return true;
  62:MachineDaisyFile.cpp **** 	if (buttonValue > 2000 && buttonValue < 2900 && buttonIdx == 2)
 525              		.loc 15 62 2 is_stmt 1 view .LVU93
 526 0072 9FED1C7A 		vldr.32	s14, .L26+20
 527 0076 F4EEC77A 		vcmpe.f32	s15, s14
 528 007a F1EE10FA 		vmrs	APSR_nzcv, FPSCR
 529 007e 0EDD     		ble	.L17
 530              		.loc 15 62 25 is_stmt 0 discriminator 2 view .LVU94
 531 0080 9FED197A 		vldr.32	s14, .L26+24
 532 0084 F4EEC77A 		vcmpe.f32	s15, s14
 533 0088 F1EE10FA 		vmrs	APSR_nzcv, FPSCR
 534 008c 4CBF     		ite	mi
 535 008e 0123     		movmi	r3, #1
 536 0090 0023     		movpl	r3, #0
 537              		.loc 15 62 47 discriminator 2 view .LVU95
 538 0092 022C     		cmp	r4, #2
 539 0094 14BF     		ite	ne
 540 0096 0023     		movne	r3, #0
 541 0098 03F00103 		andeq	r3, r3, #1
 542 009c ABB9     		cbnz	r3, .L21
 543              	.L17:
  63:MachineDaisyFile.cpp **** 		return true;
  64:MachineDaisyFile.cpp **** 	if (buttonValue > 2900 && buttonValue < 3100 && buttonIdx == 3)
 544              		.loc 15 64 2 is_stmt 1 view .LVU96
 545 009e 9FED127A 		vldr.32	s14, .L26+24
 546 00a2 F4EEC77A 		vcmpe.f32	s15, s14
ARM GAS  /var/folders/b5/3l92j93d5t1__l78tfntmwyr0000gn/T//ccOBeKL9.s 			page 25


 547 00a6 F1EE10FA 		vmrs	APSR_nzcv, FPSCR
 548 00aa 0DDD     		ble	.L14
 549              		.loc 15 64 25 is_stmt 0 discriminator 2 view .LVU97
 550 00ac 9FED0F7A 		vldr.32	s14, .L26+28
 551 00b0 F4EEC77A 		vcmpe.f32	s15, s14
 552 00b4 F1EE10FA 		vmrs	APSR_nzcv, FPSCR
 553 00b8 4CBF     		ite	mi
 554 00ba 0123     		movmi	r3, #1
 555 00bc 0023     		movpl	r3, #0
 556              		.loc 15 64 47 discriminator 2 view .LVU98
 557 00be 032C     		cmp	r4, #3
 558 00c0 14BF     		ite	ne
 559 00c2 0020     		movne	r0, #0
 560 00c4 03F00100 		andeq	r0, r3, #1
 561              	.L14:
  65:MachineDaisyFile.cpp **** 		return true;
  66:MachineDaisyFile.cpp **** 	else return false;
  67:MachineDaisyFile.cpp **** }
 562              		.loc 15 67 1 view .LVU99
 563 00c8 10BD     		pop	{r4, pc}
 564              	.LVL20:
 565              	.L21:
  59:MachineDaisyFile.cpp **** 	if (buttonValue > 1850 && buttonValue < 2000 && buttonIdx == 1)
 566              		.loc 15 59 10 view .LVU100
 567 00ca 1846     		mov	r0, r3
 568              		.loc 15 67 1 view .LVU101
 569 00cc 10BD     		pop	{r4, pc}
 570              	.LVL21:
 571              	.L27:
 572              		.loc 15 67 1 view .LVU102
 573 00ce 00BF     		.align	2
 574              	.L26:
 575 00d0 18000000 		.word	.LANCHOR0+24
 576 00d4 00000000 		.word	0
 577 00d8 00404E45 		.word	1162756096
 578 00dc 0040E744 		.word	1156005888
 579 00e0 00000000 		.word	.LANCHOR1
 580 00e4 0000FA44 		.word	1157234688
 581 00e8 00403545 		.word	1161117696
 582 00ec 00C04145 		.word	1161936896
 583              		.cfi_endproc
 584              	.LFE4826:
 586              		.section	.text._Z14processButtonsv,"ax",%progbits
 587              		.align	1
 588              		.p2align 2,,3
 589              		.global	_Z14processButtonsv
 590              		.syntax unified
 591              		.thumb
 592              		.thumb_func
 594              	_Z14processButtonsv:
 595              	.LFB4827:
  68:MachineDaisyFile.cpp **** //====================================================================================
  69:MachineDaisyFile.cpp **** void processButtons()
  70:MachineDaisyFile.cpp **** {
 596              		.loc 15 70 1 is_stmt 1 view -0
 597              		.cfi_startproc
 598              		@ args = 0, pretend = 0, frame = 0
ARM GAS  /var/folders/b5/3l92j93d5t1__l78tfntmwyr0000gn/T//ccOBeKL9.s 			page 26


 599              		@ frame_needed = 0, uses_anonymous_args = 0
  71:MachineDaisyFile.cpp **** 	
  72:MachineDaisyFile.cpp **** 	for (int i = 0; i < 4; i++)
 600              		.loc 15 72 2 view .LVU104
 601              	.LVL22:
 602              	.LBB401:
 603              		.loc 15 72 20 view .LVU105
 604              	.LBE401:
  70:MachineDaisyFile.cpp **** 	
 605              		.loc 15 70 1 is_stmt 0 view .LVU106
 606 0000 2DE9F843 		push	{r3, r4, r5, r6, r7, r8, r9, lr}
 607              		.cfi_def_cfa_offset 32
 608              		.cfi_offset 3, -32
 609              		.cfi_offset 4, -28
 610              		.cfi_offset 5, -24
 611              		.cfi_offset 6, -20
 612              		.cfi_offset 7, -16
 613              		.cfi_offset 8, -12
 614              		.cfi_offset 9, -8
 615              		.cfi_offset 14, -4
 616 0004 DFF86C80 		ldr	r8, .L41+16
 617 0008 164F     		ldr	r7, .L41
 618 000a 174E     		ldr	r6, .L41+4
 619 000c 08F10409 		add	r9, r8, #4
 620 0010 164D     		ldr	r5, .L41+8
  70:MachineDaisyFile.cpp **** 	
 621              		.loc 15 70 1 view .LVU107
 622 0012 4446     		mov	r4, r8
 623              	.LVL23:
 624              	.L35:
 625              	.LBB402:
  73:MachineDaisyFile.cpp ****     {
  74:MachineDaisyFile.cpp ****         if (isButtonPressed(i))
 626              		.loc 15 74 9 is_stmt 1 view .LVU108
 627              		.loc 15 74 28 is_stmt 0 view .LVU109
 628 0014 A4EB0800 		sub	r0, r4, r8
 629              	.LVL24:
 630              		.loc 15 74 28 view .LVU110
 631 0018 FFF7FEFF 		bl	_Z15isButtonPressedi
 632              	.LVL25:
  75:MachineDaisyFile.cpp ****         {
  76:MachineDaisyFile.cpp ****             switch (drumMode)
 633              		.loc 15 76 13 is_stmt 1 view .LVU111
 634 001c 144B     		ldr	r3, .L41+12
  74:MachineDaisyFile.cpp ****         {
 635              		.loc 15 74 9 is_stmt 0 view .LVU112
 636 001e 50B1     		cbz	r0, .L29
 637              		.loc 15 76 13 view .LVU113
 638 0020 1B68     		ldr	r3, [r3]
 639 0022 032B     		cmp	r3, #3
 640 0024 07D8     		bhi	.L29
 641 0026 DFE803F0 		tbb	[pc, r3]
 642              	.L31:
 643 002a 02       		.byte	(.L34-.L31)/2
 644 002b 18       		.byte	(.L33-.L31)/2
 645 002c 13       		.byte	(.L32-.L31)/2
 646 002d 0E       		.byte	(.L30-.L31)/2
ARM GAS  /var/folders/b5/3l92j93d5t1__l78tfntmwyr0000gn/T//ccOBeKL9.s 			page 27


 647              		.p2align 1
 648              	.L34:
  77:MachineDaisyFile.cpp ****             {
  78:MachineDaisyFile.cpp ****                 case KICK:
 649              		.loc 15 78 17 is_stmt 1 view .LVU114
  79:MachineDaisyFile.cpp ****                     // Activate the kick drum note in the sequence
  80:MachineDaisyFile.cpp ****                     kicks[i] = !kicks[i];
 650              		.loc 15 80 21 view .LVU115
 651              		.loc 15 80 32 is_stmt 0 view .LVU116
 652 002e 3378     		ldrb	r3, [r6]	@ zero_extendqisi2
 653 0030 83F00103 		eor	r3, r3, #1
 654              		.loc 15 80 30 view .LVU117
 655 0034 3370     		strb	r3, [r6]
  81:MachineDaisyFile.cpp ****                     break;
 656              		.loc 15 81 21 is_stmt 1 view .LVU118
 657              	.L29:
  72:MachineDaisyFile.cpp ****     {
 658              		.loc 15 72 2 discriminator 2 view .LVU119
 659              	.LVL26:
  72:MachineDaisyFile.cpp ****     {
 660              		.loc 15 72 20 discriminator 2 view .LVU120
 661 0036 0134     		adds	r4, r4, #1
 662              	.LVL27:
  72:MachineDaisyFile.cpp ****     {
 663              		.loc 15 72 20 is_stmt 0 discriminator 2 view .LVU121
 664 0038 0137     		adds	r7, r7, #1
 665 003a 0136     		adds	r6, r6, #1
 666 003c 0135     		adds	r5, r5, #1
 667 003e 4C45     		cmp	r4, r9
 668 0040 E8D1     		bne	.L35
 669              	.LBE402:
  82:MachineDaisyFile.cpp ****                 case SNARE:
  83:MachineDaisyFile.cpp ****                     // Activate the snare drum note in the sequence
  84:MachineDaisyFile.cpp ****                     snares[i] = !snares[i];
  85:MachineDaisyFile.cpp ****                     break;
  86:MachineDaisyFile.cpp ****                 case HAT:
  87:MachineDaisyFile.cpp ****                     // Activate the hi-hat note in the sequence
  88:MachineDaisyFile.cpp ****                     hats[i] = !hats[i];
  89:MachineDaisyFile.cpp ****                     break;
  90:MachineDaisyFile.cpp ****                 case SYNTH_KICK:
  91:MachineDaisyFile.cpp ****                     // Activate the synthetic kick drum note in the sequence
  92:MachineDaisyFile.cpp ****                     synths[i] = !synths[i];
  93:MachineDaisyFile.cpp ****                     break;
  94:MachineDaisyFile.cpp ****                 // Add more cases for other drum modes if needed
  95:MachineDaisyFile.cpp ****             }
  96:MachineDaisyFile.cpp ****         }
  97:MachineDaisyFile.cpp ****     }
  98:MachineDaisyFile.cpp **** }
 670              		.loc 15 98 1 view .LVU122
 671 0042 BDE8F883 		pop	{r3, r4, r5, r6, r7, r8, r9, pc}
 672              	.LVL28:
 673              	.L30:
 674              	.LBB403:
  90:MachineDaisyFile.cpp ****                     // Activate the synthetic kick drum note in the sequence
 675              		.loc 15 90 17 is_stmt 1 view .LVU123
  92:MachineDaisyFile.cpp ****                     break;
 676              		.loc 15 92 21 view .LVU124
ARM GAS  /var/folders/b5/3l92j93d5t1__l78tfntmwyr0000gn/T//ccOBeKL9.s 			page 28


  92:MachineDaisyFile.cpp ****                     break;
 677              		.loc 15 92 33 is_stmt 0 view .LVU125
 678 0046 2B78     		ldrb	r3, [r5]	@ zero_extendqisi2
 679 0048 83F00103 		eor	r3, r3, #1
  92:MachineDaisyFile.cpp ****                     break;
 680              		.loc 15 92 31 view .LVU126
 681 004c 2B70     		strb	r3, [r5]
  93:MachineDaisyFile.cpp ****                 // Add more cases for other drum modes if needed
 682              		.loc 15 93 21 is_stmt 1 view .LVU127
 683 004e F2E7     		b	.L29
 684              	.L32:
  86:MachineDaisyFile.cpp ****                     // Activate the hi-hat note in the sequence
 685              		.loc 15 86 17 view .LVU128
  88:MachineDaisyFile.cpp ****                     break;
 686              		.loc 15 88 21 view .LVU129
  88:MachineDaisyFile.cpp ****                     break;
 687              		.loc 15 88 31 is_stmt 0 view .LVU130
 688 0050 2378     		ldrb	r3, [r4]	@ zero_extendqisi2
 689 0052 83F00103 		eor	r3, r3, #1
  88:MachineDaisyFile.cpp ****                     break;
 690              		.loc 15 88 29 view .LVU131
 691 0056 2370     		strb	r3, [r4]
  89:MachineDaisyFile.cpp ****                 case SYNTH_KICK:
 692              		.loc 15 89 21 is_stmt 1 view .LVU132
 693 0058 EDE7     		b	.L29
 694              	.L33:
  82:MachineDaisyFile.cpp ****                     // Activate the snare drum note in the sequence
 695              		.loc 15 82 17 view .LVU133
  84:MachineDaisyFile.cpp ****                     break;
 696              		.loc 15 84 21 view .LVU134
  84:MachineDaisyFile.cpp ****                     break;
 697              		.loc 15 84 33 is_stmt 0 view .LVU135
 698 005a 3B78     		ldrb	r3, [r7]	@ zero_extendqisi2
 699 005c 83F00103 		eor	r3, r3, #1
  84:MachineDaisyFile.cpp ****                     break;
 700              		.loc 15 84 31 view .LVU136
 701 0060 3B70     		strb	r3, [r7]
  85:MachineDaisyFile.cpp ****                 case HAT:
 702              		.loc 15 85 21 is_stmt 1 view .LVU137
 703 0062 E8E7     		b	.L29
 704              	.L42:
 705              		.align	2
 706              	.L41:
 707 0064 00000000 		.word	.LANCHOR2
 708 0068 00000000 		.word	.LANCHOR3
 709 006c 00000000 		.word	.LANCHOR4
 710 0070 00000000 		.word	.LANCHOR6
 711 0074 00000000 		.word	.LANCHOR5
 712              	.LBE403:
 713              		.cfi_endproc
 714              	.LFE4827:
 716              		.section	.text._Z13setDrumParamsv,"ax",%progbits
 717              		.align	1
 718              		.p2align 2,,3
 719              		.global	_Z13setDrumParamsv
 720              		.syntax unified
 721              		.thumb
ARM GAS  /var/folders/b5/3l92j93d5t1__l78tfntmwyr0000gn/T//ccOBeKL9.s 			page 29


 722              		.thumb_func
 724              	_Z13setDrumParamsv:
 725              	.LFB4828:
  99:MachineDaisyFile.cpp **** //====================================================================================
 100:MachineDaisyFile.cpp **** void setDrumParams()
 101:MachineDaisyFile.cpp **** {
 726              		.loc 15 101 1 view -0
 727              		.cfi_startproc
 728              		@ args = 0, pretend = 0, frame = 0
 729              		@ frame_needed = 0, uses_anonymous_args = 0
 102:MachineDaisyFile.cpp **** 	kick.SetTone(.7f );
 730              		.loc 15 102 2 view .LVU139
 101:MachineDaisyFile.cpp **** 	kick.SetTone(.7f );
 731              		.loc 15 101 1 is_stmt 0 view .LVU140
 732 0000 38B5     		push	{r3, r4, r5, lr}
 733              		.cfi_def_cfa_offset 16
 734              		.cfi_offset 3, -16
 735              		.cfi_offset 4, -12
 736              		.cfi_offset 5, -8
 737              		.cfi_offset 14, -4
 738 0002 2DED028B 		vpush.64	{d8}
 739              		.cfi_def_cfa_offset 24
 740              		.cfi_offset 80, -24
 741              		.cfi_offset 81, -20
 742              		.loc 15 102 14 view .LVU141
 743 0006 DFED368A 		vldr.32	s17, .L45+16
 744 000a 3648     		ldr	r0, .L45+20
 745 000c B0EE680A 		vmov.f32	s0, s17
 103:MachineDaisyFile.cpp ****     kick.SetDecay(.4f);
 104:MachineDaisyFile.cpp ****     kick.SetSelfFmAmount(.2f);
 105:MachineDaisyFile.cpp **** 
 106:MachineDaisyFile.cpp **** 	snare.SetAccent(.5f);
 746              		.loc 15 106 17 view .LVU142
 747 0010 354D     		ldr	r5, .L45+24
 102:MachineDaisyFile.cpp ****     kick.SetDecay(.4f);
 748              		.loc 15 102 14 view .LVU143
 749 0012 FFF7FEFF 		bl	_ZN7daisysp14AnalogBassDrum7SetToneEf
 750              	.LVL29:
 103:MachineDaisyFile.cpp ****     kick.SetDecay(.4f);
 751              		.loc 15 103 5 is_stmt 1 view .LVU144
 103:MachineDaisyFile.cpp ****     kick.SetDecay(.4f);
 752              		.loc 15 103 18 is_stmt 0 view .LVU145
 753 0016 9FED350A 		vldr.32	s0, .L45+28
 754 001a 3248     		ldr	r0, .L45+20
 755 001c FFF7FEFF 		bl	_ZN7daisysp14AnalogBassDrum8SetDecayEf
 756              	.LVL30:
 104:MachineDaisyFile.cpp **** 
 757              		.loc 15 104 5 is_stmt 1 view .LVU146
 104:MachineDaisyFile.cpp **** 
 758              		.loc 15 104 25 is_stmt 0 view .LVU147
 759 0020 9FED330A 		vldr.32	s0, .L45+32
 760 0024 2F48     		ldr	r0, .L45+20
 761 0026 FFF7FEFF 		bl	_ZN7daisysp14AnalogBassDrum15SetSelfFmAmountEf
 762              	.LVL31:
 763              		.loc 15 106 2 is_stmt 1 view .LVU148
 764              		.loc 15 106 17 is_stmt 0 view .LVU149
 765 002a 2846     		mov	r0, r5
ARM GAS  /var/folders/b5/3l92j93d5t1__l78tfntmwyr0000gn/T//ccOBeKL9.s 			page 30


 766 002c B6EE000A 		vmov.f32	s0, #5.0e-1
 767              	.LBB404:
 768              	.LBB405:
 769              	.LBB406:
 770              	.LBB407:
 771              		.file 17 "../../DaisyExamples/DaisySP//Source/Utility/dsp.h"
   1:../../DaisyExamples/DaisySP//Source/Utility/dsp.h **** /** Helpful defines, functions, and other utilities for use in/with daisysp modules.
   2:../../DaisyExamples/DaisySP//Source/Utility/dsp.h **** */
   3:../../DaisyExamples/DaisySP//Source/Utility/dsp.h **** #pragma once
   4:../../DaisyExamples/DaisySP//Source/Utility/dsp.h **** #ifndef DSY_CORE_DSP
   5:../../DaisyExamples/DaisySP//Source/Utility/dsp.h **** #define DSY_CORE_DSP
   6:../../DaisyExamples/DaisySP//Source/Utility/dsp.h **** #include <cassert>
   7:../../DaisyExamples/DaisySP//Source/Utility/dsp.h **** #include <cstdint>
   8:../../DaisyExamples/DaisySP//Source/Utility/dsp.h **** #include <random>
   9:../../DaisyExamples/DaisySP//Source/Utility/dsp.h **** #include <cmath>
  10:../../DaisyExamples/DaisySP//Source/Utility/dsp.h **** 
  11:../../DaisyExamples/DaisySP//Source/Utility/dsp.h **** /** PIs
  12:../../DaisyExamples/DaisySP//Source/Utility/dsp.h **** */
  13:../../DaisyExamples/DaisySP//Source/Utility/dsp.h **** #define PI_F 3.1415927410125732421875f
  14:../../DaisyExamples/DaisySP//Source/Utility/dsp.h **** #define TWOPI_F (2.0f * PI_F)
  15:../../DaisyExamples/DaisySP//Source/Utility/dsp.h **** #define HALFPI_F (PI_F * 0.5f)
  16:../../DaisyExamples/DaisySP//Source/Utility/dsp.h **** #define DSY_MIN(in, mn) (in < mn ? in : mn)
  17:../../DaisyExamples/DaisySP//Source/Utility/dsp.h **** #define DSY_MAX(in, mx) (in > mx ? in : mx)
  18:../../DaisyExamples/DaisySP//Source/Utility/dsp.h **** #define DSY_CLAMP(in, mn, mx) (DSY_MIN(DSY_MAX(in, mn), mx))
  19:../../DaisyExamples/DaisySP//Source/Utility/dsp.h **** #define DSY_COUNTOF(_arr) (sizeof(_arr) / sizeof(_arr[0]))
  20:../../DaisyExamples/DaisySP//Source/Utility/dsp.h **** 
  21:../../DaisyExamples/DaisySP//Source/Utility/dsp.h **** namespace daisysp
  22:../../DaisyExamples/DaisySP//Source/Utility/dsp.h **** {
  23:../../DaisyExamples/DaisySP//Source/Utility/dsp.h **** //Avoids division for random floats. e.g. rand() * kRandFrac
  24:../../DaisyExamples/DaisySP//Source/Utility/dsp.h **** static constexpr float kRandFrac = 1.f / (float)RAND_MAX;
  25:../../DaisyExamples/DaisySP//Source/Utility/dsp.h **** 
  26:../../DaisyExamples/DaisySP//Source/Utility/dsp.h **** //Convert from semitones to other units. e.g. 2 ^ (kOneTwelfth * x)
  27:../../DaisyExamples/DaisySP//Source/Utility/dsp.h **** static constexpr float kOneTwelfth = 1.f / 12.f;
  28:../../DaisyExamples/DaisySP//Source/Utility/dsp.h **** 
  29:../../DaisyExamples/DaisySP//Source/Utility/dsp.h **** /** efficient floating point min/max
  30:../../DaisyExamples/DaisySP//Source/Utility/dsp.h **** c/o stephen mccaul
  31:../../DaisyExamples/DaisySP//Source/Utility/dsp.h **** */
  32:../../DaisyExamples/DaisySP//Source/Utility/dsp.h **** inline float fmax(float a, float b)
  33:../../DaisyExamples/DaisySP//Source/Utility/dsp.h **** {
  34:../../DaisyExamples/DaisySP//Source/Utility/dsp.h ****     float r;
  35:../../DaisyExamples/DaisySP//Source/Utility/dsp.h **** #ifdef __arm__
  36:../../DaisyExamples/DaisySP//Source/Utility/dsp.h ****     asm("vmaxnm.f32 %[d], %[n], %[m]" : [d] "=t"(r) : [n] "t"(a), [m] "t"(b) :);
 772              		.loc 17 36 5 view .LVU150
 773 0030 9FED308A 		vldr.32	s16, .L45+36
 774              	.LBE407:
 775              	.LBE406:
 776              	.LBE405:
 777              	.LBE404:
 778              		.loc 15 106 17 view .LVU151
 779 0034 FFF7FEFF 		bl	_ZN7daisysp15AnalogSnareDrum9SetAccentEf
 780              	.LVL32:
 107:MachineDaisyFile.cpp **** 	snare.SetDecay(.5f);
 781              		.loc 15 107 2 is_stmt 1 view .LVU152
 782              		.loc 15 107 16 is_stmt 0 view .LVU153
 783 0038 2846     		mov	r0, r5
 784 003a B6EE000A 		vmov.f32	s0, #5.0e-1
 108:MachineDaisyFile.cpp **** 	snare.SetTone(1.f);
ARM GAS  /var/folders/b5/3l92j93d5t1__l78tfntmwyr0000gn/T//ccOBeKL9.s 			page 31


 109:MachineDaisyFile.cpp **** 	snare.SetSnappy(.6);
 110:MachineDaisyFile.cpp **** 
 111:MachineDaisyFile.cpp **** 	hat.SetAccent(.5f);
 112:MachineDaisyFile.cpp **** 	hat.SetDecay(.1f);
 113:MachineDaisyFile.cpp **** 	hat.SetTone(.1f);
 114:MachineDaisyFile.cpp **** 
 115:MachineDaisyFile.cpp **** 	synthKick.SetAccent(.5f);
 785              		.loc 15 115 21 view .LVU154
 786 003e 2E4C     		ldr	r4, .L45+40
 107:MachineDaisyFile.cpp **** 	snare.SetDecay(.5f);
 787              		.loc 15 107 16 view .LVU155
 788 0040 FFF7FEFF 		bl	_ZN7daisysp15AnalogSnareDrum8SetDecayEf
 789              	.LVL33:
 108:MachineDaisyFile.cpp **** 	snare.SetTone(1.f);
 790              		.loc 15 108 2 is_stmt 1 view .LVU156
 108:MachineDaisyFile.cpp **** 	snare.SetTone(1.f);
 791              		.loc 15 108 15 is_stmt 0 view .LVU157
 792 0044 2846     		mov	r0, r5
 793 0046 B7EE000A 		vmov.f32	s0, #1.0e+0
 794 004a FFF7FEFF 		bl	_ZN7daisysp15AnalogSnareDrum7SetToneEf
 795              	.LVL34:
 109:MachineDaisyFile.cpp **** 
 796              		.loc 15 109 2 is_stmt 1 view .LVU158
 109:MachineDaisyFile.cpp **** 
 797              		.loc 15 109 17 is_stmt 0 view .LVU159
 798 004e 2846     		mov	r0, r5
 799 0050 9FED2A0A 		vldr.32	s0, .L45+44
 800 0054 FFF7FEFF 		bl	_ZN7daisysp15AnalogSnareDrum9SetSnappyEf
 801              	.LVL35:
 111:MachineDaisyFile.cpp **** 	hat.SetDecay(.1f);
 802              		.loc 15 111 2 is_stmt 1 view .LVU160
 803              	.LBB416:
 804              	.LBI416:
 114:../../DaisyExamples/DaisySP//Source/Drums/hihat.h **** 
 115:../../DaisyExamples/DaisySP//Source/Drums/hihat.h ****     /** Initialize the module
 116:../../DaisyExamples/DaisySP//Source/Drums/hihat.h ****         \param sample_rate Audio engine sample rate
 117:../../DaisyExamples/DaisySP//Source/Drums/hihat.h ****     */
 118:../../DaisyExamples/DaisySP//Source/Drums/hihat.h ****     void Init(float sample_rate)
 119:../../DaisyExamples/DaisySP//Source/Drums/hihat.h ****     {
 120:../../DaisyExamples/DaisySP//Source/Drums/hihat.h ****         sample_rate_ = sample_rate;
 121:../../DaisyExamples/DaisySP//Source/Drums/hihat.h **** 
 122:../../DaisyExamples/DaisySP//Source/Drums/hihat.h ****         trig_ = false;
 123:../../DaisyExamples/DaisySP//Source/Drums/hihat.h **** 
 124:../../DaisyExamples/DaisySP//Source/Drums/hihat.h ****         envelope_     = 0.0f;
 125:../../DaisyExamples/DaisySP//Source/Drums/hihat.h ****         noise_clock_  = 0.0f;
 126:../../DaisyExamples/DaisySP//Source/Drums/hihat.h ****         noise_sample_ = 0.0f;
 127:../../DaisyExamples/DaisySP//Source/Drums/hihat.h ****         sustain_gain_ = 0.0f;
 128:../../DaisyExamples/DaisySP//Source/Drums/hihat.h **** 
 129:../../DaisyExamples/DaisySP//Source/Drums/hihat.h ****         SetFreq(3000.f);
 130:../../DaisyExamples/DaisySP//Source/Drums/hihat.h ****         SetTone(.5f);
 131:../../DaisyExamples/DaisySP//Source/Drums/hihat.h ****         SetDecay(.2f);
 132:../../DaisyExamples/DaisySP//Source/Drums/hihat.h ****         SetNoisiness(.8f);
 133:../../DaisyExamples/DaisySP//Source/Drums/hihat.h ****         SetAccent(.8f);
 134:../../DaisyExamples/DaisySP//Source/Drums/hihat.h ****         SetSustain(false);
 135:../../DaisyExamples/DaisySP//Source/Drums/hihat.h **** 
 136:../../DaisyExamples/DaisySP//Source/Drums/hihat.h ****         metallic_noise_.Init(sample_rate_);
 137:../../DaisyExamples/DaisySP//Source/Drums/hihat.h ****         noise_coloration_svf_.Init(sample_rate_);
ARM GAS  /var/folders/b5/3l92j93d5t1__l78tfntmwyr0000gn/T//ccOBeKL9.s 			page 32


 138:../../DaisyExamples/DaisySP//Source/Drums/hihat.h ****         hpf_.Init(sample_rate_);
 139:../../DaisyExamples/DaisySP//Source/Drums/hihat.h ****     }
 140:../../DaisyExamples/DaisySP//Source/Drums/hihat.h **** 
 141:../../DaisyExamples/DaisySP//Source/Drums/hihat.h ****     /** Get the next sample
 142:../../DaisyExamples/DaisySP//Source/Drums/hihat.h ****         \param trigger Hit the hihat with true. Defaults to false.
 143:../../DaisyExamples/DaisySP//Source/Drums/hihat.h ****     */
 144:../../DaisyExamples/DaisySP//Source/Drums/hihat.h ****     float Process(bool trigger = false)
 145:../../DaisyExamples/DaisySP//Source/Drums/hihat.h ****     {
 146:../../DaisyExamples/DaisySP//Source/Drums/hihat.h ****         const float envelope_decay
 147:../../DaisyExamples/DaisySP//Source/Drums/hihat.h ****             = 1.0f - 0.003f * SemitonesToRatio(-decay_ * 84.0f);
 148:../../DaisyExamples/DaisySP//Source/Drums/hihat.h ****         const float cut_decay
 149:../../DaisyExamples/DaisySP//Source/Drums/hihat.h ****             = 1.0f - 0.0025f * SemitonesToRatio(-decay_ * 36.0f);
 150:../../DaisyExamples/DaisySP//Source/Drums/hihat.h **** 
 151:../../DaisyExamples/DaisySP//Source/Drums/hihat.h ****         if(trigger || trig_)
 152:../../DaisyExamples/DaisySP//Source/Drums/hihat.h ****         {
 153:../../DaisyExamples/DaisySP//Source/Drums/hihat.h ****             trig_ = false;
 154:../../DaisyExamples/DaisySP//Source/Drums/hihat.h **** 
 155:../../DaisyExamples/DaisySP//Source/Drums/hihat.h ****             envelope_
 156:../../DaisyExamples/DaisySP//Source/Drums/hihat.h ****                 = (1.5f + 0.5f * (1.0f - decay_)) * (0.3f + 0.7f * accent_);
 157:../../DaisyExamples/DaisySP//Source/Drums/hihat.h ****         }
 158:../../DaisyExamples/DaisySP//Source/Drums/hihat.h **** 
 159:../../DaisyExamples/DaisySP//Source/Drums/hihat.h ****         // Process the metallic noise.
 160:../../DaisyExamples/DaisySP//Source/Drums/hihat.h ****         float out = metallic_noise_.Process(2.0f * f0_);
 161:../../DaisyExamples/DaisySP//Source/Drums/hihat.h **** 
 162:../../DaisyExamples/DaisySP//Source/Drums/hihat.h ****         // Apply BPF on the metallic noise.
 163:../../DaisyExamples/DaisySP//Source/Drums/hihat.h ****         float cutoff = 150.0f / sample_rate_ * SemitonesToRatio(tone_ * 72.0f);
 164:../../DaisyExamples/DaisySP//Source/Drums/hihat.h **** 
 165:../../DaisyExamples/DaisySP//Source/Drums/hihat.h ****         cutoff = fclamp(cutoff, 0.0f, 16000.0f / sample_rate_);
 166:../../DaisyExamples/DaisySP//Source/Drums/hihat.h **** 
 167:../../DaisyExamples/DaisySP//Source/Drums/hihat.h **** 
 168:../../DaisyExamples/DaisySP//Source/Drums/hihat.h ****         noise_coloration_svf_.SetFreq(cutoff * sample_rate_);
 169:../../DaisyExamples/DaisySP//Source/Drums/hihat.h ****         noise_coloration_svf_.SetRes(resonance ? 3.0f + 6.0f * tone_ : 1.0f);
 170:../../DaisyExamples/DaisySP//Source/Drums/hihat.h **** 
 171:../../DaisyExamples/DaisySP//Source/Drums/hihat.h ****         noise_coloration_svf_.Process(out);
 172:../../DaisyExamples/DaisySP//Source/Drums/hihat.h ****         out = noise_coloration_svf_.Band();
 173:../../DaisyExamples/DaisySP//Source/Drums/hihat.h **** 
 174:../../DaisyExamples/DaisySP//Source/Drums/hihat.h ****         // This is not at all part of the 808 circuit! But to add more variety, we
 175:../../DaisyExamples/DaisySP//Source/Drums/hihat.h ****         // add a variable amount of clocked noise to the output of the 6 schmitt
 176:../../DaisyExamples/DaisySP//Source/Drums/hihat.h ****         // trigger oscillators.
 177:../../DaisyExamples/DaisySP//Source/Drums/hihat.h ****         float noise_f = f0_ * (16.0f + 16.0f * (1.0f - noisiness_));
 178:../../DaisyExamples/DaisySP//Source/Drums/hihat.h ****         noise_f       = fclamp(noise_f, 0.0f, 0.5f);
 179:../../DaisyExamples/DaisySP//Source/Drums/hihat.h **** 
 180:../../DaisyExamples/DaisySP//Source/Drums/hihat.h ****         noise_clock_ += noise_f;
 181:../../DaisyExamples/DaisySP//Source/Drums/hihat.h ****         if(noise_clock_ >= 1.0f)
 182:../../DaisyExamples/DaisySP//Source/Drums/hihat.h ****         {
 183:../../DaisyExamples/DaisySP//Source/Drums/hihat.h ****             noise_clock_ -= 1.0f;
 184:../../DaisyExamples/DaisySP//Source/Drums/hihat.h ****             noise_sample_ = rand() * kRandFrac - 0.5f;
 185:../../DaisyExamples/DaisySP//Source/Drums/hihat.h ****         }
 186:../../DaisyExamples/DaisySP//Source/Drums/hihat.h ****         out += noisiness_ * (noise_sample_ - out);
 187:../../DaisyExamples/DaisySP//Source/Drums/hihat.h **** 
 188:../../DaisyExamples/DaisySP//Source/Drums/hihat.h ****         // Apply VCA.
 189:../../DaisyExamples/DaisySP//Source/Drums/hihat.h ****         sustain_gain_ = accent_ * decay_;
 190:../../DaisyExamples/DaisySP//Source/Drums/hihat.h ****         VCA vca;
 191:../../DaisyExamples/DaisySP//Source/Drums/hihat.h ****         envelope_ *= envelope_ > 0.5f ? envelope_decay : cut_decay;
 192:../../DaisyExamples/DaisySP//Source/Drums/hihat.h ****         out = vca(out, sustain_ ? sustain_gain_ : envelope_);
 193:../../DaisyExamples/DaisySP//Source/Drums/hihat.h **** 
 194:../../DaisyExamples/DaisySP//Source/Drums/hihat.h ****         hpf_.SetFreq(cutoff * sample_rate_);
ARM GAS  /var/folders/b5/3l92j93d5t1__l78tfntmwyr0000gn/T//ccOBeKL9.s 			page 33


 195:../../DaisyExamples/DaisySP//Source/Drums/hihat.h ****         hpf_.SetRes(.5f);
 196:../../DaisyExamples/DaisySP//Source/Drums/hihat.h ****         hpf_.Process(out);
 197:../../DaisyExamples/DaisySP//Source/Drums/hihat.h ****         out = hpf_.High();
 198:../../DaisyExamples/DaisySP//Source/Drums/hihat.h **** 
 199:../../DaisyExamples/DaisySP//Source/Drums/hihat.h ****         return out;
 200:../../DaisyExamples/DaisySP//Source/Drums/hihat.h ****     }
 201:../../DaisyExamples/DaisySP//Source/Drums/hihat.h **** 
 202:../../DaisyExamples/DaisySP//Source/Drums/hihat.h ****     /** Trigger the hihat */
 203:../../DaisyExamples/DaisySP//Source/Drums/hihat.h ****     void Trig() { trig_ = true; }
 204:../../DaisyExamples/DaisySP//Source/Drums/hihat.h **** 
 205:../../DaisyExamples/DaisySP//Source/Drums/hihat.h ****     /** Make the hihat ring out infinitely.
 206:../../DaisyExamples/DaisySP//Source/Drums/hihat.h ****         \param sustain True = infinite sustain.
 207:../../DaisyExamples/DaisySP//Source/Drums/hihat.h ****     */
 208:../../DaisyExamples/DaisySP//Source/Drums/hihat.h ****     void SetSustain(bool sustain) { sustain_ = sustain; }
 209:../../DaisyExamples/DaisySP//Source/Drums/hihat.h **** 
 210:../../DaisyExamples/DaisySP//Source/Drums/hihat.h ****     /** Set how much accent to use
 211:../../DaisyExamples/DaisySP//Source/Drums/hihat.h ****         \param accent Works 0-1.
 212:../../DaisyExamples/DaisySP//Source/Drums/hihat.h ****     */
 213:../../DaisyExamples/DaisySP//Source/Drums/hihat.h ****     void SetAccent(float accent) { accent_ = fclamp(accent, 0.f, 1.f); }
 805              		.loc 13 213 10 view .LVU161
 806              	.LBB417:
 807              	.LBB418:
 808              	.LBI418:
  37:../../DaisyExamples/DaisySP//Source/Utility/dsp.h **** #else
  38:../../DaisyExamples/DaisySP//Source/Utility/dsp.h ****     r = (a > b) ? a : b;
  39:../../DaisyExamples/DaisySP//Source/Utility/dsp.h **** #endif // __arm__
  40:../../DaisyExamples/DaisySP//Source/Utility/dsp.h ****     return r;
  41:../../DaisyExamples/DaisySP//Source/Utility/dsp.h **** }
  42:../../DaisyExamples/DaisySP//Source/Utility/dsp.h **** 
  43:../../DaisyExamples/DaisySP//Source/Utility/dsp.h **** inline float fmin(float a, float b)
  44:../../DaisyExamples/DaisySP//Source/Utility/dsp.h **** {
  45:../../DaisyExamples/DaisySP//Source/Utility/dsp.h ****     float r;
  46:../../DaisyExamples/DaisySP//Source/Utility/dsp.h **** #ifdef __arm__
  47:../../DaisyExamples/DaisySP//Source/Utility/dsp.h ****     asm("vminnm.f32 %[d], %[n], %[m]" : [d] "=t"(r) : [n] "t"(a), [m] "t"(b) :);
  48:../../DaisyExamples/DaisySP//Source/Utility/dsp.h **** #else
  49:../../DaisyExamples/DaisySP//Source/Utility/dsp.h ****     r = (a < b) ? a : b;
  50:../../DaisyExamples/DaisySP//Source/Utility/dsp.h **** #endif // __arm__
  51:../../DaisyExamples/DaisySP//Source/Utility/dsp.h ****     return r;
  52:../../DaisyExamples/DaisySP//Source/Utility/dsp.h **** }
  53:../../DaisyExamples/DaisySP//Source/Utility/dsp.h **** 
  54:../../DaisyExamples/DaisySP//Source/Utility/dsp.h **** /** quick fp clamp
  55:../../DaisyExamples/DaisySP//Source/Utility/dsp.h **** */
  56:../../DaisyExamples/DaisySP//Source/Utility/dsp.h **** inline float fclamp(float in, float min, float max)
 809              		.loc 17 56 14 view .LVU162
 810              	.LBE418:
 811              	.LBE417:
 812              	.LBE416:
  57:../../DaisyExamples/DaisySP//Source/Utility/dsp.h **** {
  58:../../DaisyExamples/DaisySP//Source/Utility/dsp.h ****     return fmin(fmax(in, min), max);
 813              		.loc 17 58 5 view .LVU163
 814              	.LBB442:
 815              	.LBB436:
 816              	.LBB431:
 817              	.LBB419:
 818              	.LBI419:
  32:../../DaisyExamples/DaisySP//Source/Utility/dsp.h **** {
 819              		.loc 17 32 14 view .LVU164
ARM GAS  /var/folders/b5/3l92j93d5t1__l78tfntmwyr0000gn/T//ccOBeKL9.s 			page 34


 820              	.LBB420:
  34:../../DaisyExamples/DaisySP//Source/Utility/dsp.h **** #ifdef __arm__
 821              		.loc 17 34 5 view .LVU165
  36:../../DaisyExamples/DaisySP//Source/Utility/dsp.h **** #else
 822              		.loc 17 36 5 view .LVU166
 823 0058 DFED296A 		vldr.32	s13, .L45+48
 824              	.LBE420:
 825              	.LBE419:
 826              	.LBE431:
 827              	.LBE436:
 828              	.LBE442:
 829              	.LBB443:
 830              	.LBB412:
 831              	.LBB410:
 832              	.LBB408:
 833              		.syntax unified
 834              	@ 36 "../../DaisyExamples/DaisySP//Source/Utility/dsp.h" 1
 835 005c 88FE266A 		vmaxnm.f32 s12, s16, s13
 836              	@ 0 "" 2
 837              		.thumb
 838              		.syntax unified
 839              	.LBE408:
 840              	.LBE410:
 214:../../DaisyExamples/DaisySP//Source/Drums/hihat.h **** 
 215:../../DaisyExamples/DaisySP//Source/Drums/hihat.h ****     /** Set the hihat tone's root frequency
 216:../../DaisyExamples/DaisySP//Source/Drums/hihat.h ****         \param f0 Freq in Hz
 217:../../DaisyExamples/DaisySP//Source/Drums/hihat.h ****     */
 218:../../DaisyExamples/DaisySP//Source/Drums/hihat.h ****     void SetFreq(float f0)
 219:../../DaisyExamples/DaisySP//Source/Drums/hihat.h ****     {
 220:../../DaisyExamples/DaisySP//Source/Drums/hihat.h ****         f0 /= sample_rate_;
 221:../../DaisyExamples/DaisySP//Source/Drums/hihat.h ****         f0_ = fclamp(f0, 0.f, 1.f);
 222:../../DaisyExamples/DaisySP//Source/Drums/hihat.h ****     }
 223:../../DaisyExamples/DaisySP//Source/Drums/hihat.h **** 
 224:../../DaisyExamples/DaisySP//Source/Drums/hihat.h ****     /** Set the overall brightness / darkness of the hihat.
 225:../../DaisyExamples/DaisySP//Source/Drums/hihat.h ****         \param tone Works from 0-1.
 226:../../DaisyExamples/DaisySP//Source/Drums/hihat.h ****     */
 227:../../DaisyExamples/DaisySP//Source/Drums/hihat.h ****     void SetTone(float tone) { tone_ = fclamp(tone, 0.f, 1.f); }
 228:../../DaisyExamples/DaisySP//Source/Drums/hihat.h **** 
 229:../../DaisyExamples/DaisySP//Source/Drums/hihat.h ****     /** Set the length of the hihat decay
 230:../../DaisyExamples/DaisySP//Source/Drums/hihat.h ****         \param decay Works > 0. Tuned for 0-1.
 231:../../DaisyExamples/DaisySP//Source/Drums/hihat.h ****     */
 232:../../DaisyExamples/DaisySP//Source/Drums/hihat.h ****     void SetDecay(float decay)
 233:../../DaisyExamples/DaisySP//Source/Drums/hihat.h ****     {
 234:../../DaisyExamples/DaisySP//Source/Drums/hihat.h ****         decay_ = fmax(decay, 0.f);
 235:../../DaisyExamples/DaisySP//Source/Drums/hihat.h ****         decay_ *= 1.7;
 841              		.loc 13 235 16 is_stmt 0 view .LVU167
 842 0060 9FED1B3B 		vldr.64	d3, .L45
 843 0064 B7EEC67A 		vcvt.f64.f32	d7, s12
 844              	.LBE412:
 845              	.LBE443:
 846              	.LBB444:
 847              	.LBB437:
 213:../../DaisyExamples/DaisySP//Source/Drums/hihat.h **** 
 848              		.loc 13 213 44 view .LVU168
 849 0068 264B     		ldr	r3, .L45+52
 850              	.LBB432:
 851              	.LBB423:
ARM GAS  /var/folders/b5/3l92j93d5t1__l78tfntmwyr0000gn/T//ccOBeKL9.s 			page 35


 852              	.LBB421:
  36:../../DaisyExamples/DaisySP//Source/Utility/dsp.h **** #else
 853              		.loc 17 36 5 view .LVU169
 854 006a B6EE000A 		vmov.f32	s0, #5.0e-1
 855              	.LBE421:
 856              	.LBE423:
 857              	.LBE432:
 858              	.LBE437:
 859              	.LBE444:
 860              		.loc 15 115 21 view .LVU170
 861 006e 2046     		mov	r0, r4
 862              	.LBB445:
 863              	.LBB438:
 864              	.LBB433:
 865              	.LBB424:
 866              	.LBB425:
  47:../../DaisyExamples/DaisySP//Source/Utility/dsp.h **** #else
 867              		.loc 17 47 5 view .LVU171
 868 0070 F7EE005A 		vmov.f32	s11, #1.0e+0
 869              	.LBE425:
 870              	.LBE424:
 871              	.LBE433:
 872              	.LBE438:
 873              	.LBE445:
 874              	.LBB446:
 875              	.LBB413:
 876              		.loc 13 235 16 view .LVU172
 877 0074 27EE037B 		vmul.f64	d7, d7, d3
 878              	.LBE413:
 879              	.LBE446:
 880              	.LBB447:
 881              	.LBB448:
 882              	.LBB449:
 883              	.LBB450:
 884              	.LBB451:
  47:../../DaisyExamples/DaisySP//Source/Utility/dsp.h **** #else
 885              		.loc 17 47 5 view .LVU173
 886              		.syntax unified
 887              	@ 47 "../../DaisyExamples/DaisySP//Source/Utility/dsp.h" 1
 888 0078 86FE656A 		vminnm.f32 s12, s12, s11
 889              	@ 0 "" 2
 890              		.thumb
 891              		.syntax unified
 892              	.LBE451:
 893              	.LBE450:
 894              	.LBE449:
 895              	.LBE448:
 896              	.LBE447:
 897              	.LBB461:
 898              	.LBB439:
 899              	.LBB434:
 900              	.LBB428:
 901              	.LBB422:
  36:../../DaisyExamples/DaisySP//Source/Utility/dsp.h **** #else
 902              		.loc 17 36 5 view .LVU174
 903              		.syntax unified
 904              	@ 36 "../../DaisyExamples/DaisySP//Source/Utility/dsp.h" 1
ARM GAS  /var/folders/b5/3l92j93d5t1__l78tfntmwyr0000gn/T//ccOBeKL9.s 			page 36


 905 007c C0FE266A 		vmaxnm.f32 s13, s0, s13
 906              	@ 0 "" 2
 907              	.LVL36:
  40:../../DaisyExamples/DaisySP//Source/Utility/dsp.h **** }
 908              		.loc 17 40 5 is_stmt 1 view .LVU175
  40:../../DaisyExamples/DaisySP//Source/Utility/dsp.h **** }
 909              		.loc 17 40 5 is_stmt 0 view .LVU176
 910              		.thumb
 911              		.syntax unified
 912              	.LBE422:
 913              	.LBE428:
 914              	.LBB429:
 915              	.LBI424:
  43:../../DaisyExamples/DaisySP//Source/Utility/dsp.h **** {
 916              		.loc 17 43 14 is_stmt 1 view .LVU177
 917              	.LBB426:
  45:../../DaisyExamples/DaisySP//Source/Utility/dsp.h **** #ifdef __arm__
 918              		.loc 17 45 5 view .LVU178
  47:../../DaisyExamples/DaisySP//Source/Utility/dsp.h **** #else
 919              		.loc 17 47 5 view .LVU179
 920              	.LBE426:
 921              	.LBE429:
 922              	.LBE434:
 923              	.LBE439:
 924              	.LBE461:
 925              	.LBB462:
 926              	.LBB458:
 227:../../DaisyExamples/DaisySP//Source/Drums/hihat.h **** 
 927              		.loc 13 227 38 is_stmt 0 view .LVU180
 928 0080 83ED036A 		vstr.32	s12, [r3, #12]
 929              	.LBE458:
 930              	.LBE462:
 931              	.LBB463:
 932              	.LBB440:
 933              	.LBB435:
 934              	.LBB430:
 935              	.LBB427:
  47:../../DaisyExamples/DaisySP//Source/Utility/dsp.h **** #else
 936              		.loc 17 47 5 view .LVU181
 937              		.syntax unified
 938              	@ 47 "../../DaisyExamples/DaisySP//Source/Utility/dsp.h" 1
 939 0084 C6FEE56A 		vminnm.f32 s13, s13, s11
 940              	@ 0 "" 2
 941              	.LVL37:
  51:../../DaisyExamples/DaisySP//Source/Utility/dsp.h **** }
 942              		.loc 17 51 5 is_stmt 1 view .LVU182
  51:../../DaisyExamples/DaisySP//Source/Utility/dsp.h **** }
 943              		.loc 17 51 5 is_stmt 0 view .LVU183
 944              		.thumb
 945              		.syntax unified
 946              	.LBE427:
 947              	.LBE430:
 948              	.LBE435:
 949              	.LBE440:
 950              	.LBE463:
 951              	.LBB464:
 952              	.LBB414:
ARM GAS  /var/folders/b5/3l92j93d5t1__l78tfntmwyr0000gn/T//ccOBeKL9.s 			page 37


 236:../../DaisyExamples/DaisySP//Source/Drums/hihat.h ****         decay_ -= 1.2;
 953              		.loc 13 236 16 view .LVU184
 954 0088 9FED134B 		vldr.64	d4, .L45+8
 235:../../DaisyExamples/DaisySP//Source/Drums/hihat.h ****         decay_ -= 1.2;
 955              		.loc 13 235 16 view .LVU185
 956 008c B7EEC77B 		vcvt.f32.f64	s14, d7
 957              	.LBE414:
 958              	.LBE464:
 959              	.LBB465:
 960              	.LBB441:
 213:../../DaisyExamples/DaisySP//Source/Drums/hihat.h **** 
 961              		.loc 13 213 44 view .LVU186
 962 0090 C3ED016A 		vstr.32	s13, [r3, #4]
 963              	.LVL38:
 213:../../DaisyExamples/DaisySP//Source/Drums/hihat.h **** 
 964              		.loc 13 213 44 view .LVU187
 965              	.LBE441:
 966              	.LBE465:
 112:MachineDaisyFile.cpp **** 	hat.SetTone(.1f);
 967              		.loc 15 112 2 is_stmt 1 view .LVU188
 968              	.LBB466:
 969              	.LBI404:
 232:../../DaisyExamples/DaisySP//Source/Drums/hihat.h ****     {
 970              		.loc 13 232 10 view .LVU189
 971              	.LBB415:
 972              	.LBB411:
 973              	.LBI406:
  32:../../DaisyExamples/DaisySP//Source/Utility/dsp.h **** {
 974              		.loc 17 32 14 view .LVU190
 975              	.LBB409:
  34:../../DaisyExamples/DaisySP//Source/Utility/dsp.h **** #ifdef __arm__
 976              		.loc 17 34 5 view .LVU191
  36:../../DaisyExamples/DaisySP//Source/Utility/dsp.h **** #else
 977              		.loc 17 36 5 view .LVU192
  40:../../DaisyExamples/DaisySP//Source/Utility/dsp.h **** }
 978              		.loc 17 40 5 view .LVU193
  40:../../DaisyExamples/DaisySP//Source/Utility/dsp.h **** }
 979              		.loc 17 40 5 is_stmt 0 view .LVU194
 980              	.LBE409:
 981              	.LBE411:
 982              		.loc 13 236 16 view .LVU195
 983 0094 B7EEC77A 		vcvt.f64.f32	d7, s14
 984 0098 37EE447B 		vsub.f64	d7, d7, d4
 985 009c B7EEC77B 		vcvt.f32.f64	s14, d7
 986 00a0 83ED047A 		vstr.32	s14, [r3, #16]
 987              	.LVL39:
 988              		.loc 13 236 16 view .LVU196
 989              	.LBE415:
 990              	.LBE466:
 113:MachineDaisyFile.cpp **** 
 991              		.loc 15 113 2 is_stmt 1 view .LVU197
 992              	.LBB467:
 993              	.LBI447:
 227:../../DaisyExamples/DaisySP//Source/Drums/hihat.h **** 
 994              		.loc 13 227 10 view .LVU198
 995              	.LBB459:
 996              	.LBB456:
ARM GAS  /var/folders/b5/3l92j93d5t1__l78tfntmwyr0000gn/T//ccOBeKL9.s 			page 38


 997              	.LBI449:
  56:../../DaisyExamples/DaisySP//Source/Utility/dsp.h **** {
 998              		.loc 17 56 14 view .LVU199
 999              	.LBE456:
 1000              	.LBE459:
 1001              	.LBE467:
 1002              		.loc 17 58 5 view .LVU200
 1003              	.LBB468:
 1004              	.LBB460:
 1005              	.LBB457:
 1006              	.LBB453:
 1007              	.LBI453:
  32:../../DaisyExamples/DaisySP//Source/Utility/dsp.h **** {
 1008              		.loc 17 32 14 view .LVU201
 1009              	.LBB454:
  34:../../DaisyExamples/DaisySP//Source/Utility/dsp.h **** #ifdef __arm__
 1010              		.loc 17 34 5 view .LVU202
  36:../../DaisyExamples/DaisySP//Source/Utility/dsp.h **** #else
 1011              		.loc 17 36 5 view .LVU203
  40:../../DaisyExamples/DaisySP//Source/Utility/dsp.h **** }
 1012              		.loc 17 40 5 view .LVU204
  40:../../DaisyExamples/DaisySP//Source/Utility/dsp.h **** }
 1013              		.loc 17 40 5 is_stmt 0 view .LVU205
 1014              	.LBE454:
 1015              	.LBE453:
 1016              	.LBB455:
 1017              	.LBI450:
  43:../../DaisyExamples/DaisySP//Source/Utility/dsp.h **** {
 1018              		.loc 17 43 14 is_stmt 1 view .LVU206
 1019              	.LBB452:
  45:../../DaisyExamples/DaisySP//Source/Utility/dsp.h **** #ifdef __arm__
 1020              		.loc 17 45 5 view .LVU207
  47:../../DaisyExamples/DaisySP//Source/Utility/dsp.h **** #else
 1021              		.loc 17 47 5 view .LVU208
  51:../../DaisyExamples/DaisySP//Source/Utility/dsp.h **** }
 1022              		.loc 17 51 5 view .LVU209
  51:../../DaisyExamples/DaisySP//Source/Utility/dsp.h **** }
 1023              		.loc 17 51 5 is_stmt 0 view .LVU210
 1024              	.LBE452:
 1025              	.LBE455:
 1026              	.LBE457:
 1027              	.LBE460:
 1028              	.LBE468:
 1029              		.loc 15 115 2 is_stmt 1 view .LVU211
 1030              		.loc 15 115 21 is_stmt 0 view .LVU212
 1031 00a4 FFF7FEFF 		bl	_ZN7daisysp17SyntheticBassDrum9SetAccentEf
 1032              	.LVL40:
 116:MachineDaisyFile.cpp ****     synthKick.SetDirtiness(.1f);
 1033              		.loc 15 116 5 is_stmt 1 view .LVU213
 1034              		.loc 15 116 27 is_stmt 0 view .LVU214
 1035 00a8 B0EE480A 		vmov.f32	s0, s16
 1036 00ac 2046     		mov	r0, r4
 1037 00ae FFF7FEFF 		bl	_ZN7daisysp17SyntheticBassDrum12SetDirtinessEf
 1038              	.LVL41:
 117:MachineDaisyFile.cpp ****     synthKick.SetDecay(.7f);
 1039              		.loc 15 117 5 is_stmt 1 view .LVU215
 1040              		.loc 15 117 23 is_stmt 0 view .LVU216
ARM GAS  /var/folders/b5/3l92j93d5t1__l78tfntmwyr0000gn/T//ccOBeKL9.s 			page 39


 1041 00b2 B0EE680A 		vmov.f32	s0, s17
 1042 00b6 2046     		mov	r0, r4
 1043 00b8 FFF7FEFF 		bl	_ZN7daisysp17SyntheticBassDrum8SetDecayEf
 1044              	.LVL42:
 118:MachineDaisyFile.cpp **** 	synthKick.SetFreq(150.f);
 1045              		.loc 15 118 2 is_stmt 1 view .LVU217
 1046              		.loc 15 118 19 is_stmt 0 view .LVU218
 1047 00bc 2046     		mov	r0, r4
 1048 00be 9FED120A 		vldr.32	s0, .L45+56
 119:MachineDaisyFile.cpp **** }
 1049              		.loc 15 119 1 view .LVU219
 1050 00c2 BDEC028B 		vldm	sp!, {d8}
 1051              		.cfi_restore 80
 1052              		.cfi_restore 81
 1053              		.cfi_def_cfa_offset 16
 1054 00c6 BDE83840 		pop	{r3, r4, r5, lr}
 1055              		.cfi_restore 14
 1056              		.cfi_restore 5
 1057              		.cfi_restore 4
 1058              		.cfi_restore 3
 1059              		.cfi_def_cfa_offset 0
 118:MachineDaisyFile.cpp **** 	synthKick.SetFreq(150.f);
 1060              		.loc 15 118 19 view .LVU220
 1061 00ca FFF7FEBF 		b	_ZN7daisysp17SyntheticBassDrum7SetFreqEf
 1062              	.LVL43:
 1063              	.L46:
 1064 00ce 00BF     		.align	3
 1065              	.L45:
 1066 00d0 33333333 		.word	858993459
 1067 00d4 3333FB3F 		.word	1073427251
 1068 00d8 33333333 		.word	858993459
 1069 00dc 3333F33F 		.word	1072902963
 1070 00e0 3333333F 		.word	1060320051
 1071 00e4 00000000 		.word	.LANCHOR7
 1072 00e8 00000000 		.word	.LANCHOR8
 1073 00ec CDCCCC3E 		.word	1053609165
 1074 00f0 CDCC4C3E 		.word	1045220557
 1075 00f4 CDCCCC3D 		.word	1036831949
 1076 00f8 00000000 		.word	.LANCHOR10
 1077 00fc 9A99193F 		.word	1058642330
 1078 0100 00000000 		.word	0
 1079 0104 00000000 		.word	.LANCHOR9
 1080 0108 00001643 		.word	1125515264
 1081              		.cfi_endproc
 1082              	.LFE4828:
 1084              		.section	.text._Z14digitalButtonsv,"ax",%progbits
 1085              		.align	1
 1086              		.p2align 2,,3
 1087              		.global	_Z14digitalButtonsv
 1088              		.syntax unified
 1089              		.thumb
 1090              		.thumb_func
 1092              	_Z14digitalButtonsv:
 1093              	.LFB4829:
 120:MachineDaisyFile.cpp **** //====================================================================================
 121:MachineDaisyFile.cpp **** void digitalButtons()
 122:MachineDaisyFile.cpp **** {
ARM GAS  /var/folders/b5/3l92j93d5t1__l78tfntmwyr0000gn/T//ccOBeKL9.s 			page 40


 1094              		.loc 15 122 1 is_stmt 1 view -0
 1095              		.cfi_startproc
 1096              		@ args = 0, pretend = 0, frame = 0
 1097              		@ frame_needed = 0, uses_anonymous_args = 0
 123:MachineDaisyFile.cpp **** 	selector.Debounce();
 1098              		.loc 15 123 2 view .LVU222
 122:MachineDaisyFile.cpp **** 	selector.Debounce();
 1099              		.loc 15 122 1 is_stmt 0 view .LVU223
 1100 0000 10B5     		push	{r4, lr}
 1101              		.cfi_def_cfa_offset 8
 1102              		.cfi_offset 4, -8
 1103              		.cfi_offset 14, -4
 1104              		.loc 15 123 19 view .LVU224
 1105 0002 0A4C     		ldr	r4, .L53
 1106 0004 2046     		mov	r0, r4
 1107 0006 FFF7FEFF 		bl	_ZN5daisy6Switch8DebounceEv
 1108              	.LVL44:
 124:MachineDaisyFile.cpp **** 	if (selector.RisingEdge())
 1109              		.loc 15 124 2 is_stmt 1 view .LVU225
 1110              	.LBB477:
 1111              	.LBI477:
  43:../../DaisyExamples/libDaisy//src/hid/switch.h **** 
  44:../../DaisyExamples/libDaisy//src/hid/switch.h ****     /** 
  45:../../DaisyExamples/libDaisy//src/hid/switch.h ****     Initializes the switch object with a given port/pin combo.
  46:../../DaisyExamples/libDaisy//src/hid/switch.h ****     \param pin port/pin object to tell the switch which hardware pin to use.
  47:../../DaisyExamples/libDaisy//src/hid/switch.h ****     \param update_rate Does nothing. Backwards compatibility until next breaking update.
  48:../../DaisyExamples/libDaisy//src/hid/switch.h ****     \param t switch type -- Default: TYPE_MOMENTARY
  49:../../DaisyExamples/libDaisy//src/hid/switch.h ****     \param pol switch polarity -- Default: POLARITY_INVERTED
  50:../../DaisyExamples/libDaisy//src/hid/switch.h ****     \param pu switch pull up/down -- Default: PULL_UP
  51:../../DaisyExamples/libDaisy//src/hid/switch.h ****     */
  52:../../DaisyExamples/libDaisy//src/hid/switch.h ****     void
  53:../../DaisyExamples/libDaisy//src/hid/switch.h ****     Init(dsy_gpio_pin pin, float update_rate, Type t, Polarity pol, Pull pu);
  54:../../DaisyExamples/libDaisy//src/hid/switch.h **** 
  55:../../DaisyExamples/libDaisy//src/hid/switch.h ****     /**
  56:../../DaisyExamples/libDaisy//src/hid/switch.h ****        Simplified Init.
  57:../../DaisyExamples/libDaisy//src/hid/switch.h ****        \param pin port/pin object to tell the switch which hardware pin to use.
  58:../../DaisyExamples/libDaisy//src/hid/switch.h ****        \param update_rate Left for backwards compatibility until next breaking change.
  59:../../DaisyExamples/libDaisy//src/hid/switch.h ****     */
  60:../../DaisyExamples/libDaisy//src/hid/switch.h ****     void Init(dsy_gpio_pin pin, float update_rate = 0.f);
  61:../../DaisyExamples/libDaisy//src/hid/switch.h **** 
  62:../../DaisyExamples/libDaisy//src/hid/switch.h ****     /** 
  63:../../DaisyExamples/libDaisy//src/hid/switch.h ****     Called at update_rate to debounce and handle timing for the switch.
  64:../../DaisyExamples/libDaisy//src/hid/switch.h ****     In order for events not to be missed, its important that the Edge/Pressed checks
  65:../../DaisyExamples/libDaisy//src/hid/switch.h ****     be made at the same rate as the debounce function is being called.
  66:../../DaisyExamples/libDaisy//src/hid/switch.h ****     */
  67:../../DaisyExamples/libDaisy//src/hid/switch.h ****     void Debounce();
  68:../../DaisyExamples/libDaisy//src/hid/switch.h **** 
  69:../../DaisyExamples/libDaisy//src/hid/switch.h ****     /** \return true if a button was just pressed. */
  70:../../DaisyExamples/libDaisy//src/hid/switch.h ****     inline bool RisingEdge() const { return updated_ ? state_ == 0x7f : false; }
 1112              		.loc 2 70 17 view .LVU226
 1113              	.LBB478:
 1114              		.loc 2 70 38 view .LVU227
 1115              		.loc 2 70 54 is_stmt 0 view .LVU228
 1116 000a 2379     		ldrb	r3, [r4, #4]	@ zero_extendqisi2
 1117 000c 6BB1     		cbz	r3, .L47
 1118              	.LVL45:
 1119              		.loc 2 70 54 view .LVU229
ARM GAS  /var/folders/b5/3l92j93d5t1__l78tfntmwyr0000gn/T//ccOBeKL9.s 			page 41


 1120              	.LBE478:
 1121              	.LBE477:
 1122              		.loc 15 124 2 view .LVU230
 1123 000e A37A     		ldrb	r3, [r4, #10]	@ zero_extendqisi2
 1124 0010 7F2B     		cmp	r3, #127
 1125 0012 0AD1     		bne	.L47
 1126              	.LBB479:
 1127              	.LBI479:
 121:MachineDaisyFile.cpp **** {
 1128              		.loc 15 121 6 is_stmt 1 view .LVU231
 1129              	.LBB480:
 125:MachineDaisyFile.cpp **** 	{
 126:MachineDaisyFile.cpp **** 		drumMode++;
 1130              		.loc 15 126 3 view .LVU232
 127:MachineDaisyFile.cpp **** 		drumMode = drumMode % 4;
 1131              		.loc 15 127 3 view .LVU233
 1132              		.loc 15 127 12 is_stmt 0 view .LVU234
 1133 0014 0649     		ldr	r1, .L53+4
 126:MachineDaisyFile.cpp **** 		drumMode = drumMode % 4;
 1134              		.loc 15 126 11 view .LVU235
 1135 0016 0B68     		ldr	r3, [r1]
 1136 0018 0133     		adds	r3, r3, #1
 1137              		.loc 15 127 23 view .LVU236
 1138 001a 5A42     		rsbs	r2, r3, #0
 1139 001c 03F00303 		and	r3, r3, #3
 1140 0020 02F00302 		and	r2, r2, #3
 1141 0024 58BF     		it	pl
 1142 0026 5342     		rsbpl	r3, r2, #0
 1143              		.loc 15 127 12 view .LVU237
 1144 0028 0B60     		str	r3, [r1]
 1145              	.L47:
 1146              	.LBE480:
 1147              	.LBE479:
 128:MachineDaisyFile.cpp **** 	}
 129:MachineDaisyFile.cpp **** }
 1148              		.loc 15 129 1 view .LVU238
 1149 002a 10BD     		pop	{r4, pc}
 1150              	.L54:
 1151              		.align	2
 1152              	.L53:
 1153 002c 00000000 		.word	.LANCHOR11
 1154 0030 00000000 		.word	.LANCHOR6
 1155              		.cfi_endproc
 1156              	.LFE4829:
 1158              		.section	.text._Z9initDrumsv,"ax",%progbits
 1159              		.align	1
 1160              		.p2align 2,,3
 1161              		.global	_Z9initDrumsv
 1162              		.syntax unified
 1163              		.thumb
 1164              		.thumb_func
 1166              	_Z9initDrumsv:
 1167              	.LFB4831:
 130:MachineDaisyFile.cpp **** //====================================================================================
 131:MachineDaisyFile.cpp **** void sequencer(float &outL, float &outR)
 132:MachineDaisyFile.cpp **** {	
 133:MachineDaisyFile.cpp **** 	
ARM GAS  /var/folders/b5/3l92j93d5t1__l78tfntmwyr0000gn/T//ccOBeKL9.s 			page 42


 134:MachineDaisyFile.cpp **** 	digitalButtons();
 135:MachineDaisyFile.cpp **** 	bool t = tick.Process();
 136:MachineDaisyFile.cpp **** 	outL = kick.Process(kicks[step]&&t) + snare.Process(snares[step]&&t) + hat.Process(snares[step]&&t
 137:MachineDaisyFile.cpp **** 	outR = kick.Process(kicks[step]&&t) + snare.Process(snares[step]&&t) + hat.Process(snares[step]&&t
 138:MachineDaisyFile.cpp **** 	if (t)
 139:MachineDaisyFile.cpp **** 	{
 140:MachineDaisyFile.cpp **** 		step++;
 141:MachineDaisyFile.cpp **** 		step = step % NUM_STEPS;
 142:MachineDaisyFile.cpp **** 	}
 143:MachineDaisyFile.cpp **** 	
 144:MachineDaisyFile.cpp **** 	/*	
 145:MachineDaisyFile.cpp **** 	float delOut, fback;
 146:MachineDaisyFile.cpp **** 	
 147:MachineDaisyFile.cpp **** 	delOut = del.read();
 148:MachineDaisyFile.cpp **** 	fback = (delOut * delFeedback) + totalOut;
 149:MachineDaisyFile.cpp **** 	del.write(fback);
 150:MachineDaisyFile.cpp **** 	outL += totalOut*(1-delWet) + delOut*delWet;
 151:MachineDaisyFile.cpp **** 	outR += totalOut*(1-delWet) + delOut*delWet;
 152:MachineDaisyFile.cpp **** 	*/
 153:MachineDaisyFile.cpp **** }
 154:MachineDaisyFile.cpp **** //====================================================================================
 155:MachineDaisyFile.cpp **** void initDrums()
 156:MachineDaisyFile.cpp **** {
 1168              		.loc 15 156 1 is_stmt 1 view -0
 1169              		.cfi_startproc
 1170              		@ args = 0, pretend = 0, frame = 0
 1171              		@ frame_needed = 0, uses_anonymous_args = 0
 157:MachineDaisyFile.cpp **** 	float fs = hw.AudioSampleRate();
 1172              		.loc 15 157 2 view .LVU240
 156:MachineDaisyFile.cpp **** 	float fs = hw.AudioSampleRate();
 1173              		.loc 15 156 1 is_stmt 0 view .LVU241
 1174 0000 38B5     		push	{r3, r4, r5, lr}
 1175              		.cfi_def_cfa_offset 16
 1176              		.cfi_offset 3, -16
 1177              		.cfi_offset 4, -12
 1178              		.cfi_offset 5, -8
 1179              		.cfi_offset 14, -4
 1180              		.loc 15 157 31 view .LVU242
 1181 0002 414D     		ldr	r5, .L57+16
 1182              	.LBB517:
 1183              	.LBB518:
 120:../../DaisyExamples/DaisySP//Source/Drums/hihat.h **** 
 1184              		.loc 13 120 22 view .LVU243
 1185 0004 414C     		ldr	r4, .L57+20
 1186              	.LBE518:
 1187              	.LBE517:
 1188              		.loc 15 157 31 view .LVU244
 1189 0006 2846     		mov	r0, r5
 156:MachineDaisyFile.cpp **** 	float fs = hw.AudioSampleRate();
 1190              		.loc 15 156 1 view .LVU245
 1191 0008 2DED028B 		vpush.64	{d8}
 1192              		.cfi_def_cfa_offset 24
 1193              		.cfi_offset 80, -24
 1194              		.cfi_offset 81, -20
 1195              		.loc 15 157 31 view .LVU246
 1196 000c FFF7FEFF 		bl	_ZN5daisy9DaisySeed15AudioSampleRateEv
 1197              	.LVL46:
ARM GAS  /var/folders/b5/3l92j93d5t1__l78tfntmwyr0000gn/T//ccOBeKL9.s 			page 43


 1198 0010 B0EE408A 		vmov.f32	s16, s0
 1199              	.LVL47:
 158:MachineDaisyFile.cpp **** 	kick.Init(fs);
 1200              		.loc 15 158 2 is_stmt 1 view .LVU247
 1201              		.loc 15 158 11 is_stmt 0 view .LVU248
 1202 0014 3E48     		ldr	r0, .L57+24
 1203 0016 FFF7FEFF 		bl	_ZN7daisysp14AnalogBassDrum4InitEf
 1204              	.LVL48:
 159:MachineDaisyFile.cpp **** 	snare.Init(fs);
 1205              		.loc 15 159 2 is_stmt 1 view .LVU249
 1206              		.loc 15 159 12 is_stmt 0 view .LVU250
 1207 001a 3E48     		ldr	r0, .L57+28
 1208 001c B0EE480A 		vmov.f32	s0, s16
 1209 0020 FFF7FEFF 		bl	_ZN7daisysp15AnalogSnareDrum4InitEf
 1210              	.LVL49:
 160:MachineDaisyFile.cpp **** 	hat.Init(fs);
 1211              		.loc 15 160 2 is_stmt 1 view .LVU251
 1212              	.LBB638:
 1213              	.LBI517:
 118:../../DaisyExamples/DaisySP//Source/Drums/hihat.h ****     {
 1214              		.loc 13 118 10 view .LVU252
 1215              	.LBB633:
 124:../../DaisyExamples/DaisySP//Source/Drums/hihat.h ****         noise_clock_  = 0.0f;
 1216              		.loc 13 124 23 is_stmt 0 view .LVU253
 1217 0024 DFED3C6A 		vldr.32	s13, .L57+32
 1218              	.LBB519:
 1219              	.LBB520:
 1220              	.LBB521:
 1221              	.LBB522:
  36:../../DaisyExamples/DaisySP//Source/Utility/dsp.h **** #else
 1222              		.loc 17 36 5 view .LVU254
 1223 0028 9FED3C7A 		vldr.32	s14, .L57+36
 1224              	.LBE522:
 1225              	.LBE521:
 1226              	.LBE520:
 1227              	.LBE519:
 1228              	.LBB533:
 1229              	.LBB534:
 1230              	.LBB535:
 1231              	.LBB536:
 1232              	.LBB537:
  47:../../DaisyExamples/DaisySP//Source/Utility/dsp.h **** #else
 1233              		.loc 17 47 5 view .LVU255
 1234 002c F7EE003A 		vmov.f32	s7, #1.0e+0
 1235              	.LBE537:
 1236              	.LBE536:
 1237              	.LBE535:
 1238              	.LBE534:
 1239              	.LBE533:
 1240              	.LBB557:
 1241              	.LBB527:
 1242              	.LBB525:
 1243              	.LBB523:
  36:../../DaisyExamples/DaisySP//Source/Utility/dsp.h **** #else
 1244              		.loc 17 36 5 view .LVU256
 1245              		.syntax unified
 1246              	@ 36 "../../DaisyExamples/DaisySP//Source/Utility/dsp.h" 1
ARM GAS  /var/folders/b5/3l92j93d5t1__l78tfntmwyr0000gn/T//ccOBeKL9.s 			page 44


 1247 0030 87FE267A 		vmaxnm.f32 s14, s14, s13
 1248              	@ 0 "" 2
 1249              		.thumb
 1250              		.syntax unified
 1251              	.LBE523:
 1252              	.LBE525:
 235:../../DaisyExamples/DaisySP//Source/Drums/hihat.h ****         decay_ -= 1.2;
 1253              		.loc 13 235 16 view .LVU257
 1254 0034 9FED305B 		vldr.64	d5, .L57
 1255 0038 B7EEC77A 		vcvt.f64.f32	d7, s14
 1256              	.LBE527:
 1257              	.LBE557:
 1258              	.LBB558:
 1259              	.LBB559:
 1260              	.LBB560:
 1261              	.LBB561:
 1262              	.LBB562:
  36:../../DaisyExamples/DaisySP//Source/Utility/dsp.h **** #else
 1263              		.loc 17 36 5 view .LVU258
 1264 003c 9FED386A 		vldr.32	s12, .L57+40
 1265              		.syntax unified
 1266              	@ 36 "../../DaisyExamples/DaisySP//Source/Utility/dsp.h" 1
 1267 0040 86FE266A 		vmaxnm.f32 s12, s12, s13
 1268              	@ 0 "" 2
 1269              		.thumb
 1270              		.syntax unified
 1271              	.LBE562:
 1272              	.LBE561:
 1273              	.LBE560:
 1274              	.LBE559:
 1275              	.LBE558:
 1276              	.LBB577:
 1277              	.LBB528:
 1278              		.loc 13 236 16 view .LVU259
 1279 0044 9FED2E4B 		vldr.64	d4, .L57+8
 235:../../DaisyExamples/DaisySP//Source/Drums/hihat.h ****         decay_ -= 1.2;
 1280              		.loc 13 235 16 view .LVU260
 1281 0048 27EE057B 		vmul.f64	d7, d7, d5
 1282              	.LBE528:
 1283              	.LBE577:
 1284              	.LBB578:
 1285              	.LBB579:
 208:../../DaisyExamples/DaisySP//Source/Drums/hihat.h **** 
 1286              		.loc 13 208 46 view .LVU261
 1287 004c 0023     		movs	r3, #0
 1288              	.LBE579:
 1289              	.LBE578:
 1290              	.LBB581:
 1291              	.LBB572:
 1292              	.LBB569:
 1293              	.LBB564:
 1294              	.LBB565:
  47:../../DaisyExamples/DaisySP//Source/Utility/dsp.h **** #else
 1295              		.loc 17 47 5 view .LVU262
 1296              		.syntax unified
 1297              	@ 47 "../../DaisyExamples/DaisySP//Source/Utility/dsp.h" 1
 1298 004e 86FE636A 		vminnm.f32 s12, s12, s7
ARM GAS  /var/folders/b5/3l92j93d5t1__l78tfntmwyr0000gn/T//ccOBeKL9.s 			page 45


 1299              	@ 0 "" 2
 1300              		.thumb
 1301              		.syntax unified
 1302              	.LBE565:
 1303              	.LBE564:
 1304              	.LBE569:
 1305              	.LBE572:
 1306              	.LBE581:
 1307              	.LBB582:
 1308              	.LBB550:
 220:../../DaisyExamples/DaisySP//Source/Drums/hihat.h ****         f0_ = fclamp(f0, 0.f, 1.f);
 1309              		.loc 13 220 12 view .LVU263
 1310 0052 DFED345A 		vldr.32	s11, .L57+44
 1311              	.LBE550:
 1312              	.LBE582:
 136:../../DaisyExamples/DaisySP//Source/Drums/hihat.h ****         noise_coloration_svf_.Init(sample_rate_);
 1313              		.loc 13 136 29 view .LVU264
 1314 0056 04F12C00 		add	r0, r4, #44
 1315              	.LBB583:
 1316              	.LBB573:
 237:../../DaisyExamples/DaisySP//Source/Drums/hihat.h ****     }
 238:../../DaisyExamples/DaisySP//Source/Drums/hihat.h **** 
 239:../../DaisyExamples/DaisySP//Source/Drums/hihat.h ****     /** Sets the mix between tone and noise
 240:../../DaisyExamples/DaisySP//Source/Drums/hihat.h ****         \param snappy 1 = just noise. 0 = just tone.
 241:../../DaisyExamples/DaisySP//Source/Drums/hihat.h ****     */
 242:../../DaisyExamples/DaisySP//Source/Drums/hihat.h ****     void SetNoisiness(float noisiness)
 243:../../DaisyExamples/DaisySP//Source/Drums/hihat.h ****     {
 244:../../DaisyExamples/DaisySP//Source/Drums/hihat.h ****         noisiness_ = fclamp(noisiness, 0.f, 1.f);
 245:../../DaisyExamples/DaisySP//Source/Drums/hihat.h ****         noisiness_ *= noisiness_;
 1317              		.loc 13 245 20 view .LVU265
 1318 005a 26EE063A 		vmul.f32	s6, s12, s12
 1319              	.LBE573:
 1320              	.LBE583:
 124:../../DaisyExamples/DaisySP//Source/Drums/hihat.h ****         noise_clock_  = 0.0f;
 1321              		.loc 13 124 23 view .LVU266
 1322 005e C4ED076A 		vstr.32	s13, [r4, #28]
 136:../../DaisyExamples/DaisySP//Source/Drums/hihat.h ****         noise_coloration_svf_.Init(sample_rate_);
 1323              		.loc 13 136 29 view .LVU267
 1324 0062 B0EE480A 		vmov.f32	s0, s16
 125:../../DaisyExamples/DaisySP//Source/Drums/hihat.h ****         noise_sample_ = 0.0f;
 1325              		.loc 13 125 23 view .LVU268
 1326 0066 C4ED086A 		vstr.32	s13, [r4, #32]
 126:../../DaisyExamples/DaisySP//Source/Drums/hihat.h ****         sustain_gain_ = 0.0f;
 1327              		.loc 13 126 23 view .LVU269
 1328 006a C4ED096A 		vstr.32	s13, [r4, #36]
 1329              	.LBB584:
 1330              	.LBB551:
 220:../../DaisyExamples/DaisySP//Source/Drums/hihat.h ****         f0_ = fclamp(f0, 0.f, 1.f);
 1331              		.loc 13 220 12 view .LVU270
 1332 006e 85EE885A 		vdiv.f32	s10, s11, s16
 1333              	.LBE551:
 1334              	.LBE584:
 127:../../DaisyExamples/DaisySP//Source/Drums/hihat.h **** 
 1335              		.loc 13 127 23 view .LVU271
 1336 0072 C4ED0A6A 		vstr.32	s13, [r4, #40]
 1337              	.LBB585:
 1338              	.LBB552:
ARM GAS  /var/folders/b5/3l92j93d5t1__l78tfntmwyr0000gn/T//ccOBeKL9.s 			page 46


 1339              	.LBB546:
 1340              	.LBB540:
 1341              	.LBB541:
  36:../../DaisyExamples/DaisySP//Source/Utility/dsp.h **** #else
 1342              		.loc 17 36 5 view .LVU272
 1343              		.syntax unified
 1344              	@ 36 "../../DaisyExamples/DaisySP//Source/Utility/dsp.h" 1
 1345 0076 85FE265A 		vmaxnm.f32 s10, s10, s13
 1346              	@ 0 "" 2
 1347              		.thumb
 1348              		.syntax unified
 1349              	.LBE541:
 1350              	.LBE540:
 1351              	.LBE546:
 1352              	.LBE552:
 1353              	.LBE585:
 1354              	.LBB586:
 1355              	.LBB574:
 1356              		.loc 13 245 20 view .LVU273
 1357 007a 84ED053A 		vstr.32	s6, [r4, #20]
 1358              	.LBE574:
 1359              	.LBE586:
 1360              	.LBB587:
 1361              	.LBB553:
 1362              	.LBB547:
 1363              	.LBB543:
 1364              	.LBB538:
  47:../../DaisyExamples/DaisySP//Source/Utility/dsp.h **** #else
 1365              		.loc 17 47 5 view .LVU274
 1366              		.syntax unified
 1367              	@ 47 "../../DaisyExamples/DaisySP//Source/Utility/dsp.h" 1
 1368 007e 85FE635A 		vminnm.f32 s10, s10, s7
 1369              	@ 0 "" 2
 1370              		.thumb
 1371              		.syntax unified
 1372              	.LBE538:
 1373              	.LBE543:
 1374              	.LBE547:
 1375              	.LBE553:
 1376              	.LBE587:
 1377              	.LBB588:
 1378              	.LBB529:
 235:../../DaisyExamples/DaisySP//Source/Drums/hihat.h ****         decay_ -= 1.2;
 1379              		.loc 13 235 16 view .LVU275
 1380 0082 B7EEC77B 		vcvt.f32.f64	s14, d7
 1381              	.LBE529:
 1382              	.LBE588:
 1383              	.LBB589:
 1384              	.LBB554:
 221:../../DaisyExamples/DaisySP//Source/Drums/hihat.h ****     }
 1385              		.loc 13 221 13 view .LVU276
 1386 0086 84ED025A 		vstr.32	s10, [r4, #8]
 1387              	.LBE554:
 1388              	.LBE589:
 1389              	.LBB590:
 1390              	.LBB591:
 213:../../DaisyExamples/DaisySP//Source/Drums/hihat.h **** 
ARM GAS  /var/folders/b5/3l92j93d5t1__l78tfntmwyr0000gn/T//ccOBeKL9.s 			page 47


 1391              		.loc 13 213 44 view .LVU277
 1392 008a 84ED016A 		vstr.32	s12, [r4, #4]
 1393              	.LBE591:
 1394              	.LBE590:
 1395              	.LBB600:
 1396              	.LBB601:
 1397              	.LBB602:
 1398              	.LBB603:
 1399              	.LBB604:
  36:../../DaisyExamples/DaisySP//Source/Utility/dsp.h **** #else
 1400              		.loc 17 36 5 view .LVU278
 1401 008e F6EE005A 		vmov.f32	s11, #5.0e-1
 1402              	.LBE604:
 1403              	.LBE603:
 1404              	.LBE602:
 1405              	.LBE601:
 1406              	.LBE600:
 1407              	.LBB618:
 1408              	.LBB580:
 208:../../DaisyExamples/DaisySP//Source/Drums/hihat.h **** 
 1409              		.loc 13 208 46 view .LVU279
 1410 0092 2383     		strh	r3, [r4, #24]	@ movhi
 1411              	.LBE580:
 1412              	.LBE618:
 1413              	.LBB619:
 1414              	.LBB530:
 236:../../DaisyExamples/DaisySP//Source/Drums/hihat.h ****     }
 1415              		.loc 13 236 16 view .LVU280
 1416 0094 B7EEC77A 		vcvt.f64.f32	d7, s14
 1417              	.LBE530:
 1418              	.LBE619:
 120:../../DaisyExamples/DaisySP//Source/Drums/hihat.h **** 
 1419              		.loc 13 120 22 view .LVU281
 1420 0098 84ED008A 		vstr.32	s16, [r4]
 1421              	.LBB620:
 1422              	.LBB614:
 1423              	.LBB611:
 1424              	.LBB607:
 1425              	.LBB605:
  36:../../DaisyExamples/DaisySP//Source/Utility/dsp.h **** #else
 1426              		.loc 17 36 5 view .LVU282
 1427              		.syntax unified
 1428              	@ 36 "../../DaisyExamples/DaisySP//Source/Utility/dsp.h" 1
 1429 009c C5FEA65A 		vmaxnm.f32 s11, s11, s13
 1430              	@ 0 "" 2
 1431              	.LVL50:
  36:../../DaisyExamples/DaisySP//Source/Utility/dsp.h **** #else
 1432              		.loc 17 36 5 view .LVU283
 1433              		.thumb
 1434              		.syntax unified
 1435              	.LBE605:
 1436              	.LBE607:
 1437              	.LBE611:
 1438              	.LBE614:
 1439              	.LBE620:
 1440              	.LBB621:
 1441              	.LBI533:
ARM GAS  /var/folders/b5/3l92j93d5t1__l78tfntmwyr0000gn/T//ccOBeKL9.s 			page 48


 218:../../DaisyExamples/DaisySP//Source/Drums/hihat.h ****     {
 1442              		.loc 13 218 10 is_stmt 1 view .LVU284
 1443              	.LBB555:
 1444              	.LBB548:
 1445              	.LBI535:
  56:../../DaisyExamples/DaisySP//Source/Utility/dsp.h **** {
 1446              		.loc 17 56 14 view .LVU285
 1447              	.LBE548:
 1448              	.LBE555:
 1449              	.LBE621:
 1450              	.LBE633:
 1451              	.LBE638:
 1452              		.loc 17 58 5 view .LVU286
 1453              	.LBB639:
 1454              	.LBB634:
 1455              	.LBB622:
 1456              	.LBB556:
 1457              	.LBB549:
 1458              	.LBB544:
 1459              	.LBI540:
  32:../../DaisyExamples/DaisySP//Source/Utility/dsp.h **** {
 1460              		.loc 17 32 14 view .LVU287
 1461              	.LBB542:
  34:../../DaisyExamples/DaisySP//Source/Utility/dsp.h **** #ifdef __arm__
 1462              		.loc 17 34 5 view .LVU288
  36:../../DaisyExamples/DaisySP//Source/Utility/dsp.h **** #else
 1463              		.loc 17 36 5 view .LVU289
  40:../../DaisyExamples/DaisySP//Source/Utility/dsp.h **** }
 1464              		.loc 17 40 5 view .LVU290
  40:../../DaisyExamples/DaisySP//Source/Utility/dsp.h **** }
 1465              		.loc 17 40 5 is_stmt 0 view .LVU291
 1466              	.LBE542:
 1467              	.LBE544:
 1468              	.LBB545:
 1469              	.LBI536:
  43:../../DaisyExamples/DaisySP//Source/Utility/dsp.h **** {
 1470              		.loc 17 43 14 is_stmt 1 view .LVU292
 1471              	.LBB539:
  45:../../DaisyExamples/DaisySP//Source/Utility/dsp.h **** #ifdef __arm__
 1472              		.loc 17 45 5 view .LVU293
  47:../../DaisyExamples/DaisySP//Source/Utility/dsp.h **** #else
 1473              		.loc 17 47 5 view .LVU294
  51:../../DaisyExamples/DaisySP//Source/Utility/dsp.h **** }
 1474              		.loc 17 51 5 view .LVU295
  51:../../DaisyExamples/DaisySP//Source/Utility/dsp.h **** }
 1475              		.loc 17 51 5 is_stmt 0 view .LVU296
 1476              	.LBE539:
 1477              	.LBE545:
 1478              	.LBE549:
 1479              	.LBE556:
 1480              	.LBE622:
 1481              	.LBB623:
 1482              	.LBI600:
 227:../../DaisyExamples/DaisySP//Source/Drums/hihat.h **** 
 1483              		.loc 13 227 10 is_stmt 1 view .LVU297
 1484              	.LBB615:
 1485              	.LBB612:
ARM GAS  /var/folders/b5/3l92j93d5t1__l78tfntmwyr0000gn/T//ccOBeKL9.s 			page 49


 1486              	.LBI602:
  56:../../DaisyExamples/DaisySP//Source/Utility/dsp.h **** {
 1487              		.loc 17 56 14 view .LVU298
 1488              	.LBE612:
 1489              	.LBE615:
 1490              	.LBE623:
 1491              	.LBE634:
 1492              	.LBE639:
 1493              		.loc 17 58 5 view .LVU299
 1494              	.LBB640:
 1495              	.LBB635:
 1496              	.LBB624:
 1497              	.LBB616:
 1498              	.LBB613:
 1499              	.LBB608:
 1500              	.LBI603:
  32:../../DaisyExamples/DaisySP//Source/Utility/dsp.h **** {
 1501              		.loc 17 32 14 view .LVU300
 1502              	.LBB606:
  34:../../DaisyExamples/DaisySP//Source/Utility/dsp.h **** #ifdef __arm__
 1503              		.loc 17 34 5 view .LVU301
  36:../../DaisyExamples/DaisySP//Source/Utility/dsp.h **** #else
 1504              		.loc 17 36 5 view .LVU302
  40:../../DaisyExamples/DaisySP//Source/Utility/dsp.h **** }
 1505              		.loc 17 40 5 view .LVU303
  40:../../DaisyExamples/DaisySP//Source/Utility/dsp.h **** }
 1506              		.loc 17 40 5 is_stmt 0 view .LVU304
 1507              	.LBE606:
 1508              	.LBE608:
 1509              	.LBB609:
 1510              	.LBI609:
  43:../../DaisyExamples/DaisySP//Source/Utility/dsp.h **** {
 1511              		.loc 17 43 14 is_stmt 1 view .LVU305
 1512              	.LBB610:
  45:../../DaisyExamples/DaisySP//Source/Utility/dsp.h **** #ifdef __arm__
 1513              		.loc 17 45 5 view .LVU306
  47:../../DaisyExamples/DaisySP//Source/Utility/dsp.h **** #else
 1514              		.loc 17 47 5 view .LVU307
 1515              		.syntax unified
 1516              	@ 47 "../../DaisyExamples/DaisySP//Source/Utility/dsp.h" 1
 1517 00a0 C5FEE35A 		vminnm.f32 s11, s11, s7
 1518              	@ 0 "" 2
 1519              	.LVL51:
  51:../../DaisyExamples/DaisySP//Source/Utility/dsp.h **** }
 1520              		.loc 17 51 5 view .LVU308
  51:../../DaisyExamples/DaisySP//Source/Utility/dsp.h **** }
 1521              		.loc 17 51 5 is_stmt 0 view .LVU309
 1522              		.thumb
 1523              		.syntax unified
 1524              	.LBE610:
 1525              	.LBE609:
 1526              	.LBE613:
 1527              	.LBE616:
 1528              	.LBE624:
 1529              	.LBB625:
 1530              	.LBB531:
 236:../../DaisyExamples/DaisySP//Source/Drums/hihat.h ****     }
ARM GAS  /var/folders/b5/3l92j93d5t1__l78tfntmwyr0000gn/T//ccOBeKL9.s 			page 50


 1531              		.loc 13 236 16 view .LVU310
 1532 00a4 37EE447B 		vsub.f64	d7, d7, d4
 1533              	.LBE531:
 1534              	.LBE625:
 1535              	.LBB626:
 1536              	.LBB617:
 227:../../DaisyExamples/DaisySP//Source/Drums/hihat.h **** 
 1537              		.loc 13 227 38 view .LVU311
 1538 00a8 C4ED035A 		vstr.32	s11, [r4, #12]
 1539              	.LVL52:
 227:../../DaisyExamples/DaisySP//Source/Drums/hihat.h **** 
 1540              		.loc 13 227 38 view .LVU312
 1541              	.LBE617:
 1542              	.LBE626:
 1543              	.LBB627:
 1544              	.LBI519:
 232:../../DaisyExamples/DaisySP//Source/Drums/hihat.h ****     {
 1545              		.loc 13 232 10 is_stmt 1 view .LVU313
 1546              	.LBB532:
 1547              	.LBB526:
 1548              	.LBI521:
  32:../../DaisyExamples/DaisySP//Source/Utility/dsp.h **** {
 1549              		.loc 17 32 14 view .LVU314
 1550              	.LBB524:
  34:../../DaisyExamples/DaisySP//Source/Utility/dsp.h **** #ifdef __arm__
 1551              		.loc 17 34 5 view .LVU315
  36:../../DaisyExamples/DaisySP//Source/Utility/dsp.h **** #else
 1552              		.loc 17 36 5 view .LVU316
  40:../../DaisyExamples/DaisySP//Source/Utility/dsp.h **** }
 1553              		.loc 17 40 5 view .LVU317
  40:../../DaisyExamples/DaisySP//Source/Utility/dsp.h **** }
 1554              		.loc 17 40 5 is_stmt 0 view .LVU318
 1555              	.LBE524:
 1556              	.LBE526:
 236:../../DaisyExamples/DaisySP//Source/Drums/hihat.h ****     }
 1557              		.loc 13 236 16 view .LVU319
 1558 00ac B7EEC77B 		vcvt.f32.f64	s14, d7
 1559 00b0 84ED047A 		vstr.32	s14, [r4, #16]
 1560              	.LVL53:
 236:../../DaisyExamples/DaisySP//Source/Drums/hihat.h ****     }
 1561              		.loc 13 236 16 view .LVU320
 1562              	.LBE532:
 1563              	.LBE627:
 1564              	.LBB628:
 1565              	.LBI558:
 242:../../DaisyExamples/DaisySP//Source/Drums/hihat.h ****     {
 1566              		.loc 13 242 10 is_stmt 1 view .LVU321
 1567              	.LBB575:
 1568              	.LBB570:
 1569              	.LBI560:
  56:../../DaisyExamples/DaisySP//Source/Utility/dsp.h **** {
 1570              		.loc 17 56 14 view .LVU322
 1571              	.LBE570:
 1572              	.LBE575:
 1573              	.LBE628:
 1574              	.LBE635:
 1575              	.LBE640:
ARM GAS  /var/folders/b5/3l92j93d5t1__l78tfntmwyr0000gn/T//ccOBeKL9.s 			page 51


 1576              		.loc 17 58 5 view .LVU323
 1577              	.LBB641:
 1578              	.LBB636:
 1579              	.LBB629:
 1580              	.LBB576:
 1581              	.LBB571:
 1582              	.LBB567:
 1583              	.LBI561:
  32:../../DaisyExamples/DaisySP//Source/Utility/dsp.h **** {
 1584              		.loc 17 32 14 view .LVU324
 1585              	.LBB563:
  34:../../DaisyExamples/DaisySP//Source/Utility/dsp.h **** #ifdef __arm__
 1586              		.loc 17 34 5 view .LVU325
  36:../../DaisyExamples/DaisySP//Source/Utility/dsp.h **** #else
 1587              		.loc 17 36 5 view .LVU326
  40:../../DaisyExamples/DaisySP//Source/Utility/dsp.h **** }
 1588              		.loc 17 40 5 view .LVU327
  40:../../DaisyExamples/DaisySP//Source/Utility/dsp.h **** }
 1589              		.loc 17 40 5 is_stmt 0 view .LVU328
 1590              	.LBE563:
 1591              	.LBE567:
 1592              	.LBB568:
 1593              	.LBI564:
  43:../../DaisyExamples/DaisySP//Source/Utility/dsp.h **** {
 1594              		.loc 17 43 14 is_stmt 1 view .LVU329
 1595              	.LBB566:
  45:../../DaisyExamples/DaisySP//Source/Utility/dsp.h **** #ifdef __arm__
 1596              		.loc 17 45 5 view .LVU330
  47:../../DaisyExamples/DaisySP//Source/Utility/dsp.h **** #else
 1597              		.loc 17 47 5 view .LVU331
  51:../../DaisyExamples/DaisySP//Source/Utility/dsp.h **** }
 1598              		.loc 17 51 5 view .LVU332
  51:../../DaisyExamples/DaisySP//Source/Utility/dsp.h **** }
 1599              		.loc 17 51 5 is_stmt 0 view .LVU333
 1600              	.LBE566:
 1601              	.LBE568:
 1602              	.LBE571:
 1603              	.LBE576:
 1604              	.LBE629:
 1605              	.LBB630:
 1606              	.LBI590:
 213:../../DaisyExamples/DaisySP//Source/Drums/hihat.h **** 
 1607              		.loc 13 213 10 is_stmt 1 view .LVU334
 1608              	.LBB598:
 1609              	.LBB592:
 1610              	.LBI592:
  56:../../DaisyExamples/DaisySP//Source/Utility/dsp.h **** {
 1611              		.loc 17 56 14 view .LVU335
 1612              	.LBE592:
 1613              	.LBE598:
 1614              	.LBE630:
 1615              	.LBE636:
 1616              	.LBE641:
 1617              		.loc 17 58 5 view .LVU336
 1618              	.LBB642:
 1619              	.LBB637:
 1620              	.LBB631:
ARM GAS  /var/folders/b5/3l92j93d5t1__l78tfntmwyr0000gn/T//ccOBeKL9.s 			page 52


 1621              	.LBB599:
 1622              	.LBB597:
 1623              	.LBB593:
 1624              	.LBI593:
  32:../../DaisyExamples/DaisySP//Source/Utility/dsp.h **** {
 1625              		.loc 17 32 14 view .LVU337
 1626              	.LBB594:
  34:../../DaisyExamples/DaisySP//Source/Utility/dsp.h **** #ifdef __arm__
 1627              		.loc 17 34 5 view .LVU338
  36:../../DaisyExamples/DaisySP//Source/Utility/dsp.h **** #else
 1628              		.loc 17 36 5 view .LVU339
  40:../../DaisyExamples/DaisySP//Source/Utility/dsp.h **** }
 1629              		.loc 17 40 5 view .LVU340
  40:../../DaisyExamples/DaisySP//Source/Utility/dsp.h **** }
 1630              		.loc 17 40 5 is_stmt 0 view .LVU341
 1631              	.LBE594:
 1632              	.LBE593:
 1633              	.LBB595:
 1634              	.LBI595:
  43:../../DaisyExamples/DaisySP//Source/Utility/dsp.h **** {
 1635              		.loc 17 43 14 is_stmt 1 view .LVU342
 1636              	.LBB596:
  45:../../DaisyExamples/DaisySP//Source/Utility/dsp.h **** #ifdef __arm__
 1637              		.loc 17 45 5 view .LVU343
  47:../../DaisyExamples/DaisySP//Source/Utility/dsp.h **** #else
 1638              		.loc 17 47 5 view .LVU344
  51:../../DaisyExamples/DaisySP//Source/Utility/dsp.h **** }
 1639              		.loc 17 51 5 view .LVU345
  51:../../DaisyExamples/DaisySP//Source/Utility/dsp.h **** }
 1640              		.loc 17 51 5 is_stmt 0 view .LVU346
 1641              	.LBE596:
 1642              	.LBE595:
 1643              	.LBE597:
 1644              	.LBE599:
 1645              	.LBE631:
 1646              	.LBB632:
 1647              	.LBI578:
 208:../../DaisyExamples/DaisySP//Source/Drums/hihat.h **** 
 1648              		.loc 13 208 10 is_stmt 1 view .LVU347
 208:../../DaisyExamples/DaisySP//Source/Drums/hihat.h **** 
 1649              		.loc 13 208 10 is_stmt 0 view .LVU348
 1650              	.LBE632:
 136:../../DaisyExamples/DaisySP//Source/Drums/hihat.h ****         noise_coloration_svf_.Init(sample_rate_);
 1651              		.loc 13 136 29 view .LVU349
 1652 00b4 FFF7FEFF 		bl	_ZN7daisysp11SquareNoise4InitEf
 1653              	.LVL54:
 137:../../DaisyExamples/DaisySP//Source/Drums/hihat.h ****         hpf_.Init(sample_rate_);
 1654              		.loc 13 137 35 view .LVU350
 1655 00b8 2046     		mov	r0, r4
 1656 00ba 94ED000A 		vldr.32	s0, [r4]
 1657 00be 4430     		adds	r0, r0, #68
 1658 00c0 FFF7FEFF 		bl	_ZN7daisysp3Svf4InitEf
 1659              	.LVL55:
 138:../../DaisyExamples/DaisySP//Source/Drums/hihat.h ****     }
 1660              		.loc 13 138 18 view .LVU351
 1661 00c4 2046     		mov	r0, r4
 1662 00c6 94ED000A 		vldr.32	s0, [r4]
ARM GAS  /var/folders/b5/3l92j93d5t1__l78tfntmwyr0000gn/T//ccOBeKL9.s 			page 53


 1663 00ca 9030     		adds	r0, r0, #144
 1664 00cc FFF7FEFF 		bl	_ZN7daisysp3Svf4InitEf
 1665              	.LVL56:
 138:../../DaisyExamples/DaisySP//Source/Drums/hihat.h ****     }
 1666              		.loc 13 138 18 view .LVU352
 1667              	.LBE637:
 1668              	.LBE642:
 161:MachineDaisyFile.cpp **** 	synthKick.Init(fs);
 1669              		.loc 15 161 2 is_stmt 1 view .LVU353
 1670              		.loc 15 161 16 is_stmt 0 view .LVU354
 1671 00d0 B0EE480A 		vmov.f32	s0, s16
 1672 00d4 1448     		ldr	r0, .L57+48
 1673 00d6 FFF7FEFF 		bl	_ZN7daisysp17SyntheticBassDrum4InitEf
 1674              	.LVL57:
 162:MachineDaisyFile.cpp **** 	tick.Init(4.f, hw.AudioSampleRate());
 1675              		.loc 15 162 2 is_stmt 1 view .LVU355
 1676              		.loc 15 162 11 is_stmt 0 view .LVU356
 1677 00da 2846     		mov	r0, r5
 1678 00dc FFF7FEFF 		bl	_ZN5daisy9DaisySeed15AudioSampleRateEv
 1679              	.LVL58:
 1680 00e0 1248     		ldr	r0, .L57+52
 1681 00e2 F0EE400A 		vmov.f32	s1, s0
 1682 00e6 B1EE000A 		vmov.f32	s0, #4.0e+0
 163:MachineDaisyFile.cpp **** }
 1683              		.loc 15 163 1 view .LVU357
 1684 00ea BDEC028B 		vldm	sp!, {d8}
 1685              		.cfi_restore 80
 1686              		.cfi_restore 81
 1687              		.cfi_def_cfa_offset 16
 1688              	.LVL59:
 1689              		.loc 15 163 1 view .LVU358
 1690 00ee BDE83840 		pop	{r3, r4, r5, lr}
 1691              		.cfi_restore 14
 1692              		.cfi_restore 5
 1693              		.cfi_restore 4
 1694              		.cfi_restore 3
 1695              		.cfi_def_cfa_offset 0
 162:MachineDaisyFile.cpp **** 	tick.Init(4.f, hw.AudioSampleRate());
 1696              		.loc 15 162 11 view .LVU359
 1697 00f2 FFF7FEBF 		b	_ZN7daisysp5Metro4InitEff
 1698              	.LVL60:
 1699              	.L58:
 1700 00f6 00BF     		.align	3
 1701              	.L57:
 1702 00f8 33333333 		.word	858993459
 1703 00fc 3333FB3F 		.word	1073427251
 1704 0100 33333333 		.word	858993459
 1705 0104 3333F33F 		.word	1072902963
 1706 0108 00000000 		.word	.LANCHOR0
 1707 010c 00000000 		.word	.LANCHOR9
 1708 0110 00000000 		.word	.LANCHOR7
 1709 0114 00000000 		.word	.LANCHOR8
 1710 0118 00000000 		.word	0
 1711 011c CDCC4C3E 		.word	1045220557
 1712 0120 CDCC4C3F 		.word	1061997773
 1713 0124 00803B45 		.word	1161527296
 1714 0128 00000000 		.word	.LANCHOR10
ARM GAS  /var/folders/b5/3l92j93d5t1__l78tfntmwyr0000gn/T//ccOBeKL9.s 			page 54


 1715 012c 00000000 		.word	.LANCHOR12
 1716              		.cfi_endproc
 1717              	.LFE4831:
 1719              		.section	.text._Z8initEnvsv,"ax",%progbits
 1720              		.align	1
 1721              		.p2align 2,,3
 1722              		.global	_Z8initEnvsv
 1723              		.syntax unified
 1724              		.thumb
 1725              		.thumb_func
 1727              	_Z8initEnvsv:
 1728              	.LFB4832:
 164:MachineDaisyFile.cpp **** //====================================================================================
 165:MachineDaisyFile.cpp **** void initEnvs()
 166:MachineDaisyFile.cpp **** {
 1729              		.loc 15 166 1 is_stmt 1 view -0
 1730              		.cfi_startproc
 1731              		@ args = 0, pretend = 0, frame = 0
 1732              		@ frame_needed = 0, uses_anonymous_args = 0
 167:MachineDaisyFile.cpp **** 	snareEnv.Init(hw.AudioSampleRate());
 1733              		.loc 15 167 2 view .LVU361
 166:MachineDaisyFile.cpp **** 	snareEnv.Init(hw.AudioSampleRate());
 1734              		.loc 15 166 1 is_stmt 0 view .LVU362
 1735 0000 2DE9F047 		push	{r4, r5, r6, r7, r8, r9, r10, lr}
 1736              		.cfi_def_cfa_offset 32
 1737              		.cfi_offset 4, -32
 1738              		.cfi_offset 5, -28
 1739              		.cfi_offset 6, -24
 1740              		.cfi_offset 7, -20
 1741              		.cfi_offset 8, -16
 1742              		.cfi_offset 9, -12
 1743              		.cfi_offset 10, -8
 1744              		.cfi_offset 14, -4
 1745              		.loc 15 167 15 view .LVU363
 1746 0004 DFF88CA0 		ldr	r10, .L61+16
 1747              	.LBB643:
 1748              	.LBB644:
  36:../../DaisyExamples/DaisySP//Source/Control/adenv.h ****     /** Initializes the ad envelope.
  37:../../DaisyExamples/DaisySP//Source/Control/adenv.h **** 
  38:../../DaisyExamples/DaisySP//Source/Control/adenv.h ****         Defaults:
  39:../../DaisyExamples/DaisySP//Source/Control/adenv.h ****             - current segment = idle
  40:../../DaisyExamples/DaisySP//Source/Control/adenv.h ****             - curve = linear
  41:../../DaisyExamples/DaisySP//Source/Control/adenv.h ****             - phase = 0
  42:../../DaisyExamples/DaisySP//Source/Control/adenv.h ****             - min = 0
  43:../../DaisyExamples/DaisySP//Source/Control/adenv.h ****             - max = 1
  44:../../DaisyExamples/DaisySP//Source/Control/adenv.h **** 
  45:../../DaisyExamples/DaisySP//Source/Control/adenv.h ****         \param sample_rate      sample rate of the audio engine being run
  46:../../DaisyExamples/DaisySP//Source/Control/adenv.h ****     */
  47:../../DaisyExamples/DaisySP//Source/Control/adenv.h ****     void Init(float sample_rate);
  48:../../DaisyExamples/DaisySP//Source/Control/adenv.h **** 
  49:../../DaisyExamples/DaisySP//Source/Control/adenv.h ****     /** Processes the current sample of the envelope. This should be called once
  50:../../DaisyExamples/DaisySP//Source/Control/adenv.h ****         per sample period.
  51:../../DaisyExamples/DaisySP//Source/Control/adenv.h ****         \return the current envelope value.
  52:../../DaisyExamples/DaisySP//Source/Control/adenv.h ****     */
  53:../../DaisyExamples/DaisySP//Source/Control/adenv.h ****     float Process();
  54:../../DaisyExamples/DaisySP//Source/Control/adenv.h **** 
  55:../../DaisyExamples/DaisySP//Source/Control/adenv.h ****     /** Starts or retriggers the envelope.*/
ARM GAS  /var/folders/b5/3l92j93d5t1__l78tfntmwyr0000gn/T//ccOBeKL9.s 			page 55


  56:../../DaisyExamples/DaisySP//Source/Control/adenv.h ****     inline void Trigger() { trigger_ = 1; }
  57:../../DaisyExamples/DaisySP//Source/Control/adenv.h ****     /** Sets the length of time (in seconds) for a specific segment. */
  58:../../DaisyExamples/DaisySP//Source/Control/adenv.h ****     inline void SetTime(uint8_t seg, float time) { segment_time_[seg] = time; }
  59:../../DaisyExamples/DaisySP//Source/Control/adenv.h ****     /** Sets the amount of curve applied. A positve value will create a log
  60:../../DaisyExamples/DaisySP//Source/Control/adenv.h ****         curve. Input range: -100 to 100.  (or more)
  61:../../DaisyExamples/DaisySP//Source/Control/adenv.h ****     */
  62:../../DaisyExamples/DaisySP//Source/Control/adenv.h ****     inline void SetCurve(float scalar) { curve_scalar_ = scalar; }
  63:../../DaisyExamples/DaisySP//Source/Control/adenv.h ****     /** Sets the minimum value of the envelope output.
  64:../../DaisyExamples/DaisySP//Source/Control/adenv.h ****         Input range: -FLTmax_, to FLTmax_
  65:../../DaisyExamples/DaisySP//Source/Control/adenv.h ****     */
  66:../../DaisyExamples/DaisySP//Source/Control/adenv.h ****     inline void SetMin(float min) { min_ = min; }
  67:../../DaisyExamples/DaisySP//Source/Control/adenv.h ****     /** Sets the maximum value of the envelope output.
  68:../../DaisyExamples/DaisySP//Source/Control/adenv.h ****         Input range: -FLTmax_, to FLTmax_
  69:../../DaisyExamples/DaisySP//Source/Control/adenv.h ****     */
  70:../../DaisyExamples/DaisySP//Source/Control/adenv.h ****     inline void SetMax(float max) { max_ = max; }
 1749              		.loc 7 70 42 view .LVU364
 1750 0008 4FF07E57 		mov	r7, #1065353216
 1751              	.LBE644:
 1752              	.LBE643:
 1753              		.loc 15 167 15 view .LVU365
 1754 000c 1D4D     		ldr	r5, .L61
 1755              	.LBB647:
 1756              	.LBB648:
  66:../../DaisyExamples/DaisySP//Source/Control/adenv.h ****     /** Sets the maximum value of the envelope output.
 1757              		.loc 7 66 42 view .LVU366
 1758 000e 0026     		movs	r6, #0
 1759              	.LBE648:
 1760              	.LBE647:
 1761              	.LBB651:
 1762              	.LBB652:
  58:../../DaisyExamples/DaisySP//Source/Control/adenv.h ****     /** Sets the amount of curve applied. A positve value will create a log
 1763              		.loc 7 58 71 view .LVU367
 1764 0010 DFF88490 		ldr	r9, .L61+20
 1765              	.LBE652:
 1766              	.LBE651:
 1767              		.loc 15 167 15 view .LVU368
 1768 0014 5046     		mov	r0, r10
 1769              	.LBB655:
 1770              	.LBB656:
  58:../../DaisyExamples/DaisySP//Source/Control/adenv.h ****     /** Sets the amount of curve applied. A positve value will create a log
 1771              		.loc 7 58 71 view .LVU369
 1772 0016 DFF88480 		ldr	r8, .L61+24
 1773              	.LBE656:
 1774              	.LBE655:
 1775              		.loc 15 167 15 view .LVU370
 1776 001a FFF7FEFF 		bl	_ZN5daisy9DaisySeed15AudioSampleRateEv
 1777              	.LVL61:
 168:MachineDaisyFile.cpp ****     snareEnv.SetTime(ADENV_SEG_ATTACK, .01);
 169:MachineDaisyFile.cpp ****     snareEnv.SetTime(ADENV_SEG_DECAY, .2);
 170:MachineDaisyFile.cpp ****     snareEnv.SetMax(1);
 171:MachineDaisyFile.cpp ****     snareEnv.SetMin(0);
 172:MachineDaisyFile.cpp **** 
 173:MachineDaisyFile.cpp **** 	kickEnv.Init(hw.AudioSampleRate());
 1778              		.loc 15 173 14 view .LVU371
 1779 001e 1A4C     		ldr	r4, .L61+4
 167:MachineDaisyFile.cpp ****     snareEnv.SetTime(ADENV_SEG_ATTACK, .01);
 1780              		.loc 15 167 15 view .LVU372
ARM GAS  /var/folders/b5/3l92j93d5t1__l78tfntmwyr0000gn/T//ccOBeKL9.s 			page 56


 1781 0020 2846     		mov	r0, r5
 1782 0022 FFF7FEFF 		bl	_ZN7daisysp5AdEnv4InitEf
 1783              	.LVL62:
 168:MachineDaisyFile.cpp ****     snareEnv.SetTime(ADENV_SEG_ATTACK, .01);
 1784              		.loc 15 168 5 is_stmt 1 view .LVU373
 1785              	.LBB658:
 1786              	.LBI651:
  58:../../DaisyExamples/DaisySP//Source/Control/adenv.h ****     /** Sets the amount of curve applied. A positve value will create a log
 1787              		.loc 7 58 17 view .LVU374
 1788              	.LBB653:
  58:../../DaisyExamples/DaisySP//Source/Control/adenv.h ****     /** Sets the amount of curve applied. A positve value will create a log
 1789              		.loc 7 58 52 view .LVU375
 1790              	.LBE653:
 1791              	.LBE658:
 1792              		.loc 15 173 14 is_stmt 0 view .LVU376
 1793 0026 5046     		mov	r0, r10
 1794              	.LBB659:
 1795              	.LBB654:
  58:../../DaisyExamples/DaisySP//Source/Control/adenv.h ****     /** Sets the amount of curve applied. A positve value will create a log
 1796              		.loc 7 58 71 view .LVU377
 1797 0028 C5F80890 		str	r9, [r5, #8]	@ float
 1798              	.LVL63:
  58:../../DaisyExamples/DaisySP//Source/Control/adenv.h ****     /** Sets the amount of curve applied. A positve value will create a log
 1799              		.loc 7 58 71 view .LVU378
 1800              	.LBE654:
 1801              	.LBE659:
 169:MachineDaisyFile.cpp ****     snareEnv.SetMax(1);
 1802              		.loc 15 169 5 is_stmt 1 view .LVU379
 1803              	.LBB660:
 1804              	.LBI655:
  58:../../DaisyExamples/DaisySP//Source/Control/adenv.h ****     /** Sets the amount of curve applied. A positve value will create a log
 1805              		.loc 7 58 17 view .LVU380
 1806              	.LBB657:
  58:../../DaisyExamples/DaisySP//Source/Control/adenv.h ****     /** Sets the amount of curve applied. A positve value will create a log
 1807              		.loc 7 58 52 view .LVU381
  58:../../DaisyExamples/DaisySP//Source/Control/adenv.h ****     /** Sets the amount of curve applied. A positve value will create a log
 1808              		.loc 7 58 71 is_stmt 0 view .LVU382
 1809 002c C5F80C80 		str	r8, [r5, #12]	@ float
 1810              	.LVL64:
  58:../../DaisyExamples/DaisySP//Source/Control/adenv.h ****     /** Sets the amount of curve applied. A positve value will create a log
 1811              		.loc 7 58 71 view .LVU383
 1812              	.LBE657:
 1813              	.LBE660:
 170:MachineDaisyFile.cpp ****     snareEnv.SetMin(0);
 1814              		.loc 15 170 5 is_stmt 1 view .LVU384
 1815              	.LBB661:
 1816              	.LBI643:
 1817              		.loc 7 70 17 view .LVU385
 1818              	.LBB645:
 1819              		.loc 7 70 37 view .LVU386
 1820              		.loc 7 70 37 is_stmt 0 view .LVU387
 1821              	.LBE645:
 1822              	.LBE661:
 171:MachineDaisyFile.cpp **** 
 1823              		.loc 15 171 5 is_stmt 1 view .LVU388
 1824              	.LBB662:
 1825              	.LBI647:
ARM GAS  /var/folders/b5/3l92j93d5t1__l78tfntmwyr0000gn/T//ccOBeKL9.s 			page 57


  66:../../DaisyExamples/DaisySP//Source/Control/adenv.h ****     /** Sets the maximum value of the envelope output.
 1826              		.loc 7 66 17 view .LVU389
 1827              	.LBB649:
  66:../../DaisyExamples/DaisySP//Source/Control/adenv.h ****     /** Sets the maximum value of the envelope output.
 1828              		.loc 7 66 37 view .LVU390
 1829              	.LBE649:
 1830              	.LBE662:
 1831              	.LBB663:
 1832              	.LBB646:
 1833              		.loc 7 70 42 is_stmt 0 view .LVU391
 1834 0030 AF61     		str	r7, [r5, #24]	@ float
 1835              	.LBE646:
 1836              	.LBE663:
 1837              	.LBB664:
 1838              	.LBB650:
  66:../../DaisyExamples/DaisySP//Source/Control/adenv.h ****     /** Sets the maximum value of the envelope output.
 1839              		.loc 7 66 42 view .LVU392
 1840 0032 6E61     		str	r6, [r5, #20]	@ float
 1841              	.LVL65:
  66:../../DaisyExamples/DaisySP//Source/Control/adenv.h ****     /** Sets the maximum value of the envelope output.
 1842              		.loc 7 66 42 view .LVU393
 1843              	.LBE650:
 1844              	.LBE664:
 1845              		.loc 15 173 2 is_stmt 1 view .LVU394
 1846              		.loc 15 173 14 is_stmt 0 view .LVU395
 1847 0034 FFF7FEFF 		bl	_ZN5daisy9DaisySeed15AudioSampleRateEv
 1848              	.LVL66:
 174:MachineDaisyFile.cpp ****     kickEnv.SetTime(ADENV_SEG_ATTACK, .01);
 175:MachineDaisyFile.cpp ****     kickEnv.SetTime(ADENV_SEG_DECAY, .2);
 176:MachineDaisyFile.cpp ****     kickEnv.SetMax(1);
 177:MachineDaisyFile.cpp ****     kickEnv.SetMin(0);
 178:MachineDaisyFile.cpp **** 
 179:MachineDaisyFile.cpp **** 	hatEnv.Init(hw.AudioSampleRate());
 1849              		.loc 15 179 13 view .LVU396
 1850 0038 144D     		ldr	r5, .L61+8
 173:MachineDaisyFile.cpp ****     kickEnv.SetTime(ADENV_SEG_ATTACK, .01);
 1851              		.loc 15 173 14 view .LVU397
 1852 003a 2046     		mov	r0, r4
 1853 003c FFF7FEFF 		bl	_ZN7daisysp5AdEnv4InitEf
 1854              	.LVL67:
 174:MachineDaisyFile.cpp ****     kickEnv.SetTime(ADENV_SEG_ATTACK, .01);
 1855              		.loc 15 174 5 is_stmt 1 view .LVU398
 1856              	.LBB665:
 1857              	.LBI665:
  58:../../DaisyExamples/DaisySP//Source/Control/adenv.h ****     /** Sets the amount of curve applied. A positve value will create a log
 1858              		.loc 7 58 17 view .LVU399
 1859              	.LBB666:
  58:../../DaisyExamples/DaisySP//Source/Control/adenv.h ****     /** Sets the amount of curve applied. A positve value will create a log
 1860              		.loc 7 58 52 view .LVU400
 1861              	.LBE666:
 1862              	.LBE665:
 1863              		.loc 15 179 13 is_stmt 0 view .LVU401
 1864 0040 5046     		mov	r0, r10
 1865              	.LBB668:
 1866              	.LBB667:
  58:../../DaisyExamples/DaisySP//Source/Control/adenv.h ****     /** Sets the amount of curve applied. A positve value will create a log
 1867              		.loc 7 58 71 view .LVU402
ARM GAS  /var/folders/b5/3l92j93d5t1__l78tfntmwyr0000gn/T//ccOBeKL9.s 			page 58


 1868 0042 C4F80890 		str	r9, [r4, #8]	@ float
 1869              	.LVL68:
  58:../../DaisyExamples/DaisySP//Source/Control/adenv.h ****     /** Sets the amount of curve applied. A positve value will create a log
 1870              		.loc 7 58 71 view .LVU403
 1871              	.LBE667:
 1872              	.LBE668:
 175:MachineDaisyFile.cpp ****     kickEnv.SetMax(1);
 1873              		.loc 15 175 5 is_stmt 1 view .LVU404
 1874              	.LBB669:
 1875              	.LBI669:
  58:../../DaisyExamples/DaisySP//Source/Control/adenv.h ****     /** Sets the amount of curve applied. A positve value will create a log
 1876              		.loc 7 58 17 view .LVU405
 1877              	.LBB670:
  58:../../DaisyExamples/DaisySP//Source/Control/adenv.h ****     /** Sets the amount of curve applied. A positve value will create a log
 1878              		.loc 7 58 52 view .LVU406
  58:../../DaisyExamples/DaisySP//Source/Control/adenv.h ****     /** Sets the amount of curve applied. A positve value will create a log
 1879              		.loc 7 58 71 is_stmt 0 view .LVU407
 1880 0046 C4F80C80 		str	r8, [r4, #12]	@ float
 1881              	.LVL69:
  58:../../DaisyExamples/DaisySP//Source/Control/adenv.h ****     /** Sets the amount of curve applied. A positve value will create a log
 1882              		.loc 7 58 71 view .LVU408
 1883              	.LBE670:
 1884              	.LBE669:
 176:MachineDaisyFile.cpp ****     kickEnv.SetMin(0);
 1885              		.loc 15 176 5 is_stmt 1 view .LVU409
 1886              	.LBB671:
 1887              	.LBI671:
 1888              		.loc 7 70 17 view .LVU410
 1889              	.LBB672:
 1890              		.loc 7 70 37 view .LVU411
 1891              		.loc 7 70 42 is_stmt 0 view .LVU412
 1892 004a A761     		str	r7, [r4, #24]	@ float
 1893              	.LVL70:
 1894              		.loc 7 70 42 view .LVU413
 1895              	.LBE672:
 1896              	.LBE671:
 177:MachineDaisyFile.cpp **** 
 1897              		.loc 15 177 5 is_stmt 1 view .LVU414
 1898              	.LBB673:
 1899              	.LBI673:
  66:../../DaisyExamples/DaisySP//Source/Control/adenv.h ****     /** Sets the maximum value of the envelope output.
 1900              		.loc 7 66 17 view .LVU415
 1901              	.LBB674:
  66:../../DaisyExamples/DaisySP//Source/Control/adenv.h ****     /** Sets the maximum value of the envelope output.
 1902              		.loc 7 66 37 view .LVU416
  66:../../DaisyExamples/DaisySP//Source/Control/adenv.h ****     /** Sets the maximum value of the envelope output.
 1903              		.loc 7 66 42 is_stmt 0 view .LVU417
 1904 004c 6661     		str	r6, [r4, #20]	@ float
 1905              	.LVL71:
  66:../../DaisyExamples/DaisySP//Source/Control/adenv.h ****     /** Sets the maximum value of the envelope output.
 1906              		.loc 7 66 42 view .LVU418
 1907              	.LBE674:
 1908              	.LBE673:
 1909              		.loc 15 179 2 is_stmt 1 view .LVU419
 1910              		.loc 15 179 13 is_stmt 0 view .LVU420
 1911 004e FFF7FEFF 		bl	_ZN5daisy9DaisySeed15AudioSampleRateEv
 1912              	.LVL72:
ARM GAS  /var/folders/b5/3l92j93d5t1__l78tfntmwyr0000gn/T//ccOBeKL9.s 			page 59


 180:MachineDaisyFile.cpp ****     hatEnv.SetTime(ADENV_SEG_ATTACK, .01);
 181:MachineDaisyFile.cpp ****     hatEnv.SetTime(ADENV_SEG_DECAY, .2);
 182:MachineDaisyFile.cpp ****     hatEnv.SetMax(1);
 183:MachineDaisyFile.cpp ****     hatEnv.SetMin(0);
 184:MachineDaisyFile.cpp **** 
 185:MachineDaisyFile.cpp **** 	synthEnv.Init(hw.AudioSampleRate());
 1913              		.loc 15 185 15 view .LVU421
 1914 0052 0F4C     		ldr	r4, .L61+12
 179:MachineDaisyFile.cpp ****     hatEnv.SetTime(ADENV_SEG_ATTACK, .01);
 1915              		.loc 15 179 13 view .LVU422
 1916 0054 2846     		mov	r0, r5
 1917 0056 FFF7FEFF 		bl	_ZN7daisysp5AdEnv4InitEf
 1918              	.LVL73:
 180:MachineDaisyFile.cpp ****     hatEnv.SetTime(ADENV_SEG_ATTACK, .01);
 1919              		.loc 15 180 5 is_stmt 1 view .LVU423
 1920              	.LBB675:
 1921              	.LBI675:
  58:../../DaisyExamples/DaisySP//Source/Control/adenv.h ****     /** Sets the amount of curve applied. A positve value will create a log
 1922              		.loc 7 58 17 view .LVU424
 1923              	.LBB676:
  58:../../DaisyExamples/DaisySP//Source/Control/adenv.h ****     /** Sets the amount of curve applied. A positve value will create a log
 1924              		.loc 7 58 52 view .LVU425
 1925              	.LBE676:
 1926              	.LBE675:
 1927              		.loc 15 185 15 is_stmt 0 view .LVU426
 1928 005a 5046     		mov	r0, r10
 1929              	.LBB678:
 1930              	.LBB677:
  58:../../DaisyExamples/DaisySP//Source/Control/adenv.h ****     /** Sets the amount of curve applied. A positve value will create a log
 1931              		.loc 7 58 71 view .LVU427
 1932 005c C5F80890 		str	r9, [r5, #8]	@ float
 1933              	.LVL74:
  58:../../DaisyExamples/DaisySP//Source/Control/adenv.h ****     /** Sets the amount of curve applied. A positve value will create a log
 1934              		.loc 7 58 71 view .LVU428
 1935              	.LBE677:
 1936              	.LBE678:
 181:MachineDaisyFile.cpp ****     hatEnv.SetMax(1);
 1937              		.loc 15 181 5 is_stmt 1 view .LVU429
 1938              	.LBB679:
 1939              	.LBI679:
  58:../../DaisyExamples/DaisySP//Source/Control/adenv.h ****     /** Sets the amount of curve applied. A positve value will create a log
 1940              		.loc 7 58 17 view .LVU430
 1941              	.LBB680:
  58:../../DaisyExamples/DaisySP//Source/Control/adenv.h ****     /** Sets the amount of curve applied. A positve value will create a log
 1942              		.loc 7 58 52 view .LVU431
  58:../../DaisyExamples/DaisySP//Source/Control/adenv.h ****     /** Sets the amount of curve applied. A positve value will create a log
 1943              		.loc 7 58 71 is_stmt 0 view .LVU432
 1944 0060 C5F80C80 		str	r8, [r5, #12]	@ float
 1945              	.LVL75:
  58:../../DaisyExamples/DaisySP//Source/Control/adenv.h ****     /** Sets the amount of curve applied. A positve value will create a log
 1946              		.loc 7 58 71 view .LVU433
 1947              	.LBE680:
 1948              	.LBE679:
 182:MachineDaisyFile.cpp ****     hatEnv.SetMin(0);
 1949              		.loc 15 182 5 is_stmt 1 view .LVU434
 1950              	.LBB681:
 1951              	.LBI681:
ARM GAS  /var/folders/b5/3l92j93d5t1__l78tfntmwyr0000gn/T//ccOBeKL9.s 			page 60


 1952              		.loc 7 70 17 view .LVU435
 1953              	.LBB682:
 1954              		.loc 7 70 37 view .LVU436
 1955              		.loc 7 70 42 is_stmt 0 view .LVU437
 1956 0064 AF61     		str	r7, [r5, #24]	@ float
 1957              	.LVL76:
 1958              		.loc 7 70 42 view .LVU438
 1959              	.LBE682:
 1960              	.LBE681:
 183:MachineDaisyFile.cpp **** 
 1961              		.loc 15 183 5 is_stmt 1 view .LVU439
 1962              	.LBB683:
 1963              	.LBI683:
  66:../../DaisyExamples/DaisySP//Source/Control/adenv.h ****     /** Sets the maximum value of the envelope output.
 1964              		.loc 7 66 17 view .LVU440
 1965              	.LBB684:
  66:../../DaisyExamples/DaisySP//Source/Control/adenv.h ****     /** Sets the maximum value of the envelope output.
 1966              		.loc 7 66 37 view .LVU441
  66:../../DaisyExamples/DaisySP//Source/Control/adenv.h ****     /** Sets the maximum value of the envelope output.
 1967              		.loc 7 66 42 is_stmt 0 view .LVU442
 1968 0066 6E61     		str	r6, [r5, #20]	@ float
 1969              	.LVL77:
  66:../../DaisyExamples/DaisySP//Source/Control/adenv.h ****     /** Sets the maximum value of the envelope output.
 1970              		.loc 7 66 42 view .LVU443
 1971              	.LBE684:
 1972              	.LBE683:
 1973              		.loc 15 185 2 is_stmt 1 view .LVU444
 1974              		.loc 15 185 15 is_stmt 0 view .LVU445
 1975 0068 FFF7FEFF 		bl	_ZN5daisy9DaisySeed15AudioSampleRateEv
 1976              	.LVL78:
 1977 006c 2046     		mov	r0, r4
 1978 006e FFF7FEFF 		bl	_ZN7daisysp5AdEnv4InitEf
 1979              	.LVL79:
 186:MachineDaisyFile.cpp ****     synthEnv.SetTime(ADENV_SEG_ATTACK, .01);
 1980              		.loc 15 186 5 is_stmt 1 view .LVU446
 1981              	.LBB685:
 1982              	.LBI685:
  58:../../DaisyExamples/DaisySP//Source/Control/adenv.h ****     /** Sets the amount of curve applied. A positve value will create a log
 1983              		.loc 7 58 17 view .LVU447
 1984              	.LBB686:
  58:../../DaisyExamples/DaisySP//Source/Control/adenv.h ****     /** Sets the amount of curve applied. A positve value will create a log
 1985              		.loc 7 58 52 view .LVU448
  58:../../DaisyExamples/DaisySP//Source/Control/adenv.h ****     /** Sets the amount of curve applied. A positve value will create a log
 1986              		.loc 7 58 71 is_stmt 0 view .LVU449
 1987 0072 C4F80890 		str	r9, [r4, #8]	@ float
 1988              	.LVL80:
  58:../../DaisyExamples/DaisySP//Source/Control/adenv.h ****     /** Sets the amount of curve applied. A positve value will create a log
 1989              		.loc 7 58 71 view .LVU450
 1990              	.LBE686:
 1991              	.LBE685:
 187:MachineDaisyFile.cpp ****     synthEnv.SetTime(ADENV_SEG_DECAY, .2);
 1992              		.loc 15 187 5 is_stmt 1 view .LVU451
 1993              	.LBB687:
 1994              	.LBI687:
  58:../../DaisyExamples/DaisySP//Source/Control/adenv.h ****     /** Sets the amount of curve applied. A positve value will create a log
 1995              		.loc 7 58 17 view .LVU452
 1996              	.LBB688:
ARM GAS  /var/folders/b5/3l92j93d5t1__l78tfntmwyr0000gn/T//ccOBeKL9.s 			page 61


  58:../../DaisyExamples/DaisySP//Source/Control/adenv.h ****     /** Sets the amount of curve applied. A positve value will create a log
 1997              		.loc 7 58 52 view .LVU453
  58:../../DaisyExamples/DaisySP//Source/Control/adenv.h ****     /** Sets the amount of curve applied. A positve value will create a log
 1998              		.loc 7 58 71 is_stmt 0 view .LVU454
 1999 0076 C4F80C80 		str	r8, [r4, #12]	@ float
 2000              	.LVL81:
  58:../../DaisyExamples/DaisySP//Source/Control/adenv.h ****     /** Sets the amount of curve applied. A positve value will create a log
 2001              		.loc 7 58 71 view .LVU455
 2002              	.LBE688:
 2003              	.LBE687:
 188:MachineDaisyFile.cpp ****     synthEnv.SetMax(1);
 2004              		.loc 15 188 5 is_stmt 1 view .LVU456
 2005              	.LBB689:
 2006              	.LBI689:
 2007              		.loc 7 70 17 view .LVU457
 2008              	.LBB690:
 2009              		.loc 7 70 37 view .LVU458
 2010              		.loc 7 70 42 is_stmt 0 view .LVU459
 2011 007a A761     		str	r7, [r4, #24]	@ float
 2012              	.LVL82:
 2013              		.loc 7 70 42 view .LVU460
 2014              	.LBE690:
 2015              	.LBE689:
 189:MachineDaisyFile.cpp ****     synthEnv.SetMin(0);
 2016              		.loc 15 189 5 is_stmt 1 view .LVU461
 2017              	.LBB691:
 2018              	.LBI691:
  66:../../DaisyExamples/DaisySP//Source/Control/adenv.h ****     /** Sets the maximum value of the envelope output.
 2019              		.loc 7 66 17 view .LVU462
 2020              	.LBB692:
  66:../../DaisyExamples/DaisySP//Source/Control/adenv.h ****     /** Sets the maximum value of the envelope output.
 2021              		.loc 7 66 37 view .LVU463
  66:../../DaisyExamples/DaisySP//Source/Control/adenv.h ****     /** Sets the maximum value of the envelope output.
 2022              		.loc 7 66 42 is_stmt 0 view .LVU464
 2023 007c 6661     		str	r6, [r4, #20]	@ float
 2024              	.LVL83:
  66:../../DaisyExamples/DaisySP//Source/Control/adenv.h ****     /** Sets the maximum value of the envelope output.
 2025              		.loc 7 66 42 view .LVU465
 2026              	.LBE692:
 2027              	.LBE691:
 190:MachineDaisyFile.cpp **** }
 2028              		.loc 15 190 1 view .LVU466
 2029 007e BDE8F087 		pop	{r4, r5, r6, r7, r8, r9, r10, pc}
 2030              	.L62:
 2031 0082 00BF     		.align	2
 2032              	.L61:
 2033 0084 00000000 		.word	.LANCHOR13
 2034 0088 00000000 		.word	.LANCHOR14
 2035 008c 00000000 		.word	.LANCHOR15
 2036 0090 00000000 		.word	.LANCHOR16
 2037 0094 00000000 		.word	.LANCHOR0
 2038 0098 0AD7233C 		.word	1008981770
 2039 009c CDCC4C3E 		.word	1045220557
 2040              		.cfi_endproc
 2041              	.LFE4832:
 2043              		.section	.text._Z12initControlsv,"ax",%progbits
 2044              		.align	1
ARM GAS  /var/folders/b5/3l92j93d5t1__l78tfntmwyr0000gn/T//ccOBeKL9.s 			page 62


 2045              		.p2align 2,,3
 2046              		.global	_Z12initControlsv
 2047              		.syntax unified
 2048              		.thumb
 2049              		.thumb_func
 2051              	_Z12initControlsv:
 2052              	.LFB4833:
 191:MachineDaisyFile.cpp **** //====================================================================================
 192:MachineDaisyFile.cpp **** void initControls()
 193:MachineDaisyFile.cpp **** {
 2053              		.loc 15 193 1 is_stmt 1 view -0
 2054              		.cfi_startproc
 2055              		@ args = 0, pretend = 0, frame = 32
 2056              		@ frame_needed = 0, uses_anonymous_args = 0
 194:MachineDaisyFile.cpp **** 	AdcChannelConfig cfg;
 2057              		.loc 15 194 2 view .LVU468
 195:MachineDaisyFile.cpp **** 	cfg.InitSingle(BUTTONS);
 2058              		.loc 15 195 2 view .LVU469
 2059              	.LVL84:
 2060              	.LBB693:
 2061              	.LBI693:
 2062              		.file 18 "../../DaisyExamples/libDaisy//src/daisy_core.h"
   1:../../DaisyExamples/libDaisy//src/daisy_core.h **** #pragma once
   2:../../DaisyExamples/libDaisy//src/daisy_core.h **** #ifndef DSY_CORE_HW_H
   3:../../DaisyExamples/libDaisy//src/daisy_core.h **** #define DSY_CORE_HW_H /**< & */
   4:../../DaisyExamples/libDaisy//src/daisy_core.h **** #include <stdint.h>
   5:../../DaisyExamples/libDaisy//src/daisy_core.h **** #include <stdlib.h>
   6:../../DaisyExamples/libDaisy//src/daisy_core.h **** 
   7:../../DaisyExamples/libDaisy//src/daisy_core.h **** #if defined(_MSC_VER)
   8:../../DaisyExamples/libDaisy//src/daisy_core.h **** #define FORCE_INLINE __forceinline /**< & */
   9:../../DaisyExamples/libDaisy//src/daisy_core.h **** #elif defined(__clang__)
  10:../../DaisyExamples/libDaisy//src/daisy_core.h **** #define FORCE_INLINE inline __attribute__((always_inline)) /**< & */
  11:../../DaisyExamples/libDaisy//src/daisy_core.h **** #pragma clang diagnostic ignored "-Wduplicate-decl-specifier"
  12:../../DaisyExamples/libDaisy//src/daisy_core.h **** #elif defined(__GNUC__)
  13:../../DaisyExamples/libDaisy//src/daisy_core.h **** #define FORCE_INLINE inline __attribute__((always_inline)) /**< & */
  14:../../DaisyExamples/libDaisy//src/daisy_core.h **** #else
  15:../../DaisyExamples/libDaisy//src/daisy_core.h **** #error unknown compiler
  16:../../DaisyExamples/libDaisy//src/daisy_core.h **** #endif
  17:../../DaisyExamples/libDaisy//src/daisy_core.h **** 
  18:../../DaisyExamples/libDaisy//src/daisy_core.h **** /** @addtogroup utility
  19:../../DaisyExamples/libDaisy//src/daisy_core.h ****     @{
  20:../../DaisyExamples/libDaisy//src/daisy_core.h **** */
  21:../../DaisyExamples/libDaisy//src/daisy_core.h **** 
  22:../../DaisyExamples/libDaisy//src/daisy_core.h **** /** Macro for area of memory that is configured as cacheless
  23:../../DaisyExamples/libDaisy//src/daisy_core.h **** This should be used primarily for DMA buffers, and the like.
  24:../../DaisyExamples/libDaisy//src/daisy_core.h **** */
  25:../../DaisyExamples/libDaisy//src/daisy_core.h **** #define DMA_BUFFER_MEM_SECTION __attribute__((section(".sram1_bss")))
  26:../../DaisyExamples/libDaisy//src/daisy_core.h **** /** 
  27:../../DaisyExamples/libDaisy//src/daisy_core.h **** THE DTCM RAM section is also non-cached. However, is not suitable 
  28:../../DaisyExamples/libDaisy//src/daisy_core.h **** for DMA transfers. Performance is on par with internal SRAM w/ 
  29:../../DaisyExamples/libDaisy//src/daisy_core.h **** cache enabled.
  30:../../DaisyExamples/libDaisy//src/daisy_core.h **** */
  31:../../DaisyExamples/libDaisy//src/daisy_core.h **** #define DTCM_MEM_SECTION __attribute__((section(".dtcmram_bss")))
  32:../../DaisyExamples/libDaisy//src/daisy_core.h **** 
  33:../../DaisyExamples/libDaisy//src/daisy_core.h **** #define FBIPMAX 0.999985f             /**< close to 1.0f-LSB at 16 bit */
  34:../../DaisyExamples/libDaisy//src/daisy_core.h **** #define FBIPMIN (-FBIPMAX)            /**< - (1 - LSB) */
  35:../../DaisyExamples/libDaisy//src/daisy_core.h **** #define U82F_SCALE 0.0078740f         /**< 1 / 127 */
ARM GAS  /var/folders/b5/3l92j93d5t1__l78tfntmwyr0000gn/T//ccOBeKL9.s 			page 63


  36:../../DaisyExamples/libDaisy//src/daisy_core.h **** #define F2U8_SCALE 127.0f             /**< 128 - 1 */
  37:../../DaisyExamples/libDaisy//src/daisy_core.h **** #define S82F_SCALE 0.0078125f         /**< 1 / (2**7) */
  38:../../DaisyExamples/libDaisy//src/daisy_core.h **** #define F2S8_SCALE 127.0f             /**< (2 ** 7) - 1 */
  39:../../DaisyExamples/libDaisy//src/daisy_core.h **** #define S162F_SCALE 3.0517578125e-05f /**< 1 / (2** 15) */
  40:../../DaisyExamples/libDaisy//src/daisy_core.h **** #define F2S16_SCALE 32767.0f          /**< (2 ** 15) - 1 */
  41:../../DaisyExamples/libDaisy//src/daisy_core.h **** #define F2S24_SCALE 8388608.0f        /**< 2 ** 23 */
  42:../../DaisyExamples/libDaisy//src/daisy_core.h **** #define S242F_SCALE 1.192092896e-07f  /**< 1 / (2 ** 23) */
  43:../../DaisyExamples/libDaisy//src/daisy_core.h **** #define S24SIGN 0x800000              /**< 2 ** 23 */
  44:../../DaisyExamples/libDaisy//src/daisy_core.h **** #define S322F_SCALE 4.6566129e-10f    /**< 1 / (2** 31) */
  45:../../DaisyExamples/libDaisy//src/daisy_core.h **** #define F2S32_SCALE 2147483647.f      /**< (2 ** 31) - 1 */
  46:../../DaisyExamples/libDaisy//src/daisy_core.h **** 
  47:../../DaisyExamples/libDaisy//src/daisy_core.h **** 
  48:../../DaisyExamples/libDaisy//src/daisy_core.h **** /** shorthand macro for simplifying the reading of the left 
  49:../../DaisyExamples/libDaisy//src/daisy_core.h ****  *  channel of a non-interleaved output buffer named out */
  50:../../DaisyExamples/libDaisy//src/daisy_core.h **** #define OUT_L out[0]
  51:../../DaisyExamples/libDaisy//src/daisy_core.h **** 
  52:../../DaisyExamples/libDaisy//src/daisy_core.h **** /** shorthand macro for simplifying the reading of the right 
  53:../../DaisyExamples/libDaisy//src/daisy_core.h ****  *  channel of a non-interleaved output buffer named out */
  54:../../DaisyExamples/libDaisy//src/daisy_core.h **** #define OUT_R out[1]
  55:../../DaisyExamples/libDaisy//src/daisy_core.h **** 
  56:../../DaisyExamples/libDaisy//src/daisy_core.h **** /** shorthand macro for simplifying the reading of the left 
  57:../../DaisyExamples/libDaisy//src/daisy_core.h ****  *  channel of a non-interleaved input buffer named in */
  58:../../DaisyExamples/libDaisy//src/daisy_core.h **** #define IN_L in[0]
  59:../../DaisyExamples/libDaisy//src/daisy_core.h **** 
  60:../../DaisyExamples/libDaisy//src/daisy_core.h **** /** shorthand macro for simplifying the reading of the right 
  61:../../DaisyExamples/libDaisy//src/daisy_core.h ****  *  channel of a non-interleaved input buffer named in */
  62:../../DaisyExamples/libDaisy//src/daisy_core.h **** #define IN_R in[1]
  63:../../DaisyExamples/libDaisy//src/daisy_core.h **** 
  64:../../DaisyExamples/libDaisy//src/daisy_core.h **** /** 
  65:../../DaisyExamples/libDaisy//src/daisy_core.h ****     Computes cube.
  66:../../DaisyExamples/libDaisy//src/daisy_core.h ****     \param x Number to be cubed
  67:../../DaisyExamples/libDaisy//src/daisy_core.h ****     \return x ^ 3
  68:../../DaisyExamples/libDaisy//src/daisy_core.h **** */
  69:../../DaisyExamples/libDaisy//src/daisy_core.h **** FORCE_INLINE float cube(float x)
  70:../../DaisyExamples/libDaisy//src/daisy_core.h **** {
  71:../../DaisyExamples/libDaisy//src/daisy_core.h ****     return (x * x) * x;
  72:../../DaisyExamples/libDaisy//src/daisy_core.h **** }
  73:../../DaisyExamples/libDaisy//src/daisy_core.h **** 
  74:../../DaisyExamples/libDaisy//src/daisy_core.h **** /** 
  75:../../DaisyExamples/libDaisy//src/daisy_core.h ****     Converts unsigned 8-bit to float
  76:../../DaisyExamples/libDaisy//src/daisy_core.h ****     \param x Number to be scaled.
  77:../../DaisyExamples/libDaisy//src/daisy_core.h ****     \return Scaled number.
  78:../../DaisyExamples/libDaisy//src/daisy_core.h **** */
  79:../../DaisyExamples/libDaisy//src/daisy_core.h **** FORCE_INLINE float u82f(uint8_t x)
  80:../../DaisyExamples/libDaisy//src/daisy_core.h **** {
  81:../../DaisyExamples/libDaisy//src/daisy_core.h ****     return ((float)x - 127.f) * U82F_SCALE;
  82:../../DaisyExamples/libDaisy//src/daisy_core.h **** }
  83:../../DaisyExamples/libDaisy//src/daisy_core.h **** 
  84:../../DaisyExamples/libDaisy//src/daisy_core.h **** /**
  85:../../DaisyExamples/libDaisy//src/daisy_core.h ****     Converts float to unsigned 8-bit
  86:../../DaisyExamples/libDaisy//src/daisy_core.h **** */
  87:../../DaisyExamples/libDaisy//src/daisy_core.h **** FORCE_INLINE uint8_t f2u8(float x)
  88:../../DaisyExamples/libDaisy//src/daisy_core.h **** {
  89:../../DaisyExamples/libDaisy//src/daisy_core.h ****     x = x <= FBIPMIN ? FBIPMIN : x;
  90:../../DaisyExamples/libDaisy//src/daisy_core.h ****     x = x >= FBIPMAX ? FBIPMAX : x;
  91:../../DaisyExamples/libDaisy//src/daisy_core.h ****     return (uint8_t)((x * F2U8_SCALE) + F2U8_SCALE);
  92:../../DaisyExamples/libDaisy//src/daisy_core.h **** }
ARM GAS  /var/folders/b5/3l92j93d5t1__l78tfntmwyr0000gn/T//ccOBeKL9.s 			page 64


  93:../../DaisyExamples/libDaisy//src/daisy_core.h **** 
  94:../../DaisyExamples/libDaisy//src/daisy_core.h **** 
  95:../../DaisyExamples/libDaisy//src/daisy_core.h **** /** 
  96:../../DaisyExamples/libDaisy//src/daisy_core.h ****     Converts Signed 8-bit to float
  97:../../DaisyExamples/libDaisy//src/daisy_core.h ****     \param x Number to be scaled.
  98:../../DaisyExamples/libDaisy//src/daisy_core.h ****     \return Scaled number.
  99:../../DaisyExamples/libDaisy//src/daisy_core.h **** */
 100:../../DaisyExamples/libDaisy//src/daisy_core.h **** FORCE_INLINE float s82f(int8_t x)
 101:../../DaisyExamples/libDaisy//src/daisy_core.h **** {
 102:../../DaisyExamples/libDaisy//src/daisy_core.h ****     return (float)x * S82F_SCALE;
 103:../../DaisyExamples/libDaisy//src/daisy_core.h **** }
 104:../../DaisyExamples/libDaisy//src/daisy_core.h **** 
 105:../../DaisyExamples/libDaisy//src/daisy_core.h **** /**
 106:../../DaisyExamples/libDaisy//src/daisy_core.h ****     Converts float to Signed 8-bit
 107:../../DaisyExamples/libDaisy//src/daisy_core.h **** */
 108:../../DaisyExamples/libDaisy//src/daisy_core.h **** FORCE_INLINE int8_t f2s8(float x)
 109:../../DaisyExamples/libDaisy//src/daisy_core.h **** {
 110:../../DaisyExamples/libDaisy//src/daisy_core.h ****     x = x <= FBIPMIN ? FBIPMIN : x;
 111:../../DaisyExamples/libDaisy//src/daisy_core.h ****     x = x >= FBIPMAX ? FBIPMAX : x;
 112:../../DaisyExamples/libDaisy//src/daisy_core.h ****     return (int32_t)(x * F2S8_SCALE);
 113:../../DaisyExamples/libDaisy//src/daisy_core.h **** }
 114:../../DaisyExamples/libDaisy//src/daisy_core.h **** 
 115:../../DaisyExamples/libDaisy//src/daisy_core.h **** /** 
 116:../../DaisyExamples/libDaisy//src/daisy_core.h ****     Converts Signed 16-bit to float
 117:../../DaisyExamples/libDaisy//src/daisy_core.h ****     \param x Number to be scaled.
 118:../../DaisyExamples/libDaisy//src/daisy_core.h ****     \return Scaled number.
 119:../../DaisyExamples/libDaisy//src/daisy_core.h **** */
 120:../../DaisyExamples/libDaisy//src/daisy_core.h **** FORCE_INLINE float s162f(int16_t x)
 121:../../DaisyExamples/libDaisy//src/daisy_core.h **** {
 122:../../DaisyExamples/libDaisy//src/daisy_core.h ****     return (float)x * S162F_SCALE;
 123:../../DaisyExamples/libDaisy//src/daisy_core.h **** }
 124:../../DaisyExamples/libDaisy//src/daisy_core.h **** 
 125:../../DaisyExamples/libDaisy//src/daisy_core.h **** /**
 126:../../DaisyExamples/libDaisy//src/daisy_core.h ****     Converts float to Signed 16-bit
 127:../../DaisyExamples/libDaisy//src/daisy_core.h **** */
 128:../../DaisyExamples/libDaisy//src/daisy_core.h **** FORCE_INLINE int16_t f2s16(float x)
 129:../../DaisyExamples/libDaisy//src/daisy_core.h **** {
 130:../../DaisyExamples/libDaisy//src/daisy_core.h ****     x = x <= FBIPMIN ? FBIPMIN : x;
 131:../../DaisyExamples/libDaisy//src/daisy_core.h ****     x = x >= FBIPMAX ? FBIPMAX : x;
 132:../../DaisyExamples/libDaisy//src/daisy_core.h ****     return (int32_t)(x * F2S16_SCALE);
 133:../../DaisyExamples/libDaisy//src/daisy_core.h **** }
 134:../../DaisyExamples/libDaisy//src/daisy_core.h **** 
 135:../../DaisyExamples/libDaisy//src/daisy_core.h **** /**
 136:../../DaisyExamples/libDaisy//src/daisy_core.h ****     Converts Signed 24-bit to float
 137:../../DaisyExamples/libDaisy//src/daisy_core.h ****  */
 138:../../DaisyExamples/libDaisy//src/daisy_core.h **** FORCE_INLINE float s242f(int32_t x)
 139:../../DaisyExamples/libDaisy//src/daisy_core.h **** {
 140:../../DaisyExamples/libDaisy//src/daisy_core.h ****     x = (x ^ S24SIGN) - S24SIGN; //sign extend aka ((x<<8)>>8)
 141:../../DaisyExamples/libDaisy//src/daisy_core.h ****     return (float)x * S242F_SCALE;
 142:../../DaisyExamples/libDaisy//src/daisy_core.h **** }
 143:../../DaisyExamples/libDaisy//src/daisy_core.h **** /**
 144:../../DaisyExamples/libDaisy//src/daisy_core.h ****     Converts float to Signed 24-bit
 145:../../DaisyExamples/libDaisy//src/daisy_core.h ****  */
 146:../../DaisyExamples/libDaisy//src/daisy_core.h **** FORCE_INLINE int32_t f2s24(float x)
 147:../../DaisyExamples/libDaisy//src/daisy_core.h **** {
 148:../../DaisyExamples/libDaisy//src/daisy_core.h ****     x = x <= FBIPMIN ? FBIPMIN : x;
 149:../../DaisyExamples/libDaisy//src/daisy_core.h ****     x = x >= FBIPMAX ? FBIPMAX : x;
ARM GAS  /var/folders/b5/3l92j93d5t1__l78tfntmwyr0000gn/T//ccOBeKL9.s 			page 65


 150:../../DaisyExamples/libDaisy//src/daisy_core.h ****     return (int32_t)(x * F2S24_SCALE);
 151:../../DaisyExamples/libDaisy//src/daisy_core.h **** }
 152:../../DaisyExamples/libDaisy//src/daisy_core.h **** 
 153:../../DaisyExamples/libDaisy//src/daisy_core.h **** /**
 154:../../DaisyExamples/libDaisy//src/daisy_core.h ****     Converts Signed 32-bit to float
 155:../../DaisyExamples/libDaisy//src/daisy_core.h ****  */
 156:../../DaisyExamples/libDaisy//src/daisy_core.h **** FORCE_INLINE float s322f(int32_t x)
 157:../../DaisyExamples/libDaisy//src/daisy_core.h **** {
 158:../../DaisyExamples/libDaisy//src/daisy_core.h ****     return (float)x * S322F_SCALE;
 159:../../DaisyExamples/libDaisy//src/daisy_core.h **** }
 160:../../DaisyExamples/libDaisy//src/daisy_core.h **** /**
 161:../../DaisyExamples/libDaisy//src/daisy_core.h ****     Converts float to Signed 24-bit
 162:../../DaisyExamples/libDaisy//src/daisy_core.h ****  */
 163:../../DaisyExamples/libDaisy//src/daisy_core.h **** FORCE_INLINE int32_t f2s32(float x)
 164:../../DaisyExamples/libDaisy//src/daisy_core.h **** {
 165:../../DaisyExamples/libDaisy//src/daisy_core.h ****     x = x <= FBIPMIN ? FBIPMIN : x;
 166:../../DaisyExamples/libDaisy//src/daisy_core.h ****     x = x >= FBIPMAX ? FBIPMAX : x;
 167:../../DaisyExamples/libDaisy//src/daisy_core.h ****     return (int32_t)(x * F2S32_SCALE);
 168:../../DaisyExamples/libDaisy//src/daisy_core.h **** }
 169:../../DaisyExamples/libDaisy//src/daisy_core.h **** 
 170:../../DaisyExamples/libDaisy//src/daisy_core.h **** 
 171:../../DaisyExamples/libDaisy//src/daisy_core.h **** /** Enums and a simple struct for defining a hardware pin on the MCU
 172:../../DaisyExamples/libDaisy//src/daisy_core.h ****  *  These correlate with the stm32 datasheet, and are used to configure
 173:../../DaisyExamples/libDaisy//src/daisy_core.h ****  *  the hardware.
 174:../../DaisyExamples/libDaisy//src/daisy_core.h ****  * 
 175:../../DaisyExamples/libDaisy//src/daisy_core.h ****  *  This along with the dsy_gpio_pin class should no longer be used.
 176:../../DaisyExamples/libDaisy//src/daisy_core.h ****  *  They are available for backwards compatability. 
 177:../../DaisyExamples/libDaisy//src/daisy_core.h ****  * 
 178:../../DaisyExamples/libDaisy//src/daisy_core.h ****  *  Please use GPIOPort enum and the Pin struct instead.
 179:../../DaisyExamples/libDaisy//src/daisy_core.h ****  */
 180:../../DaisyExamples/libDaisy//src/daisy_core.h **** typedef enum
 181:../../DaisyExamples/libDaisy//src/daisy_core.h **** {
 182:../../DaisyExamples/libDaisy//src/daisy_core.h ****     DSY_GPIOA, /**< & */
 183:../../DaisyExamples/libDaisy//src/daisy_core.h ****     DSY_GPIOB, /**< & */
 184:../../DaisyExamples/libDaisy//src/daisy_core.h ****     DSY_GPIOC, /**< & */
 185:../../DaisyExamples/libDaisy//src/daisy_core.h ****     DSY_GPIOD, /**< & */
 186:../../DaisyExamples/libDaisy//src/daisy_core.h ****     DSY_GPIOE, /**< & */
 187:../../DaisyExamples/libDaisy//src/daisy_core.h ****     DSY_GPIOF, /**< & */
 188:../../DaisyExamples/libDaisy//src/daisy_core.h ****     DSY_GPIOG, /**< & */
 189:../../DaisyExamples/libDaisy//src/daisy_core.h ****     DSY_GPIOH, /**< & */
 190:../../DaisyExamples/libDaisy//src/daisy_core.h ****     DSY_GPIOI, /**< & */
 191:../../DaisyExamples/libDaisy//src/daisy_core.h ****     DSY_GPIOJ, /**< & */
 192:../../DaisyExamples/libDaisy//src/daisy_core.h ****     DSY_GPIOK, /**< & */
 193:../../DaisyExamples/libDaisy//src/daisy_core.h ****     DSY_GPIOX, /** This is a non-existant port for unsupported bits of hardware. */
 194:../../DaisyExamples/libDaisy//src/daisy_core.h ****     DSY_GPIO_LAST, /** Final enum member */
 195:../../DaisyExamples/libDaisy//src/daisy_core.h **** } dsy_gpio_port;
 196:../../DaisyExamples/libDaisy//src/daisy_core.h **** 
 197:../../DaisyExamples/libDaisy//src/daisy_core.h **** /** Hardware define pins 
 198:../../DaisyExamples/libDaisy//src/daisy_core.h ****  *  
 199:../../DaisyExamples/libDaisy//src/daisy_core.h ****  *  The dsy_gpio_pin struct should no longer be used, and is only available for
 200:../../DaisyExamples/libDaisy//src/daisy_core.h ****  *  backwards compatability.
 201:../../DaisyExamples/libDaisy//src/daisy_core.h ****  * 
 202:../../DaisyExamples/libDaisy//src/daisy_core.h ****  *  Please use Pin struct instead.
 203:../../DaisyExamples/libDaisy//src/daisy_core.h ****  */
 204:../../DaisyExamples/libDaisy//src/daisy_core.h **** typedef struct
 205:../../DaisyExamples/libDaisy//src/daisy_core.h **** {
 206:../../DaisyExamples/libDaisy//src/daisy_core.h ****     dsy_gpio_port port; /**< & */
ARM GAS  /var/folders/b5/3l92j93d5t1__l78tfntmwyr0000gn/T//ccOBeKL9.s 			page 66


 207:../../DaisyExamples/libDaisy//src/daisy_core.h ****     uint8_t       pin;  /**< number 0-15 */
 208:../../DaisyExamples/libDaisy//src/daisy_core.h **** } dsy_gpio_pin;
 209:../../DaisyExamples/libDaisy//src/daisy_core.h **** 
 210:../../DaisyExamples/libDaisy//src/daisy_core.h **** /** Helper for creating pins from port/pin combos easily
 211:../../DaisyExamples/libDaisy//src/daisy_core.h ****  * 
 212:../../DaisyExamples/libDaisy//src/daisy_core.h ****  *  The dsy_gpio_pin struct should no longer be used, and is only available for
 213:../../DaisyExamples/libDaisy//src/daisy_core.h ****  *  backwards compatability.
 214:../../DaisyExamples/libDaisy//src/daisy_core.h ****  * 
 215:../../DaisyExamples/libDaisy//src/daisy_core.h ****  *  Please use Pin struct instead.
 216:../../DaisyExamples/libDaisy//src/daisy_core.h **** */
 217:../../DaisyExamples/libDaisy//src/daisy_core.h **** FORCE_INLINE dsy_gpio_pin dsy_pin(dsy_gpio_port port, uint8_t pin)
 218:../../DaisyExamples/libDaisy//src/daisy_core.h **** {
 219:../../DaisyExamples/libDaisy//src/daisy_core.h ****     dsy_gpio_pin p;
 220:../../DaisyExamples/libDaisy//src/daisy_core.h ****     p.port = port;
 221:../../DaisyExamples/libDaisy//src/daisy_core.h ****     p.pin  = pin;
 222:../../DaisyExamples/libDaisy//src/daisy_core.h ****     return p;
 223:../../DaisyExamples/libDaisy//src/daisy_core.h **** }
 224:../../DaisyExamples/libDaisy//src/daisy_core.h **** 
 225:../../DaisyExamples/libDaisy//src/daisy_core.h **** /** Helper for testing sameness of two dsy_gpio_pins
 226:../../DaisyExamples/libDaisy//src/daisy_core.h ****  *  \return    1 if same, 0 if different
 227:../../DaisyExamples/libDaisy//src/daisy_core.h ****  * 
 228:../../DaisyExamples/libDaisy//src/daisy_core.h ****  *  The dsy_gpio_pin struct should no longer be used, and is only available for
 229:../../DaisyExamples/libDaisy//src/daisy_core.h ****  *  backwards compatability.
 230:../../DaisyExamples/libDaisy//src/daisy_core.h ****  * 
 231:../../DaisyExamples/libDaisy//src/daisy_core.h ****  *  Please use Pin struct instead.
 232:../../DaisyExamples/libDaisy//src/daisy_core.h ****  */
 233:../../DaisyExamples/libDaisy//src/daisy_core.h **** FORCE_INLINE uint8_t dsy_pin_cmp(dsy_gpio_pin *a, dsy_gpio_pin *b)
 234:../../DaisyExamples/libDaisy//src/daisy_core.h **** {
 235:../../DaisyExamples/libDaisy//src/daisy_core.h ****     return ((a->port == b->port) && (a->pin == b->pin));
 236:../../DaisyExamples/libDaisy//src/daisy_core.h **** }
 237:../../DaisyExamples/libDaisy//src/daisy_core.h **** 
 238:../../DaisyExamples/libDaisy//src/daisy_core.h **** #ifdef __cplusplus
 239:../../DaisyExamples/libDaisy//src/daisy_core.h **** 
 240:../../DaisyExamples/libDaisy//src/daisy_core.h **** namespace daisy
 241:../../DaisyExamples/libDaisy//src/daisy_core.h **** {
 242:../../DaisyExamples/libDaisy//src/daisy_core.h **** /** @brief GPIO Port names */
 243:../../DaisyExamples/libDaisy//src/daisy_core.h **** enum GPIOPort
 244:../../DaisyExamples/libDaisy//src/daisy_core.h **** {
 245:../../DaisyExamples/libDaisy//src/daisy_core.h ****     PORTA, /**< Port A */
 246:../../DaisyExamples/libDaisy//src/daisy_core.h ****     PORTB, /**< Port B */
 247:../../DaisyExamples/libDaisy//src/daisy_core.h ****     PORTC, /**< Port C */
 248:../../DaisyExamples/libDaisy//src/daisy_core.h ****     PORTD, /**< Port D */
 249:../../DaisyExamples/libDaisy//src/daisy_core.h ****     PORTE, /**< Port E */
 250:../../DaisyExamples/libDaisy//src/daisy_core.h ****     PORTF, /**< Port F */
 251:../../DaisyExamples/libDaisy//src/daisy_core.h ****     PORTG, /**< Port G */
 252:../../DaisyExamples/libDaisy//src/daisy_core.h ****     PORTH, /**< Port H */
 253:../../DaisyExamples/libDaisy//src/daisy_core.h ****     PORTI, /**< Port I */
 254:../../DaisyExamples/libDaisy//src/daisy_core.h ****     PORTJ, /**< Port J */
 255:../../DaisyExamples/libDaisy//src/daisy_core.h ****     PORTK, /**< Port K */
 256:../../DaisyExamples/libDaisy//src/daisy_core.h ****     PORTX, /**< Used as a dummy port to signal an invalid pin. */
 257:../../DaisyExamples/libDaisy//src/daisy_core.h **** };
 258:../../DaisyExamples/libDaisy//src/daisy_core.h **** 
 259:../../DaisyExamples/libDaisy//src/daisy_core.h **** /** @brief representation of hardware port/pin combination */
 260:../../DaisyExamples/libDaisy//src/daisy_core.h **** struct Pin
 261:../../DaisyExamples/libDaisy//src/daisy_core.h **** {
 262:../../DaisyExamples/libDaisy//src/daisy_core.h ****     GPIOPort port;
 263:../../DaisyExamples/libDaisy//src/daisy_core.h ****     uint8_t  pin;
ARM GAS  /var/folders/b5/3l92j93d5t1__l78tfntmwyr0000gn/T//ccOBeKL9.s 			page 67


 264:../../DaisyExamples/libDaisy//src/daisy_core.h **** 
 265:../../DaisyExamples/libDaisy//src/daisy_core.h ****     /** @brief Constructor creates a valid pin. 
 266:../../DaisyExamples/libDaisy//src/daisy_core.h ****      *  @param pt GPIOPort between PA, and PK corresponding to STM32 Port.
 267:../../DaisyExamples/libDaisy//src/daisy_core.h ****      *  @param pn pin number in range of 0-15
 268:../../DaisyExamples/libDaisy//src/daisy_core.h ****     */
 269:../../DaisyExamples/libDaisy//src/daisy_core.h ****     constexpr Pin(const GPIOPort pt, const uint8_t pn) : port(pt), pin(pn) {}
 270:../../DaisyExamples/libDaisy//src/daisy_core.h **** 
 271:../../DaisyExamples/libDaisy//src/daisy_core.h ****     /** @brief Basic Constructor creates an invalid Pin object */
 272:../../DaisyExamples/libDaisy//src/daisy_core.h ****     constexpr Pin() : port(PORTX), pin(255) {}
 273:../../DaisyExamples/libDaisy//src/daisy_core.h **** 
 274:../../DaisyExamples/libDaisy//src/daisy_core.h ****     /** @brief checks validity of a Pin 
 275:../../DaisyExamples/libDaisy//src/daisy_core.h ****      *  @retval returns true if the port is a valid hardware pin, otherwise false.
 276:../../DaisyExamples/libDaisy//src/daisy_core.h ****     */
 277:../../DaisyExamples/libDaisy//src/daisy_core.h ****     constexpr bool IsValid() const { return port != PORTX && pin < 16; }
 278:../../DaisyExamples/libDaisy//src/daisy_core.h **** 
 279:../../DaisyExamples/libDaisy//src/daisy_core.h ****     /** @brief comparison operator for checking equality between Pin objects */
 280:../../DaisyExamples/libDaisy//src/daisy_core.h ****     constexpr bool operator==(const Pin &rhs) const
 281:../../DaisyExamples/libDaisy//src/daisy_core.h ****     {
 282:../../DaisyExamples/libDaisy//src/daisy_core.h ****         return (rhs.port == port) && (rhs.pin == pin);
 283:../../DaisyExamples/libDaisy//src/daisy_core.h ****     }
 284:../../DaisyExamples/libDaisy//src/daisy_core.h **** 
 285:../../DaisyExamples/libDaisy//src/daisy_core.h ****     /** @brief comparison operator for checking inequality between Pin objects */
 286:../../DaisyExamples/libDaisy//src/daisy_core.h ****     constexpr bool operator!=(const Pin &rhs) const { return !operator==(rhs); }
 287:../../DaisyExamples/libDaisy//src/daisy_core.h **** 
 288:../../DaisyExamples/libDaisy//src/daisy_core.h ****     /** @brief conversion operation for converting to the old-style representation
 289:../../DaisyExamples/libDaisy//src/daisy_core.h ****      *         of a pin.
 290:../../DaisyExamples/libDaisy//src/daisy_core.h ****      * 
 291:../../DaisyExamples/libDaisy//src/daisy_core.h ****      *  This allows the new Pin type to be used in place of the older, dsy_gpio_pin
 292:../../DaisyExamples/libDaisy//src/daisy_core.h ****      *  type.
 293:../../DaisyExamples/libDaisy//src/daisy_core.h ****      */
 294:../../DaisyExamples/libDaisy//src/daisy_core.h ****     operator dsy_gpio_pin() const
 2063              		.loc 18 294 5 view .LVU470
 2064              	.LBE693:
 295:../../DaisyExamples/libDaisy//src/daisy_core.h ****     {
 296:../../DaisyExamples/libDaisy//src/daisy_core.h ****         return dsy_pin(static_cast<dsy_gpio_port>(port), pin);
 2065              		.loc 18 296 9 view .LVU471
 2066              	.LBB695:
 2067              	.LBB694:
 2068              	.LBI694:
 217:../../DaisyExamples/libDaisy//src/daisy_core.h **** {
 2069              		.loc 18 217 27 view .LVU472
 2070              	.LBE694:
 2071              	.LBE695:
 219:../../DaisyExamples/libDaisy//src/daisy_core.h ****     p.port = port;
 2072              		.loc 18 219 5 view .LVU473
 220:../../DaisyExamples/libDaisy//src/daisy_core.h ****     p.pin  = pin;
 2073              		.loc 18 220 5 view .LVU474
 221:../../DaisyExamples/libDaisy//src/daisy_core.h ****     return p;
 2074              		.loc 18 221 5 view .LVU475
 222:../../DaisyExamples/libDaisy//src/daisy_core.h **** }
 2075              		.loc 18 222 5 view .LVU476
 193:MachineDaisyFile.cpp **** 	AdcChannelConfig cfg;
 2076              		.loc 15 193 1 is_stmt 0 view .LVU477
 2077 0000 30B5     		push	{r4, r5, lr}
 2078              		.cfi_def_cfa_offset 12
 2079              		.cfi_offset 4, -12
 2080              		.cfi_offset 5, -8
ARM GAS  /var/folders/b5/3l92j93d5t1__l78tfntmwyr0000gn/T//ccOBeKL9.s 			page 68


 2081              		.cfi_offset 14, -4
 2082 0002 0223     		movs	r3, #2
 2083 0004 89B0     		sub	sp, sp, #36
 2084              		.cfi_def_cfa_offset 48
 2085 0006 0024     		movs	r4, #0
 196:MachineDaisyFile.cpp **** 	hw.adc.Init(&cfg,1);
 2086              		.loc 15 196 13 view .LVU478
 2087 0008 104D     		ldr	r5, .L65
 2088 000a 8DF80430 		strb	r3, [sp, #4]
 195:MachineDaisyFile.cpp **** 	hw.adc.Init(&cfg,1);
 2089              		.loc 15 195 16 view .LVU479
 2090 000e 03A8     		add	r0, sp, #12
 2091 0010 8DF80540 		strb	r4, [sp, #5]
 2092              	.LVL85:
 195:MachineDaisyFile.cpp **** 	hw.adc.Init(&cfg,1);
 2093              		.loc 15 195 16 view .LVU480
 2094 0014 0199     		ldr	r1, [sp, #4]
 2095 0016 FFF7FEFF 		bl	_ZN5daisy16AdcChannelConfig10InitSingleE12dsy_gpio_pin
 2096              	.LVL86:
 2097              		.loc 15 196 2 is_stmt 1 view .LVU481
 2098              		.loc 15 196 13 is_stmt 0 view .LVU482
 2099 001a 0122     		movs	r2, #1
 2100 001c 03A9     		add	r1, sp, #12
 2101 001e 0423     		movs	r3, #4
 2102 0020 2846     		mov	r0, r5
 2103 0022 FFF7FEFF 		bl	_ZN5daisy9AdcHandle4InitEPNS_16AdcChannelConfigEjNS0_12OverSamplingE
 2104              	.LVL87:
 197:MachineDaisyFile.cpp **** 	hw.adc.Start();
 2105              		.loc 15 197 2 is_stmt 1 view .LVU483
 2106              		.loc 15 197 14 is_stmt 0 view .LVU484
 2107 0026 2846     		mov	r0, r5
 2108 0028 FFF7FEFF 		bl	_ZN5daisy9AdcHandle5StartEv
 2109              	.LVL88:
 198:MachineDaisyFile.cpp **** 	selector.Init(SELECTOR,1000);
 2110              		.loc 15 198 2 is_stmt 1 view .LVU485
 2111              	.LBB696:
 2112              	.LBI696:
 294:../../DaisyExamples/libDaisy//src/daisy_core.h ****     {
 2113              		.loc 18 294 5 view .LVU486
 2114              	.LBE696:
 2115              		.loc 18 296 9 view .LVU487
 2116              	.LBB698:
 2117              	.LBB697:
 2118              	.LBI697:
 217:../../DaisyExamples/libDaisy//src/daisy_core.h **** {
 2119              		.loc 18 217 27 view .LVU488
 2120              	.LBE697:
 2121              	.LBE698:
 219:../../DaisyExamples/libDaisy//src/daisy_core.h ****     p.port = port;
 2122              		.loc 18 219 5 view .LVU489
 220:../../DaisyExamples/libDaisy//src/daisy_core.h ****     p.pin  = pin;
 2123              		.loc 18 220 5 view .LVU490
 221:../../DaisyExamples/libDaisy//src/daisy_core.h ****     return p;
 2124              		.loc 18 221 5 view .LVU491
 222:../../DaisyExamples/libDaisy//src/daisy_core.h **** }
 2125              		.loc 18 222 5 view .LVU492
 222:../../DaisyExamples/libDaisy//src/daisy_core.h **** }
ARM GAS  /var/folders/b5/3l92j93d5t1__l78tfntmwyr0000gn/T//ccOBeKL9.s 			page 69


 2126              		.loc 18 222 5 is_stmt 0 view .LVU493
 2127 002c 0323     		movs	r3, #3
 2128 002e 8DF80840 		strb	r4, [sp, #8]
 2129 0032 8DF80930 		strb	r3, [sp, #9]
 2130              	.LVL89:
 2131              		.loc 15 198 15 view .LVU494
 2132 0036 9FED060A 		vldr.32	s0, .L65+4
 2133 003a 0648     		ldr	r0, .L65+8
 2134 003c 0299     		ldr	r1, [sp, #8]
 2135 003e FFF7FEFF 		bl	_ZN5daisy6Switch4InitE12dsy_gpio_pinf
 2136              	.LVL90:
 199:MachineDaisyFile.cpp **** 	initDrums();
 2137              		.loc 15 199 2 is_stmt 1 view .LVU495
 2138              		.loc 15 199 11 is_stmt 0 view .LVU496
 2139 0042 FFF7FEFF 		bl	_Z9initDrumsv
 2140              	.LVL91:
 200:MachineDaisyFile.cpp **** 	//initEnvs();
 201:MachineDaisyFile.cpp **** }
 2141              		.loc 15 201 1 view .LVU497
 2142 0046 09B0     		add	sp, sp, #36
 2143              		.cfi_def_cfa_offset 12
 2144              		@ sp needed
 2145 0048 30BD     		pop	{r4, r5, pc}
 2146              	.L66:
 2147 004a 00BF     		.align	2
 2148              	.L65:
 2149 004c 18000000 		.word	.LANCHOR0+24
 2150 0050 00007A44 		.word	1148846080
 2151 0054 00000000 		.word	.LANCHOR11
 2152              		.cfi_endproc
 2153              	.LFE4833:
 2155              		.section	.text.startup.main,"ax",%progbits
 2156              		.align	1
 2157              		.p2align 2,,3
 2158              		.global	main
 2159              		.syntax unified
 2160              		.thumb
 2161              		.thumb_func
 2163              	main:
 2164              	.LFB4835:
 202:MachineDaisyFile.cpp **** /*
 203:MachineDaisyFile.cpp **** void ledMatrix()
 204:MachineDaisyFile.cpp **** {
 205:MachineDaisyFile.cpp **** 	for (int i=0; i < 4; i++)
 206:MachineDaisyFile.cpp **** 	{
 207:MachineDaisyFile.cpp **** 		setled(0, i, (int)kicks[i]);
 208:MachineDaisyFile.cpp **** 		setled(1, i, (int)snares[i]);
 209:MachineDaisyFile.cpp **** 		setled(2, i, (int)hats[i]);
 210:MachineDaisyFile.cpp **** 		setled(3, i, (int)synths[i]);
 211:MachineDaisyFile.cpp **** 	}
 212:MachineDaisyFile.cpp **** }
 213:MachineDaisyFile.cpp **** */
 214:MachineDaisyFile.cpp **** //====================================================================================
 215:MachineDaisyFile.cpp **** void AudioCallback(AudioHandle::InputBuffer in, AudioHandle::OutputBuffer out, size_t size)
 216:MachineDaisyFile.cpp **** {
 217:MachineDaisyFile.cpp **** 	
 218:MachineDaisyFile.cpp **** 	for (size_t i = 0; i < size; i++)
ARM GAS  /var/folders/b5/3l92j93d5t1__l78tfntmwyr0000gn/T//ccOBeKL9.s 			page 70


 219:MachineDaisyFile.cpp **** 	{
 220:MachineDaisyFile.cpp **** 		sequencer(out[0][i], out[1][i]);
 221:MachineDaisyFile.cpp **** 	}
 222:MachineDaisyFile.cpp **** }
 223:MachineDaisyFile.cpp **** //====================================================================================
 224:MachineDaisyFile.cpp **** int main(void)
 225:MachineDaisyFile.cpp **** {
 2165              		.loc 15 225 1 is_stmt 1 view -0
 2166              		.cfi_startproc
 2167              		@ Volatile: function does not return.
 2168              		@ args = 0, pretend = 0, frame = 0
 2169              		@ frame_needed = 0, uses_anonymous_args = 0
 226:MachineDaisyFile.cpp **** 	hw.Init();
 2170              		.loc 15 226 2 view .LVU499
 225:MachineDaisyFile.cpp **** 	hw.Init();
 2171              		.loc 15 225 1 is_stmt 0 view .LVU500
 2172 0000 08B5     		push	{r3, lr}
 2173              		.cfi_def_cfa_offset 8
 2174              		.cfi_offset 3, -8
 2175              		.cfi_offset 14, -4
 2176              		.loc 15 226 9 view .LVU501
 2177 0002 0021     		movs	r1, #0
 2178 0004 1648     		ldr	r0, .L70
 2179 0006 FFF7FEFF 		bl	_ZN5daisy9DaisySeed4InitEb
 2180              	.LVL92:
 227:MachineDaisyFile.cpp **** 	hw.SetAudioBlockSize(4); // number of samples handled per callback
 2181              		.loc 15 227 2 is_stmt 1 view .LVU502
 2182              		.loc 15 227 22 is_stmt 0 view .LVU503
 2183 000a 0421     		movs	r1, #4
 2184 000c 1448     		ldr	r0, .L70
 2185 000e FFF7FEFF 		bl	_ZN5daisy9DaisySeed17SetAudioBlockSizeEj
 2186              	.LVL93:
 228:MachineDaisyFile.cpp **** 	hw.SetAudioSampleRate(SaiHandle::Config::SampleRate::SAI_48KHZ);
 2187              		.loc 15 228 2 is_stmt 1 view .LVU504
 2188              		.loc 15 228 23 is_stmt 0 view .LVU505
 2189 0012 0321     		movs	r1, #3
 2190 0014 1248     		ldr	r0, .L70
 2191 0016 FFF7FEFF 		bl	_ZN5daisy9DaisySeed18SetAudioSampleRateENS_9SaiHandle6Config10SampleRateE
 2192              	.LVL94:
 229:MachineDaisyFile.cpp **** 	//hw.StartLog(true);
 230:MachineDaisyFile.cpp **** 	initControls();
 2193              		.loc 15 230 2 is_stmt 1 view .LVU506
 2194              		.loc 15 230 14 is_stmt 0 view .LVU507
 2195 001a FFF7FEFF 		bl	_Z12initControlsv
 2196              	.LVL95:
 231:MachineDaisyFile.cpp **** 	hw.SetLed(true);
 2197              		.loc 15 231 2 is_stmt 1 view .LVU508
 2198              		.loc 15 231 11 is_stmt 0 view .LVU509
 2199 001e 0121     		movs	r1, #1
 2200 0020 0F48     		ldr	r0, .L70
 2201 0022 FFF7FEFF 		bl	_ZN5daisy9DaisySeed6SetLedEb
 2202              	.LVL96:
 232:MachineDaisyFile.cpp **** 	del.setDelay(delTime);
 2203              		.loc 15 232 2 is_stmt 1 view .LVU510
 2204              		.loc 15 232 14 is_stmt 0 view .LVU511
 2205 0026 0F49     		ldr	r1, .L70+4
 2206              	.LBB699:
ARM GAS  /var/folders/b5/3l92j93d5t1__l78tfntmwyr0000gn/T//ccOBeKL9.s 			page 71


 2207              	.LBB700:
  15:../EZ_DSP/delay_line.h ****     
  16:../EZ_DSP/delay_line.h ****     // Initializes delay line
  17:../EZ_DSP/delay_line.h ****     void init() {reset();}
  18:../EZ_DSP/delay_line.h ****     
  19:../EZ_DSP/delay_line.h ****     // Resets buffer, sets all values to 0
  20:../EZ_DSP/delay_line.h ****     void reset() 
  21:../EZ_DSP/delay_line.h ****     {
  22:../EZ_DSP/delay_line.h ****         for (size_t i=0; i < maxSize; i++)
  23:../EZ_DSP/delay_line.h ****         {
  24:../EZ_DSP/delay_line.h ****             delLine[i] = sampleType(0);
  25:../EZ_DSP/delay_line.h ****         }
  26:../EZ_DSP/delay_line.h ****         writePtr = 0;
  27:../EZ_DSP/delay_line.h ****         readPtr = 1;
  28:../EZ_DSP/delay_line.h ****     }
  29:../EZ_DSP/delay_line.h ****     
  30:../EZ_DSP/delay_line.h ****     // sets delay for size_t input, assumes unchanging value
  31:../EZ_DSP/delay_line.h ****     inline void setDelay(size_t delay)
  32:../EZ_DSP/delay_line.h ****     {
  33:../EZ_DSP/delay_line.h ****         fractional = 0;
  34:../EZ_DSP/delay_line.h ****         readPtr = readPtr < maxSize ? readPtr : maxSize - 1;
  35:../EZ_DSP/delay_line.h ****     }
  36:../EZ_DSP/delay_line.h **** 
  37:../EZ_DSP/delay_line.h ****     /** sets delay for float input, creates fractional delay
  38:../EZ_DSP/delay_line.h ****         for changing value
  39:../EZ_DSP/delay_line.h ****         @param delay delay in samples
  40:../EZ_DSP/delay_line.h ****     */
  41:../EZ_DSP/delay_line.h ****     inline void setDelay(float delay)
  42:../EZ_DSP/delay_line.h ****     {
  43:../EZ_DSP/delay_line.h ****         int32_t delayInt = static_cast<int32_t>(delay);
  44:../EZ_DSP/delay_line.h ****         fractional = delay - static_cast<float>(delayInt);
  45:../EZ_DSP/delay_line.h ****         readPtr = static_cast<size_t>(delayInt) < maxSize ? delayInt : maxSize - 1;
 2208              		.loc 14 45 59 view .LVU512
 2209 0028 0F4B     		ldr	r3, .L70+8
 2210              	.LBE700:
 2211              	.LBE699:
 2212              		.loc 15 232 14 view .LVU513
 2213 002a D1ED007A 		vldr.32	s15, [r1]
 2214              	.LVL97:
 2215              	.LBB703:
 2216              	.LBI699:
  41:../EZ_DSP/delay_line.h ****     {
 2217              		.loc 14 41 17 is_stmt 1 view .LVU514
 2218              	.LBB701:
  44:../EZ_DSP/delay_line.h ****         readPtr = static_cast<size_t>(delayInt) < maxSize ? delayInt : maxSize - 1;
 2219              		.loc 14 44 20 is_stmt 0 view .LVU515
 2220 002e 0F4A     		ldr	r2, .L70+12
  43:../EZ_DSP/delay_line.h ****         fractional = delay - static_cast<float>(delayInt);
 2221              		.loc 14 43 17 view .LVU516
 2222 0030 BDEEE77A 		vcvt.s32.f32	s14, s15
 2223              	.LVL98:
  43:../EZ_DSP/delay_line.h ****         fractional = delay - static_cast<float>(delayInt);
 2224              		.loc 14 43 17 view .LVU517
 2225              	.LBE701:
 2226              	.LBE703:
 233:MachineDaisyFile.cpp **** 
 234:MachineDaisyFile.cpp **** 	hw.StartAudio(AudioCallback);
ARM GAS  /var/folders/b5/3l92j93d5t1__l78tfntmwyr0000gn/T//ccOBeKL9.s 			page 72


 2227              		.loc 15 234 15 view .LVU518
 2228 0034 0E49     		ldr	r1, .L70+16
 2229 0036 0A48     		ldr	r0, .L70
 2230              	.LBB704:
 2231              	.LBB702:
 2232              		.loc 14 45 59 view .LVU519
 2233 0038 17EE10CA 		vmov	ip, s14	@ int
  44:../EZ_DSP/delay_line.h ****         readPtr = static_cast<size_t>(delayInt) < maxSize ? delayInt : maxSize - 1;
 2234              		.loc 14 44 30 view .LVU520
 2235 003c F8EEC76A 		vcvt.f32.s32	s13, s14
 2236              		.loc 14 45 59 view .LVU521
 2237 0040 9C45     		cmp	ip, r3
  44:../EZ_DSP/delay_line.h ****         readPtr = static_cast<size_t>(delayInt) < maxSize ? delayInt : maxSize - 1;
 2238              		.loc 14 44 28 view .LVU522
 2239 0042 77EEE67A 		vsub.f32	s15, s15, s13
 2240              	.LVL99:
 2241              		.loc 14 45 59 view .LVU523
 2242 0046 28BF     		it	cs
 2243 0048 9C46     		movcs	ip, r3
  44:../EZ_DSP/delay_line.h ****         readPtr = static_cast<size_t>(delayInt) < maxSize ? delayInt : maxSize - 1;
 2244              		.loc 14 44 20 view .LVU524
 2245 004a C2ED007A 		vstr.32	s15, [r2]
 2246              		.loc 14 45 17 view .LVU525
 2247 004e C2F808C0 		str	ip, [r2, #8]
 2248              	.LVL100:
 2249              		.loc 14 45 17 view .LVU526
 2250              	.LBE702:
 2251              	.LBE704:
 2252              		.loc 15 234 2 is_stmt 1 view .LVU527
 2253              		.loc 15 234 15 is_stmt 0 view .LVU528
 2254 0052 FFF7FEFF 		bl	_ZN5daisy9DaisySeed10StartAudioEPFvPKPKfPPfjE
 2255              	.LVL101:
 2256              	.L68:
 235:MachineDaisyFile.cpp **** 	while(1) 
 2257              		.loc 15 235 2 is_stmt 1 discriminator 1 view .LVU529
 236:MachineDaisyFile.cpp **** 	{
 237:MachineDaisyFile.cpp **** 		processButtons();
 2258              		.loc 15 237 3 discriminator 1 view .LVU530
 2259              		.loc 15 237 17 is_stmt 0 discriminator 1 view .LVU531
 2260 0056 FFF7FEFF 		bl	_Z14processButtonsv
 2261              	.LVL102:
 238:MachineDaisyFile.cpp **** 		setDrumParams();
 2262              		.loc 15 238 3 is_stmt 1 discriminator 1 view .LVU532
 2263              		.loc 15 238 16 is_stmt 0 discriminator 1 view .LVU533
 2264 005a FFF7FEFF 		bl	_Z13setDrumParamsv
 2265              	.LVL103:
 235:MachineDaisyFile.cpp **** 	while(1) 
 2266              		.loc 15 235 2 is_stmt 1 discriminator 1 view .LVU534
 2267 005e FAE7     		b	.L68
 2268              	.L71:
 2269              		.align	2
 2270              	.L70:
 2271 0060 00000000 		.word	.LANCHOR0
 2272 0064 00000000 		.word	.LANCHOR17
 2273 0068 FF760100 		.word	95999
 2274 006c 00000000 		.word	del
 2275 0070 00000000 		.word	_Z13AudioCallbackPKPKfPPfj
ARM GAS  /var/folders/b5/3l92j93d5t1__l78tfntmwyr0000gn/T//ccOBeKL9.s 			page 73


 2276              		.cfi_endproc
 2277              	.LFE4835:
 2279              		.section	.text._ZN7daisysp5HiHatINS_11SquareNoiseENS_9LinearVCAELb1EE7ProcessEb,"axG",%progbits,_Z
 2280              		.align	1
 2281              		.p2align 2,,3
 2282              		.weak	_ZN7daisysp5HiHatINS_11SquareNoiseENS_9LinearVCAELb1EE7ProcessEb
 2283              		.syntax unified
 2284              		.thumb
 2285              		.thumb_func
 2287              	_ZN7daisysp5HiHatINS_11SquareNoiseENS_9LinearVCAELb1EE7ProcessEb:
 2288              	.LVL104:
 2289              	.LFB5155:
 144:../../DaisyExamples/DaisySP//Source/Drums/hihat.h ****     {
 2290              		.loc 13 144 11 view -0
 2291              		.cfi_startproc
 2292              		@ args = 0, pretend = 0, frame = 8
 2293              		@ frame_needed = 0, uses_anonymous_args = 0
 147:../../DaisyExamples/DaisySP//Source/Drums/hihat.h ****         const float cut_decay
 2294              		.loc 13 147 47 is_stmt 0 view .LVU536
 2295 0000 DFED827A 		vldr.32	s15, .L87
 2296              	.LBB705:
 2297              	.LBB706:
 246:../../DaisyExamples/DaisySP//Source/Drums/hihat.h ****     }
 247:../../DaisyExamples/DaisySP//Source/Drums/hihat.h **** 
 248:../../DaisyExamples/DaisySP//Source/Drums/hihat.h **** 
 249:../../DaisyExamples/DaisySP//Source/Drums/hihat.h ****   private:
 250:../../DaisyExamples/DaisySP//Source/Drums/hihat.h ****     float sample_rate_;
 251:../../DaisyExamples/DaisySP//Source/Drums/hihat.h **** 
 252:../../DaisyExamples/DaisySP//Source/Drums/hihat.h ****     float accent_, f0_, tone_, decay_, noisiness_;
 253:../../DaisyExamples/DaisySP//Source/Drums/hihat.h ****     bool  sustain_;
 254:../../DaisyExamples/DaisySP//Source/Drums/hihat.h ****     bool  trig_;
 255:../../DaisyExamples/DaisySP//Source/Drums/hihat.h **** 
 256:../../DaisyExamples/DaisySP//Source/Drums/hihat.h ****     float SemitonesToRatio(float in) { return powf(2.f, in * kOneTwelfth); }
 2298              		.loc 13 256 51 view .LVU537
 2299 0004 B0EE000A 		vmov.f32	s0, #2.0e+0
 2300              	.LBE706:
 2301              	.LBE705:
 147:../../DaisyExamples/DaisySP//Source/Drums/hihat.h ****         const float cut_decay
 2302              		.loc 13 147 47 view .LVU538
 2303 0008 D0ED040A 		vldr.32	s1, [r0, #16]
 2304 000c 60EEE70A 		vnmul.f32	s1, s1, s15
 144:../../DaisyExamples/DaisySP//Source/Drums/hihat.h ****     {
 2305              		.loc 13 144 11 view .LVU539
 2306 0010 30B5     		push	{r4, r5, lr}
 2307              		.cfi_def_cfa_offset 12
 2308              		.cfi_offset 4, -12
 2309              		.cfi_offset 5, -8
 2310              		.cfi_offset 14, -4
 2311 0012 2DED068B 		vpush.64	{d8, d9, d10}
 2312              		.cfi_def_cfa_offset 36
 2313              		.cfi_offset 80, -36
 2314              		.cfi_offset 81, -32
 2315              		.cfi_offset 82, -28
 2316              		.cfi_offset 83, -24
 2317              		.cfi_offset 84, -20
 2318              		.cfi_offset 85, -16
 2319              	.LBB710:
ARM GAS  /var/folders/b5/3l92j93d5t1__l78tfntmwyr0000gn/T//ccOBeKL9.s 			page 74


 2320              	.LBB707:
 2321              		.loc 13 256 51 view .LVU540
 2322 0016 9FED7E8A 		vldr.32	s16, .L87+4
 2323              	.LBE707:
 2324              	.LBE710:
 144:../../DaisyExamples/DaisySP//Source/Drums/hihat.h ****     {
 2325              		.loc 13 144 11 view .LVU541
 2326 001a 0446     		mov	r4, r0
 2327              	.LVL105:
 2328              	.LBB711:
 2329              	.LBI705:
 2330              		.loc 13 256 11 is_stmt 1 view .LVU542
 2331              	.LBE711:
 144:../../DaisyExamples/DaisySP//Source/Drums/hihat.h ****     {
 2332              		.loc 13 144 11 is_stmt 0 view .LVU543
 2333 001c 83B0     		sub	sp, sp, #12
 2334              		.cfi_def_cfa_offset 48
 144:../../DaisyExamples/DaisySP//Source/Drums/hihat.h ****     {
 2335              		.loc 13 144 11 view .LVU544
 2336 001e 0D46     		mov	r5, r1
 2337              	.LBB712:
 2338              	.LBB708:
 2339              		.loc 13 256 51 view .LVU545
 2340 0020 60EE880A 		vmul.f32	s1, s1, s16
 2341 0024 FFF7FEFF 		bl	powf
 2342              	.LVL106:
 2343              		.loc 13 256 51 view .LVU546
 2344              	.LBE708:
 2345              	.LBE712:
 149:../../DaisyExamples/DaisySP//Source/Drums/hihat.h **** 
 2346              		.loc 13 149 48 view .LVU547
 2347 0028 D4ED040A 		vldr.32	s1, [r4, #16]
 2348 002c DFED797A 		vldr.32	s15, .L87+8
 2349              	.LBB713:
 2350              	.LBB709:
 2351              		.loc 13 256 51 view .LVU548
 2352 0030 F0EE409A 		vmov.f32	s19, s0
 2353              	.LBE709:
 2354              	.LBE713:
 2355              	.LBB714:
 2356              	.LBB715:
 2357 0034 B0EE000A 		vmov.f32	s0, #2.0e+0
 2358              	.LVL107:
 2359              		.loc 13 256 51 view .LVU549
 2360              	.LBE715:
 2361              	.LBI714:
 2362              		.loc 13 256 11 is_stmt 1 view .LVU550
 2363              	.LBE714:
 149:../../DaisyExamples/DaisySP//Source/Drums/hihat.h **** 
 2364              		.loc 13 149 48 is_stmt 0 view .LVU551
 2365 0038 60EEE70A 		vnmul.f32	s1, s1, s15
 2366              	.LVL108:
 2367              	.LBB717:
 2368              	.LBB716:
 2369              		.loc 13 256 51 view .LVU552
 2370 003c 60EE880A 		vmul.f32	s1, s1, s16
 2371 0040 FFF7FEFF 		bl	powf
ARM GAS  /var/folders/b5/3l92j93d5t1__l78tfntmwyr0000gn/T//ccOBeKL9.s 			page 75


 2372              	.LVL109:
 2373              		.loc 13 256 51 view .LVU553
 2374 0044 B0EE409A 		vmov.f32	s18, s0
 2375              	.LVL110:
 2376              		.loc 13 256 51 view .LVU554
 2377              	.LBE716:
 2378              	.LBE717:
 151:../../DaisyExamples/DaisySP//Source/Drums/hihat.h ****         {
 2379              		.loc 13 151 9 view .LVU555
 2380 0048 002D     		cmp	r5, #0
 2381 004a 40F0A980 		bne	.L73
 151:../../DaisyExamples/DaisySP//Source/Drums/hihat.h ****         {
 2382              		.loc 13 151 20 discriminator 1 view .LVU556
 2383 004e 637E     		ldrb	r3, [r4, #25]	@ zero_extendqisi2
 2384 0050 002B     		cmp	r3, #0
 2385 0052 40F0A580 		bne	.L73
 2386              	.L74:
 160:../../DaisyExamples/DaisySP//Source/Drums/hihat.h **** 
 2387              		.loc 13 160 44 view .LVU557
 2388 0056 94ED020A 		vldr.32	s0, [r4, #8]
 2389              	.LVL111:
 160:../../DaisyExamples/DaisySP//Source/Drums/hihat.h **** 
 2390              		.loc 13 160 44 view .LVU558
 2391 005a 04F12C00 		add	r0, r4, #44
 165:../../DaisyExamples/DaisySP//Source/Drums/hihat.h **** 
 2392              		.loc 13 165 50 view .LVU559
 2393 005e 2546     		mov	r5, r4
 2394              	.LBB718:
 2395              	.LBB719:
 2396              	.LBB720:
  36:../../DaisyExamples/DaisySP//Source/Utility/dsp.h **** #else
 2397              		.loc 17 36 5 view .LVU560
 2398 0060 DFED6DAA 		vldr.32	s21, .L87+12
 2399              	.LBE720:
 2400              	.LBE719:
 2401              	.LBE718:
 160:../../DaisyExamples/DaisySP//Source/Drums/hihat.h **** 
 2402              		.loc 13 160 44 view .LVU561
 2403 0064 30EE000A 		vadd.f32	s0, s0, s0
 2404 0068 FFF7FEFF 		bl	_ZN7daisysp11SquareNoise7ProcessEf
 2405              	.LVL112:
 163:../../DaisyExamples/DaisySP//Source/Drums/hihat.h **** 
 2406              		.loc 13 163 31 view .LVU562
 2407 006c 9FED6B6A 		vldr.32	s12, .L87+16
 2408 0070 D4ED006A 		vldr.32	s13, [r4]
 160:../../DaisyExamples/DaisySP//Source/Drums/hihat.h **** 
 2409              		.loc 13 160 44 view .LVU563
 2410 0074 B0EE40AA 		vmov.f32	s20, s0
 163:../../DaisyExamples/DaisySP//Source/Drums/hihat.h **** 
 2411              		.loc 13 163 64 view .LVU564
 2412 0078 9FED697A 		vldr.32	s14, .L87+20
 2413              	.LBB727:
 2414              	.LBB728:
 2415              		.loc 13 256 51 view .LVU565
 2416 007c B0EE000A 		vmov.f32	s0, #2.0e+0
 2417              	.LVL113:
 2418              		.loc 13 256 51 view .LVU566
ARM GAS  /var/folders/b5/3l92j93d5t1__l78tfntmwyr0000gn/T//ccOBeKL9.s 			page 76


 2419              	.LBE728:
 2420              	.LBI727:
 2421              		.loc 13 256 11 is_stmt 1 view .LVU567
 2422              	.LBE727:
 163:../../DaisyExamples/DaisySP//Source/Drums/hihat.h **** 
 2423              		.loc 13 163 31 is_stmt 0 view .LVU568
 2424 0080 C6EE268A 		vdiv.f32	s17, s12, s13
 163:../../DaisyExamples/DaisySP//Source/Drums/hihat.h **** 
 2425              		.loc 13 163 64 view .LVU569
 2426 0084 D4ED037A 		vldr.32	s15, [r4, #12]
 2427              	.LBB731:
 2428              	.LBB729:
 2429              		.loc 13 256 51 view .LVU570
 2430 0088 DFED610A 		vldr.32	s1, .L87+4
 2431              	.LBE729:
 2432              	.LBE731:
 165:../../DaisyExamples/DaisySP//Source/Drums/hihat.h **** 
 2433              		.loc 13 165 50 view .LVU571
 2434 008c 4435     		adds	r5, r5, #68
 2435              	.LVL114:
 163:../../DaisyExamples/DaisySP//Source/Drums/hihat.h **** 
 2436              		.loc 13 163 64 view .LVU572
 2437 008e 67EE877A 		vmul.f32	s15, s15, s14
 2438              	.LVL115:
 2439              	.LBB732:
 2440              	.LBB730:
 2441              		.loc 13 256 51 view .LVU573
 2442 0092 67EEA00A 		vmul.f32	s1, s15, s1
 2443 0096 FFF7FEFF 		bl	powf
 2444              	.LVL116:
 2445              		.loc 13 256 51 view .LVU574
 2446              	.LBE730:
 2447              	.LBE732:
 165:../../DaisyExamples/DaisySP//Source/Drums/hihat.h **** 
 2448              		.loc 13 165 24 view .LVU575
 2449 009a DFED626A 		vldr.32	s13, .L87+24
 165:../../DaisyExamples/DaisySP//Source/Drums/hihat.h **** 
 2450              		.loc 13 165 50 view .LVU576
 2451 009e D4ED007A 		vldr.32	s15, [r4]
 2452              	.LVL117:
 2453              	.LBB733:
 2454              	.LBI718:
  56:../../DaisyExamples/DaisySP//Source/Utility/dsp.h **** {
 2455              		.loc 17 56 14 is_stmt 1 view .LVU577
 2456              	.LBE733:
 2457              		.loc 17 58 5 view .LVU578
 2458              	.LBB734:
 2459              	.LBB723:
 2460              	.LBI719:
  32:../../DaisyExamples/DaisySP//Source/Utility/dsp.h **** {
 2461              		.loc 17 32 14 view .LVU579
 2462              	.LBB721:
  34:../../DaisyExamples/DaisySP//Source/Utility/dsp.h **** #ifdef __arm__
 2463              		.loc 17 34 5 view .LVU580
  36:../../DaisyExamples/DaisySP//Source/Utility/dsp.h **** #else
 2464              		.loc 17 36 5 view .LVU581
 2465              	.LBE721:
ARM GAS  /var/folders/b5/3l92j93d5t1__l78tfntmwyr0000gn/T//ccOBeKL9.s 			page 77


 2466              	.LBE723:
 2467              	.LBE734:
 168:../../DaisyExamples/DaisySP//Source/Drums/hihat.h ****         noise_coloration_svf_.SetRes(resonance ? 3.0f + 6.0f * tone_ : 1.0f);
 2468              		.loc 13 168 38 is_stmt 0 view .LVU582
 2469 00a2 2846     		mov	r0, r5
 165:../../DaisyExamples/DaisySP//Source/Drums/hihat.h **** 
 2470              		.loc 13 165 24 view .LVU583
 2471 00a4 86EEA77A 		vdiv.f32	s14, s13, s15
 2472              	.LVL118:
 163:../../DaisyExamples/DaisySP//Source/Drums/hihat.h **** 
 2473              		.loc 13 163 15 view .LVU584
 2474 00a8 68EE808A 		vmul.f32	s17, s17, s0
 2475              	.LVL119:
 2476              	.LBB735:
 2477              	.LBB724:
 2478              	.LBB722:
  36:../../DaisyExamples/DaisySP//Source/Utility/dsp.h **** #else
 2479              		.loc 17 36 5 view .LVU585
 2480              		.syntax unified
 2481              	@ 36 "../../DaisyExamples/DaisySP//Source/Utility/dsp.h" 1
 2482 00ac C8FEAA8A 		vmaxnm.f32 s17, s17, s21
 2483              	@ 0 "" 2
 2484              	.LVL120:
  40:../../DaisyExamples/DaisySP//Source/Utility/dsp.h **** }
 2485              		.loc 17 40 5 is_stmt 1 view .LVU586
  40:../../DaisyExamples/DaisySP//Source/Utility/dsp.h **** }
 2486              		.loc 17 40 5 is_stmt 0 view .LVU587
 2487              		.thumb
 2488              		.syntax unified
 2489              	.LBE722:
 2490              	.LBE724:
 2491              	.LBB725:
 2492              	.LBI725:
  43:../../DaisyExamples/DaisySP//Source/Utility/dsp.h **** {
 2493              		.loc 17 43 14 is_stmt 1 view .LVU588
 2494              	.LBB726:
  45:../../DaisyExamples/DaisySP//Source/Utility/dsp.h **** #ifdef __arm__
 2495              		.loc 17 45 5 view .LVU589
  47:../../DaisyExamples/DaisySP//Source/Utility/dsp.h **** #else
 2496              		.loc 17 47 5 view .LVU590
 2497              		.syntax unified
 2498              	@ 47 "../../DaisyExamples/DaisySP//Source/Utility/dsp.h" 1
 2499 00b0 C8FEC78A 		vminnm.f32 s17, s17, s14
 2500              	@ 0 "" 2
 2501              	.LVL121:
  51:../../DaisyExamples/DaisySP//Source/Utility/dsp.h **** }
 2502              		.loc 17 51 5 view .LVU591
  51:../../DaisyExamples/DaisySP//Source/Utility/dsp.h **** }
 2503              		.loc 17 51 5 is_stmt 0 view .LVU592
 2504              		.thumb
 2505              		.syntax unified
 2506              	.LBE726:
 2507              	.LBE725:
 2508              	.LBE735:
 168:../../DaisyExamples/DaisySP//Source/Drums/hihat.h ****         noise_coloration_svf_.SetRes(resonance ? 3.0f + 6.0f * tone_ : 1.0f);
 2509              		.loc 13 168 38 view .LVU593
 2510 00b4 27EEA80A 		vmul.f32	s0, s15, s17
ARM GAS  /var/folders/b5/3l92j93d5t1__l78tfntmwyr0000gn/T//ccOBeKL9.s 			page 78


 2511 00b8 FFF7FEFF 		bl	_ZN7daisysp3Svf7SetFreqEf
 2512              	.LVL122:
 169:../../DaisyExamples/DaisySP//Source/Drums/hihat.h **** 
 2513              		.loc 13 169 37 view .LVU594
 2514 00bc F1EE087A 		vmov.f32	s15, #6.0e+0
 2515 00c0 B0EE080A 		vmov.f32	s0, #3.0e+0
 2516 00c4 94ED037A 		vldr.32	s14, [r4, #12]
 2517 00c8 2846     		mov	r0, r5
 2518 00ca A7EE270A 		vfma.f32	s0, s14, s15
 2519 00ce FFF7FEFF 		bl	_ZN7daisysp3Svf6SetResEf
 2520              	.LVL123:
 171:../../DaisyExamples/DaisySP//Source/Drums/hihat.h ****         out = noise_coloration_svf_.Band();
 2521              		.loc 13 171 38 view .LVU595
 2522 00d2 B0EE4A0A 		vmov.f32	s0, s20
 2523 00d6 2846     		mov	r0, r5
 2524 00d8 FFF7FEFF 		bl	_ZN7daisysp3Svf7ProcessEf
 2525              	.LVL124:
 2526              	.LBB736:
 2527              	.LBI736:
  23:../../DaisyExamples/DaisySP//Source/Filters/svf.h ****     /** Initializes the filter
  24:../../DaisyExamples/DaisySP//Source/Filters/svf.h ****         float sample_rate - sample rate of the audio engine being run, and the frequency that the P
  25:../../DaisyExamples/DaisySP//Source/Filters/svf.h ****     */
  26:../../DaisyExamples/DaisySP//Source/Filters/svf.h ****     void Init(float sample_rate);
  27:../../DaisyExamples/DaisySP//Source/Filters/svf.h **** 
  28:../../DaisyExamples/DaisySP//Source/Filters/svf.h **** 
  29:../../DaisyExamples/DaisySP//Source/Filters/svf.h ****     /** 
  30:../../DaisyExamples/DaisySP//Source/Filters/svf.h ****         Process the input signal, updating all of the outputs.
  31:../../DaisyExamples/DaisySP//Source/Filters/svf.h ****     */
  32:../../DaisyExamples/DaisySP//Source/Filters/svf.h ****     void Process(float in);
  33:../../DaisyExamples/DaisySP//Source/Filters/svf.h **** 
  34:../../DaisyExamples/DaisySP//Source/Filters/svf.h **** 
  35:../../DaisyExamples/DaisySP//Source/Filters/svf.h ****     /** sets the frequency of the cutoff frequency. 
  36:../../DaisyExamples/DaisySP//Source/Filters/svf.h ****         f must be between 0.0 and sample_rate / 3
  37:../../DaisyExamples/DaisySP//Source/Filters/svf.h ****     */
  38:../../DaisyExamples/DaisySP//Source/Filters/svf.h ****     void SetFreq(float f);
  39:../../DaisyExamples/DaisySP//Source/Filters/svf.h **** 
  40:../../DaisyExamples/DaisySP//Source/Filters/svf.h ****     /** sets the resonance of the filter.
  41:../../DaisyExamples/DaisySP//Source/Filters/svf.h ****         Must be between 0.0 and 1.0 to ensure stability.
  42:../../DaisyExamples/DaisySP//Source/Filters/svf.h ****     */
  43:../../DaisyExamples/DaisySP//Source/Filters/svf.h ****     void SetRes(float r);
  44:../../DaisyExamples/DaisySP//Source/Filters/svf.h **** 
  45:../../DaisyExamples/DaisySP//Source/Filters/svf.h ****     /** sets the drive of the filter 
  46:../../DaisyExamples/DaisySP//Source/Filters/svf.h ****         affects the response of the resonance of the filter
  47:../../DaisyExamples/DaisySP//Source/Filters/svf.h ****     */
  48:../../DaisyExamples/DaisySP//Source/Filters/svf.h ****     void SetDrive(float d);
  49:../../DaisyExamples/DaisySP//Source/Filters/svf.h ****     /** lowpass output
  50:../../DaisyExamples/DaisySP//Source/Filters/svf.h ****         \return low pass output of the filter
  51:../../DaisyExamples/DaisySP//Source/Filters/svf.h ****     */
  52:../../DaisyExamples/DaisySP//Source/Filters/svf.h ****     inline float Low() { return out_low_; }
  53:../../DaisyExamples/DaisySP//Source/Filters/svf.h ****     /** highpass output
  54:../../DaisyExamples/DaisySP//Source/Filters/svf.h ****         \return high pass output of the filter
  55:../../DaisyExamples/DaisySP//Source/Filters/svf.h ****     */
  56:../../DaisyExamples/DaisySP//Source/Filters/svf.h ****     inline float High() { return out_high_; }
  57:../../DaisyExamples/DaisySP//Source/Filters/svf.h ****     /** bandpass output
  58:../../DaisyExamples/DaisySP//Source/Filters/svf.h ****         \return band pass output of the filter
  59:../../DaisyExamples/DaisySP//Source/Filters/svf.h ****     */
  60:../../DaisyExamples/DaisySP//Source/Filters/svf.h ****     inline float Band() { return out_band_; }
ARM GAS  /var/folders/b5/3l92j93d5t1__l78tfntmwyr0000gn/T//ccOBeKL9.s 			page 79


 2528              		.loc 9 60 18 is_stmt 1 view .LVU596
 2529              	.LBB737:
 2530              		.loc 9 60 27 view .LVU597
 2531              	.LBE737:
 2532              	.LBE736:
 177:../../DaisyExamples/DaisySP//Source/Drums/hihat.h ****         noise_f       = fclamp(noise_f, 0.0f, 0.5f);
 2533              		.loc 13 177 54 is_stmt 0 view .LVU598
 2534 00dc F7EE006A 		vmov.f32	s13, #1.0e+0
 177:../../DaisyExamples/DaisySP//Source/Drums/hihat.h ****         noise_f       = fclamp(noise_f, 0.0f, 0.5f);
 2535              		.loc 13 177 56 view .LVU599
 2536 00e0 D4ED055A 		vldr.32	s11, [r4, #20]
 177:../../DaisyExamples/DaisySP//Source/Drums/hihat.h ****         noise_f       = fclamp(noise_f, 0.0f, 0.5f);
 2537              		.loc 13 177 38 view .LVU600
 2538 00e4 B3EE007A 		vmov.f32	s14, #1.6e+1
 180:../../DaisyExamples/DaisySP//Source/Drums/hihat.h ****         if(noise_clock_ >= 1.0f)
 2539              		.loc 13 180 22 view .LVU601
 2540 00e8 94ED086A 		vldr.32	s12, [r4, #32]
 2541              	.LBB739:
 2542              	.LBB740:
 2543              	.LBB741:
  47:../../DaisyExamples/DaisySP//Source/Utility/dsp.h **** #else
 2544              		.loc 17 47 5 view .LVU602
 2545 00ec B6EE005A 		vmov.f32	s10, #5.0e-1
 2546              	.LBE741:
 2547              	.LBE740:
 2548              	.LBE739:
 177:../../DaisyExamples/DaisySP//Source/Drums/hihat.h ****         noise_f       = fclamp(noise_f, 0.0f, 0.5f);
 2549              		.loc 13 177 54 view .LVU603
 2550 00f0 76EEE54A 		vsub.f32	s9, s13, s11
 177:../../DaisyExamples/DaisySP//Source/Drums/hihat.h ****         noise_f       = fclamp(noise_f, 0.0f, 0.5f);
 2551              		.loc 13 177 15 view .LVU604
 2552 00f4 D4ED027A 		vldr.32	s15, [r4, #8]
 2553              	.LBB748:
 2554              	.LBB738:
 2555              		.loc 9 60 34 view .LVU605
 2556 00f8 94ED1F8A 		vldr.32	s16, [r4, #124]
 2557              	.LVL125:
 2558              		.loc 9 60 34 view .LVU606
 2559              	.LBE738:
 2560              	.LBE748:
 177:../../DaisyExamples/DaisySP//Source/Drums/hihat.h ****         noise_f       = fclamp(noise_f, 0.0f, 0.5f);
 2561              		.loc 13 177 38 view .LVU607
 2562 00fc A4EE877A 		vfma.f32	s14, s9, s14
 2563              	.LVL126:
 2564              	.LBB749:
 2565              	.LBI739:
  56:../../DaisyExamples/DaisySP//Source/Utility/dsp.h **** {
 2566              		.loc 17 56 14 is_stmt 1 view .LVU608
 2567              	.LBE749:
 2568              		.loc 17 58 5 view .LVU609
 2569              	.LBB750:
 2570              	.LBB743:
 2571              	.LBI743:
  32:../../DaisyExamples/DaisySP//Source/Utility/dsp.h **** {
 2572              		.loc 17 32 14 view .LVU610
 2573              	.LBB744:
  34:../../DaisyExamples/DaisySP//Source/Utility/dsp.h **** #ifdef __arm__
ARM GAS  /var/folders/b5/3l92j93d5t1__l78tfntmwyr0000gn/T//ccOBeKL9.s 			page 80


 2574              		.loc 17 34 5 view .LVU611
  36:../../DaisyExamples/DaisySP//Source/Utility/dsp.h **** #else
 2575              		.loc 17 36 5 view .LVU612
 2576              	.LBE744:
 2577              	.LBE743:
 2578              	.LBE750:
 177:../../DaisyExamples/DaisySP//Source/Drums/hihat.h ****         noise_f       = fclamp(noise_f, 0.0f, 0.5f);
 2579              		.loc 13 177 15 is_stmt 0 view .LVU613
 2580 0100 67EE277A 		vmul.f32	s15, s14, s15
 2581              	.LVL127:
 2582              	.LBB751:
 2583              	.LBB746:
 2584              	.LBB745:
  36:../../DaisyExamples/DaisySP//Source/Utility/dsp.h **** #else
 2585              		.loc 17 36 5 view .LVU614
 2586              		.syntax unified
 2587              	@ 36 "../../DaisyExamples/DaisySP//Source/Utility/dsp.h" 1
 2588 0104 C7FEAA7A 		vmaxnm.f32 s15, s15, s21
 2589              	@ 0 "" 2
 2590              	.LVL128:
  40:../../DaisyExamples/DaisySP//Source/Utility/dsp.h **** }
 2591              		.loc 17 40 5 is_stmt 1 view .LVU615
  40:../../DaisyExamples/DaisySP//Source/Utility/dsp.h **** }
 2592              		.loc 17 40 5 is_stmt 0 view .LVU616
 2593              		.thumb
 2594              		.syntax unified
 2595              	.LBE745:
 2596              	.LBE746:
 2597              	.LBB747:
 2598              	.LBI740:
  43:../../DaisyExamples/DaisySP//Source/Utility/dsp.h **** {
 2599              		.loc 17 43 14 is_stmt 1 view .LVU617
 2600              	.LBB742:
  45:../../DaisyExamples/DaisySP//Source/Utility/dsp.h **** #ifdef __arm__
 2601              		.loc 17 45 5 view .LVU618
  47:../../DaisyExamples/DaisySP//Source/Utility/dsp.h **** #else
 2602              		.loc 17 47 5 view .LVU619
 2603              		.syntax unified
 2604              	@ 47 "../../DaisyExamples/DaisySP//Source/Utility/dsp.h" 1
 2605 0108 C7FEC57A 		vminnm.f32 s15, s15, s10
 2606              	@ 0 "" 2
 2607              	.LVL129:
  51:../../DaisyExamples/DaisySP//Source/Utility/dsp.h **** }
 2608              		.loc 17 51 5 view .LVU620
  51:../../DaisyExamples/DaisySP//Source/Utility/dsp.h **** }
 2609              		.loc 17 51 5 is_stmt 0 view .LVU621
 2610              		.thumb
 2611              		.syntax unified
 2612              	.LBE742:
 2613              	.LBE747:
 2614              	.LBE751:
 180:../../DaisyExamples/DaisySP//Source/Drums/hihat.h ****         if(noise_clock_ >= 1.0f)
 2615              		.loc 13 180 22 view .LVU622
 2616 010c 77EE867A 		vadd.f32	s15, s15, s12
 2617              	.LVL130:
 181:../../DaisyExamples/DaisySP//Source/Drums/hihat.h ****         {
 2618              		.loc 13 181 9 view .LVU623
ARM GAS  /var/folders/b5/3l92j93d5t1__l78tfntmwyr0000gn/T//ccOBeKL9.s 			page 81


 2619 0110 F4EEE67A 		vcmpe.f32	s15, s13
 180:../../DaisyExamples/DaisySP//Source/Drums/hihat.h ****         if(noise_clock_ >= 1.0f)
 2620              		.loc 13 180 22 view .LVU624
 2621 0114 C4ED087A 		vstr.32	s15, [r4, #32]
 181:../../DaisyExamples/DaisySP//Source/Drums/hihat.h ****         {
 2622              		.loc 13 181 9 view .LVU625
 2623 0118 F1EE10FA 		vmrs	APSR_nzcv, FPSCR
 2624 011c 60DA     		bge	.L75
 186:../../DaisyExamples/DaisySP//Source/Drums/hihat.h **** 
 2625              		.loc 13 186 30 view .LVU626
 2626 011e D4ED096A 		vldr.32	s13, [r4, #36]
 2627              	.L76:
 191:../../DaisyExamples/DaisySP//Source/Drums/hihat.h ****         out = vca(out, sustain_ ? sustain_gain_ : envelope_);
 2628              		.loc 13 191 39 view .LVU627
 2629 0122 B6EE005A 		vmov.f32	s10, #5.0e-1
 189:../../DaisyExamples/DaisySP//Source/Drums/hihat.h ****         VCA vca;
 2630              		.loc 13 189 33 view .LVU628
 2631 0126 94ED017A 		vldr.32	s14, [r4, #4]
 186:../../DaisyExamples/DaisySP//Source/Drums/hihat.h **** 
 2632              		.loc 13 186 44 view .LVU629
 2633 012a 36EEC86A 		vsub.f32	s12, s13, s16
 191:../../DaisyExamples/DaisySP//Source/Drums/hihat.h ****         out = vca(out, sustain_ ? sustain_gain_ : envelope_);
 2634              		.loc 13 191 19 view .LVU630
 2635 012e D4ED076A 		vldr.32	s13, [r4, #28]
 189:../../DaisyExamples/DaisySP//Source/Drums/hihat.h ****         VCA vca;
 2636              		.loc 13 189 33 view .LVU631
 2637 0132 D4ED047A 		vldr.32	s15, [r4, #16]
 191:../../DaisyExamples/DaisySP//Source/Drums/hihat.h ****         out = vca(out, sustain_ ? sustain_gain_ : envelope_);
 2638              		.loc 13 191 39 view .LVU632
 2639 0136 F4EEC56A 		vcmpe.f32	s13, s10
 189:../../DaisyExamples/DaisySP//Source/Drums/hihat.h ****         VCA vca;
 2640              		.loc 13 189 33 view .LVU633
 2641 013a 67EE277A 		vmul.f32	s15, s14, s15
 186:../../DaisyExamples/DaisySP//Source/Drums/hihat.h **** 
 2642              		.loc 13 186 13 view .LVU634
 2643 013e A6EE258A 		vfma.f32	s16, s12, s11
 2644              	.LVL131:
 191:../../DaisyExamples/DaisySP//Source/Drums/hihat.h ****         out = vca(out, sustain_ ? sustain_gain_ : envelope_);
 2645              		.loc 13 191 39 view .LVU635
 2646 0142 F1EE10FA 		vmrs	APSR_nzcv, FPSCR
 146:../../DaisyExamples/DaisySP//Source/Drums/hihat.h ****             = 1.0f - 0.003f * SemitonesToRatio(-decay_ * 84.0f);
 2647              		.loc 13 146 21 view .LVU636
 2648 0146 B7EE007A 		vmov.f32	s14, #1.0e+0
 189:../../DaisyExamples/DaisySP//Source/Drums/hihat.h ****         VCA vca;
 2649              		.loc 13 189 23 view .LVU637
 2650 014a C4ED0A7A 		vstr.32	s15, [r4, #40]
 191:../../DaisyExamples/DaisySP//Source/Drums/hihat.h ****         out = vca(out, sustain_ ? sustain_gain_ : envelope_);
 2651              		.loc 13 191 39 view .LVU638
 2652 014e 42DD     		ble	.L85
 146:../../DaisyExamples/DaisySP//Source/Drums/hihat.h ****             = 1.0f - 0.003f * SemitonesToRatio(-decay_ * 84.0f);
 2653              		.loc 13 146 21 view .LVU639
 2654 0150 9FED356A 		vldr.32	s12, .L87+28
 2655 0154 A9EEC67A 		vfms.f32	s14, s19, s12
 2656              	.L79:
 192:../../DaisyExamples/DaisySP//Source/Drums/hihat.h **** 
 2657              		.loc 13 192 18 discriminator 4 view .LVU640
 2658 0158 237E     		ldrb	r3, [r4, #24]	@ zero_extendqisi2
ARM GAS  /var/folders/b5/3l92j93d5t1__l78tfntmwyr0000gn/T//ccOBeKL9.s 			page 82


 191:../../DaisyExamples/DaisySP//Source/Drums/hihat.h ****         out = vca(out, sustain_ ? sustain_gain_ : envelope_);
 2659              		.loc 13 191 19 discriminator 4 view .LVU641
 2660 015a 26EE877A 		vmul.f32	s14, s13, s14
 194:../../DaisyExamples/DaisySP//Source/Drums/hihat.h ****         hpf_.SetRes(.5f);
 2661              		.loc 13 194 21 discriminator 4 view .LVU642
 2662 015e 2046     		mov	r0, r4
 2663 0160 94ED000A 		vldr.32	s0, [r4]
 192:../../DaisyExamples/DaisySP//Source/Drums/hihat.h **** 
 2664              		.loc 13 192 18 discriminator 4 view .LVU643
 2665 0164 002B     		cmp	r3, #0
 194:../../DaisyExamples/DaisySP//Source/Drums/hihat.h ****         hpf_.SetRes(.5f);
 2666              		.loc 13 194 21 discriminator 4 view .LVU644
 2667 0166 00F19000 		add	r0, r0, #144
 191:../../DaisyExamples/DaisySP//Source/Drums/hihat.h ****         out = vca(out, sustain_ ? sustain_gain_ : envelope_);
 2668              		.loc 13 191 19 discriminator 4 view .LVU645
 2669 016a 84ED077A 		vstr.32	s14, [r4, #28]
 192:../../DaisyExamples/DaisySP//Source/Drums/hihat.h **** 
 2670              		.loc 13 192 18 discriminator 4 view .LVU646
 2671 016e 47FE277A 		vseleq.f32	s15, s14, s15
 2672              	.LVL132:
 2673              	.LBB752:
 2674              	.LBI752:
  93:../../DaisyExamples/DaisySP//Source/Drums/hihat.h **** };
 2675              		.loc 13 93 11 is_stmt 1 discriminator 4 view .LVU647
 2676              	.LBB753:
  93:../../DaisyExamples/DaisySP//Source/Drums/hihat.h **** };
 2677              		.loc 13 93 45 discriminator 4 view .LVU648
  93:../../DaisyExamples/DaisySP//Source/Drums/hihat.h **** };
 2678              		.loc 13 93 56 is_stmt 0 discriminator 4 view .LVU649
 2679 0172 27EE888A 		vmul.f32	s16, s15, s16
 2680              	.LVL133:
  93:../../DaisyExamples/DaisySP//Source/Drums/hihat.h **** };
 2681              		.loc 13 93 56 discriminator 4 view .LVU650
 2682              	.LBE753:
 2683              	.LBE752:
 194:../../DaisyExamples/DaisySP//Source/Drums/hihat.h ****         hpf_.SetRes(.5f);
 2684              		.loc 13 194 21 discriminator 4 view .LVU651
 2685 0176 28EE800A 		vmul.f32	s0, s17, s0
 2686 017a 0190     		str	r0, [sp, #4]
 2687 017c FFF7FEFF 		bl	_ZN7daisysp3Svf7SetFreqEf
 2688              	.LVL134:
 195:../../DaisyExamples/DaisySP//Source/Drums/hihat.h ****         hpf_.Process(out);
 2689              		.loc 13 195 20 discriminator 4 view .LVU652
 2690 0180 0198     		ldr	r0, [sp, #4]
 2691 0182 B6EE000A 		vmov.f32	s0, #5.0e-1
 2692 0186 FFF7FEFF 		bl	_ZN7daisysp3Svf6SetResEf
 2693              	.LVL135:
 196:../../DaisyExamples/DaisySP//Source/Drums/hihat.h ****         out = hpf_.High();
 2694              		.loc 13 196 21 discriminator 4 view .LVU653
 2695 018a B0EE480A 		vmov.f32	s0, s16
 2696 018e 0198     		ldr	r0, [sp, #4]
 2697 0190 FFF7FEFF 		bl	_ZN7daisysp3Svf7ProcessEf
 2698              	.LVL136:
 2699              	.LBB754:
 2700              	.LBI754:
  56:../../DaisyExamples/DaisySP//Source/Filters/svf.h ****     /** bandpass output
 2701              		.loc 9 56 18 is_stmt 1 discriminator 4 view .LVU654
ARM GAS  /var/folders/b5/3l92j93d5t1__l78tfntmwyr0000gn/T//ccOBeKL9.s 			page 83


 2702              	.LBB755:
  56:../../DaisyExamples/DaisySP//Source/Filters/svf.h ****     /** bandpass output
 2703              		.loc 9 56 27 discriminator 4 view .LVU655
  56:../../DaisyExamples/DaisySP//Source/Filters/svf.h ****     /** bandpass output
 2704              		.loc 9 56 27 is_stmt 0 discriminator 4 view .LVU656
 2705              	.LBE755:
 2706              	.LBE754:
 200:../../DaisyExamples/DaisySP//Source/Drums/hihat.h **** 
 2707              		.loc 13 200 5 discriminator 4 view .LVU657
 2708 0194 94ED310A 		vldr.32	s0, [r4, #196]
 2709 0198 03B0     		add	sp, sp, #12
 2710              		.cfi_remember_state
 2711              		.cfi_def_cfa_offset 36
 2712              		@ sp needed
 2713 019a BDEC068B 		vldm	sp!, {d8-d10}
 2714              		.cfi_restore 84
 2715              		.cfi_restore 85
 2716              		.cfi_restore 82
 2717              		.cfi_restore 83
 2718              		.cfi_restore 80
 2719              		.cfi_restore 81
 2720              		.cfi_def_cfa_offset 12
 2721              	.LVL137:
 200:../../DaisyExamples/DaisySP//Source/Drums/hihat.h **** 
 2722              		.loc 13 200 5 discriminator 4 view .LVU658
 2723 019e 30BD     		pop	{r4, r5, pc}
 2724              	.LVL138:
 2725              	.L73:
 2726              		.cfi_restore_state
 156:../../DaisyExamples/DaisySP//Source/Drums/hihat.h ****         }
 2727              		.loc 13 156 40 view .LVU659
 2728 01a0 F7EE006A 		vmov.f32	s13, #1.0e+0
 2729 01a4 94ED047A 		vldr.32	s14, [r4, #16]
 156:../../DaisyExamples/DaisySP//Source/Drums/hihat.h ****         }
 2730              		.loc 13 156 25 view .LVU660
 2731 01a8 B6EE006A 		vmov.f32	s12, #5.0e-1
 156:../../DaisyExamples/DaisySP//Source/Drums/hihat.h ****         }
 2732              		.loc 13 156 59 view .LVU661
 2733 01ac 94ED015A 		vldr.32	s10, [r4, #4]
 156:../../DaisyExamples/DaisySP//Source/Drums/hihat.h ****         }
 2734              		.loc 13 156 25 view .LVU662
 2735 01b0 F7EE087A 		vmov.f32	s15, #1.5e+0
 156:../../DaisyExamples/DaisySP//Source/Drums/hihat.h ****         }
 2736              		.loc 13 156 59 view .LVU663
 2737 01b4 DFED1D5A 		vldr.32	s11, .L87+32
 156:../../DaisyExamples/DaisySP//Source/Drums/hihat.h ****         }
 2738              		.loc 13 156 40 view .LVU664
 2739 01b8 76EEC76A 		vsub.f32	s13, s13, s14
 156:../../DaisyExamples/DaisySP//Source/Drums/hihat.h ****         }
 2740              		.loc 13 156 59 view .LVU665
 2741 01bc 9FED1C7A 		vldr.32	s14, .L87+36
 153:../../DaisyExamples/DaisySP//Source/Drums/hihat.h **** 
 2742              		.loc 13 153 19 view .LVU666
 2743 01c0 0023     		movs	r3, #0
 156:../../DaisyExamples/DaisySP//Source/Drums/hihat.h ****         }
 2744              		.loc 13 156 59 view .LVU667
 2745 01c2 A5EE257A 		vfma.f32	s14, s10, s11
ARM GAS  /var/folders/b5/3l92j93d5t1__l78tfntmwyr0000gn/T//ccOBeKL9.s 			page 84


 156:../../DaisyExamples/DaisySP//Source/Drums/hihat.h ****         }
 2746              		.loc 13 156 25 view .LVU668
 2747 01c6 E6EE867A 		vfma.f32	s15, s13, s12
 153:../../DaisyExamples/DaisySP//Source/Drums/hihat.h **** 
 2748              		.loc 13 153 19 view .LVU669
 2749 01ca 6376     		strb	r3, [r4, #25]
 156:../../DaisyExamples/DaisySP//Source/Drums/hihat.h ****         }
 2750              		.loc 13 156 51 view .LVU670
 2751 01cc 67EE877A 		vmul.f32	s15, s15, s14
 156:../../DaisyExamples/DaisySP//Source/Drums/hihat.h ****         }
 2752              		.loc 13 156 17 view .LVU671
 2753 01d0 C4ED077A 		vstr.32	s15, [r4, #28]
 2754 01d4 3FE7     		b	.L74
 2755              	.LVL139:
 2756              	.L85:
 148:../../DaisyExamples/DaisySP//Source/Drums/hihat.h ****             = 1.0f - 0.0025f * SemitonesToRatio(-decay_ * 36.0f);
 2757              		.loc 13 148 21 view .LVU672
 2758 01d6 9FED176A 		vldr.32	s12, .L87+40
 2759 01da A9EE467A 		vfms.f32	s14, s18, s12
 2760 01de BBE7     		b	.L79
 2761              	.L75:
 183:../../DaisyExamples/DaisySP//Source/Drums/hihat.h ****             noise_sample_ = rand() * kRandFrac - 0.5f;
 2762              		.loc 13 183 26 view .LVU673
 2763 01e0 77EEE67A 		vsub.f32	s15, s15, s13
 2764 01e4 C4ED087A 		vstr.32	s15, [r4, #32]
 184:../../DaisyExamples/DaisySP//Source/Drums/hihat.h ****         }
 2765              		.loc 13 184 33 view .LVU674
 2766 01e8 FFF7FEFF 		bl	rand
 2767              	.LVL140:
 184:../../DaisyExamples/DaisySP//Source/Drums/hihat.h ****         }
 2768              		.loc 13 184 36 view .LVU675
 2769 01ec 07EE900A 		vmov	s15, r0	@ int
 184:../../DaisyExamples/DaisySP//Source/Drums/hihat.h ****         }
 2770              		.loc 13 184 48 view .LVU676
 2771 01f0 FEEE006A 		vmov.f32	s13, #-5.0e-1
 2772 01f4 9FED107A 		vldr.32	s14, .L87+44
 184:../../DaisyExamples/DaisySP//Source/Drums/hihat.h ****         }
 2773              		.loc 13 184 36 view .LVU677
 2774 01f8 F8EEE77A 		vcvt.f32.s32	s15, s15
 186:../../DaisyExamples/DaisySP//Source/Drums/hihat.h **** 
 2775              		.loc 13 186 16 view .LVU678
 2776 01fc D4ED055A 		vldr.32	s11, [r4, #20]
 184:../../DaisyExamples/DaisySP//Source/Drums/hihat.h ****         }
 2777              		.loc 13 184 48 view .LVU679
 2778 0200 E7EE876A 		vfma.f32	s13, s15, s14
 184:../../DaisyExamples/DaisySP//Source/Drums/hihat.h ****         }
 2779              		.loc 13 184 27 view .LVU680
 2780 0204 C4ED096A 		vstr.32	s13, [r4, #36]
 2781 0208 8BE7     		b	.L76
 2782              	.L88:
 2783 020a 00BF     		.align	2
 2784              	.L87:
 2785 020c 0000A842 		.word	1118306304
 2786 0210 ABAAAA3D 		.word	1034594987
 2787 0214 00001042 		.word	1108344832
 2788 0218 00000000 		.word	0
 2789 021c 00001643 		.word	1125515264
ARM GAS  /var/folders/b5/3l92j93d5t1__l78tfntmwyr0000gn/T//ccOBeKL9.s 			page 85


 2790 0220 00009042 		.word	1116733440
 2791 0224 00007A46 		.word	1182400512
 2792 0228 A69B443B 		.word	994352038
 2793 022c 3333333F 		.word	1060320051
 2794 0230 9A99993E 		.word	1050253722
 2795 0234 0AD7233B 		.word	992204554
 2796 0238 00000030 		.word	805306368
 2797              		.cfi_endproc
 2798              	.LFE5155:
 2800              		.section	.text._Z9sequencerRfS_,"ax",%progbits
 2801              		.align	1
 2802              		.p2align 2,,3
 2803              		.global	_Z9sequencerRfS_
 2804              		.syntax unified
 2805              		.thumb
 2806              		.thumb_func
 2808              	_Z9sequencerRfS_:
 2809              	.LVL141:
 2810              	.LFB4830:
 132:MachineDaisyFile.cpp **** 	
 2811              		.loc 15 132 1 is_stmt 1 view -0
 2812              		.cfi_startproc
 2813              		@ args = 0, pretend = 0, frame = 0
 2814              		@ frame_needed = 0, uses_anonymous_args = 0
 134:MachineDaisyFile.cpp **** 	bool t = tick.Process();
 2815              		.loc 15 134 2 view .LVU682
 2816              	.LBB764:
 2817              	.LBI764:
 121:MachineDaisyFile.cpp **** {
 2818              		.loc 15 121 6 view .LVU683
 2819              	.LBB765:
 123:MachineDaisyFile.cpp **** 	if (selector.RisingEdge())
 2820              		.loc 15 123 2 view .LVU684
 2821              	.LBE765:
 2822              	.LBE764:
 132:MachineDaisyFile.cpp **** 	
 2823              		.loc 15 132 1 is_stmt 0 view .LVU685
 2824 0000 2DE9F84F 		push	{r3, r4, r5, r6, r7, r8, r9, r10, fp, lr}
 2825              		.cfi_def_cfa_offset 40
 2826              		.cfi_offset 3, -40
 2827              		.cfi_offset 4, -36
 2828              		.cfi_offset 5, -32
 2829              		.cfi_offset 6, -28
 2830              		.cfi_offset 7, -24
 2831              		.cfi_offset 8, -20
 2832              		.cfi_offset 9, -16
 2833              		.cfi_offset 10, -12
 2834              		.cfi_offset 11, -8
 2835              		.cfi_offset 14, -4
 2836              	.LBB774:
 2837              	.LBB770:
 123:MachineDaisyFile.cpp **** 	if (selector.RisingEdge())
 2838              		.loc 15 123 19 view .LVU686
 2839 0004 824C     		ldr	r4, .L166
 2840              	.LBE770:
 2841              	.LBE774:
 132:MachineDaisyFile.cpp **** 	
ARM GAS  /var/folders/b5/3l92j93d5t1__l78tfntmwyr0000gn/T//ccOBeKL9.s 			page 86


 2842              		.loc 15 132 1 view .LVU687
 2843 0006 8046     		mov	r8, r0
 2844 0008 8946     		mov	r9, r1
 2845              	.LBB775:
 2846              	.LBB771:
 123:MachineDaisyFile.cpp **** 	if (selector.RisingEdge())
 2847              		.loc 15 123 19 view .LVU688
 2848 000a 2046     		mov	r0, r4
 2849              	.LVL142:
 123:MachineDaisyFile.cpp **** 	if (selector.RisingEdge())
 2850              		.loc 15 123 19 view .LVU689
 2851              	.LBE771:
 2852              	.LBE775:
 132:MachineDaisyFile.cpp **** 	
 2853              		.loc 15 132 1 view .LVU690
 2854 000c 2DED028B 		vpush.64	{d8}
 2855              		.cfi_def_cfa_offset 48
 2856              		.cfi_offset 80, -48
 2857              		.cfi_offset 81, -44
 2858              	.LBB776:
 2859              	.LBB772:
 123:MachineDaisyFile.cpp **** 	if (selector.RisingEdge())
 2860              		.loc 15 123 19 view .LVU691
 2861 0010 FFF7FEFF 		bl	_ZN5daisy6Switch8DebounceEv
 2862              	.LVL143:
 124:MachineDaisyFile.cpp **** 	{
 2863              		.loc 15 124 2 is_stmt 1 view .LVU692
 2864              	.LBB766:
 2865              	.LBI766:
 2866              		.loc 2 70 17 view .LVU693
 2867              	.LBB767:
 2868              		.loc 2 70 38 view .LVU694
 2869              		.loc 2 70 54 is_stmt 0 view .LVU695
 2870 0014 2379     		ldrb	r3, [r4, #4]	@ zero_extendqisi2
 2871 0016 1BB1     		cbz	r3, .L90
 2872              	.LVL144:
 2873              		.loc 2 70 54 view .LVU696
 2874              	.LBE767:
 2875              	.LBE766:
 124:MachineDaisyFile.cpp **** 	{
 2876              		.loc 15 124 2 view .LVU697
 2877 0018 A37A     		ldrb	r3, [r4, #10]	@ zero_extendqisi2
 2878 001a 7F2B     		cmp	r3, #127
 2879 001c 00F0D880 		beq	.L164
 2880              	.L90:
 2881              	.LBE772:
 2882              	.LBE776:
 135:MachineDaisyFile.cpp **** 	outL = kick.Process(kicks[step]&&t) + snare.Process(snares[step]&&t) + hat.Process(snares[step]&&t
 2883              		.loc 15 135 2 is_stmt 1 view .LVU698
 136:MachineDaisyFile.cpp **** 	outR = kick.Process(kicks[step]&&t) + snare.Process(snares[step]&&t) + hat.Process(snares[step]&&t
 2884              		.loc 15 136 32 is_stmt 0 view .LVU699
 2885 0020 7C4C     		ldr	r4, .L166+4
 135:MachineDaisyFile.cpp **** 	outL = kick.Process(kicks[step]&&t) + snare.Process(snares[step]&&t) + hat.Process(snares[step]&&t
 2886              		.loc 15 135 23 view .LVU700
 2887 0022 7D48     		ldr	r0, .L166+8
 2888 0024 FFF7FEFF 		bl	_ZN7daisysp5Metro7ProcessEv
 2889              	.LVL145:
ARM GAS  /var/folders/b5/3l92j93d5t1__l78tfntmwyr0000gn/T//ccOBeKL9.s 			page 87


 136:MachineDaisyFile.cpp **** 	outR = kick.Process(kicks[step]&&t) + snare.Process(snares[step]&&t) + hat.Process(snares[step]&&t
 2890              		.loc 15 136 2 is_stmt 1 view .LVU701
 136:MachineDaisyFile.cpp **** 	outR = kick.Process(kicks[step]&&t) + snare.Process(snares[step]&&t) + hat.Process(snares[step]&&t
 2891              		.loc 15 136 32 is_stmt 0 view .LVU702
 2892 0028 DFF808B2 		ldr	fp, .L166+36
 2893 002c 2368     		ldr	r3, [r4]
 136:MachineDaisyFile.cpp **** 	outR = kick.Process(kicks[step]&&t) + snare.Process(snares[step]&&t) + hat.Process(snares[step]&&t
 2894              		.loc 15 136 21 view .LVU703
 2895 002e 071E     		subs	r7, r0, #0
 2896 0030 0646     		mov	r6, r0
 2897 0032 1BF80330 		ldrb	r3, [fp, r3]	@ zero_extendqisi2
 2898 0036 18BF     		it	ne
 2899 0038 0127     		movne	r7, #1
 2900 003a 0BB1     		cbz	r3, .L113
 2901 003c 002F     		cmp	r7, #0
 2902 003e 63D1     		bne	.L91
 2903              	.L113:
 136:MachineDaisyFile.cpp **** 	outR = kick.Process(kicks[step]&&t) + snare.Process(snares[step]&&t) + hat.Process(snares[step]&&t
 2904              		.loc 15 136 21 discriminator 6 view .LVU704
 2905 0040 0021     		movs	r1, #0
 2906 0042 7648     		ldr	r0, .L166+12
 2907              	.LVL146:
 136:MachineDaisyFile.cpp **** 	outR = kick.Process(kicks[step]&&t) + snare.Process(snares[step]&&t) + hat.Process(snares[step]&&t
 2908              		.loc 15 136 21 discriminator 6 view .LVU705
 2909 0044 FFF7FEFF 		bl	_ZN7daisysp14AnalogBassDrum7ProcessEb
 2910              	.LVL147:
 136:MachineDaisyFile.cpp **** 	outR = kick.Process(kicks[step]&&t) + snare.Process(snares[step]&&t) + hat.Process(snares[step]&&t
 2911              		.loc 15 136 65 discriminator 6 view .LVU706
 2912 0048 754D     		ldr	r5, .L166+16
 2913 004a 2368     		ldr	r3, [r4]
 136:MachineDaisyFile.cpp **** 	outR = kick.Process(kicks[step]&&t) + snare.Process(snares[step]&&t) + hat.Process(snares[step]&&t
 2914              		.loc 15 136 21 discriminator 6 view .LVU707
 2915 004c F0EE408A 		vmov.f32	s17, s0
 136:MachineDaisyFile.cpp **** 	outR = kick.Process(kicks[step]&&t) + snare.Process(snares[step]&&t) + hat.Process(snares[step]&&t
 2916              		.loc 15 136 53 discriminator 6 view .LVU708
 2917 0050 EB5C     		ldrb	r3, [r5, r3]	@ zero_extendqisi2
 2918 0052 0BB1     		cbz	r3, .L93
 2919 0054 002F     		cmp	r7, #0
 2920 0056 62D1     		bne	.L111
 2921              	.L93:
 136:MachineDaisyFile.cpp **** 	outR = kick.Process(kicks[step]&&t) + snare.Process(snares[step]&&t) + hat.Process(snares[step]&&t
 2922              		.loc 15 136 53 discriminator 10 view .LVU709
 2923 0058 0021     		movs	r1, #0
 2924 005a 7248     		ldr	r0, .L166+20
 2925 005c FFF7FEFF 		bl	_ZN7daisysp15AnalogSnareDrum7ProcessEb
 2926              	.LVL148:
 136:MachineDaisyFile.cpp **** 	outR = kick.Process(kicks[step]&&t) + snare.Process(snares[step]&&t) + hat.Process(snares[step]&&t
 2927              		.loc 15 136 96 discriminator 10 view .LVU710
 2928 0060 2368     		ldr	r3, [r4]
 136:MachineDaisyFile.cpp **** 	outR = kick.Process(kicks[step]&&t) + snare.Process(snares[step]&&t) + hat.Process(snares[step]&&t
 2929              		.loc 15 136 38 discriminator 10 view .LVU711
 2930 0062 70EE288A 		vadd.f32	s17, s0, s17
 136:MachineDaisyFile.cpp **** 	outR = kick.Process(kicks[step]&&t) + snare.Process(snares[step]&&t) + hat.Process(snares[step]&&t
 2931              		.loc 15 136 84 discriminator 10 view .LVU712
 2932 0066 EB5C     		ldrb	r3, [r5, r3]	@ zero_extendqisi2
 2933 0068 0BB1     		cbz	r3, .L95
 2934 006a 002F     		cmp	r7, #0
ARM GAS  /var/folders/b5/3l92j93d5t1__l78tfntmwyr0000gn/T//ccOBeKL9.s 			page 88


 2935 006c 61D1     		bne	.L94
 2936              	.L95:
 136:MachineDaisyFile.cpp **** 	outR = kick.Process(kicks[step]&&t) + snare.Process(snares[step]&&t) + hat.Process(snares[step]&&t
 2937              		.loc 15 136 84 discriminator 16 view .LVU713
 2938 006e 0021     		movs	r1, #0
 2939 0070 6D48     		ldr	r0, .L166+24
 2940 0072 FFF7FEFF 		bl	_ZN7daisysp5HiHatINS_11SquareNoiseENS_9LinearVCAELb1EE7ProcessEb
 2941              	.LVL149:
 136:MachineDaisyFile.cpp **** 	outR = kick.Process(kicks[step]&&t) + snare.Process(snares[step]&&t) + hat.Process(snares[step]&&t
 2942              		.loc 15 136 133 discriminator 16 view .LVU714
 2943 0076 DFF8C0A1 		ldr	r10, .L166+40
 2944 007a 2368     		ldr	r3, [r4]
 136:MachineDaisyFile.cpp **** 	outR = kick.Process(kicks[step]&&t) + snare.Process(snares[step]&&t) + hat.Process(snares[step]&&t
 2945              		.loc 15 136 71 discriminator 16 view .LVU715
 2946 007c 70EE288A 		vadd.f32	s17, s0, s17
 136:MachineDaisyFile.cpp **** 	outR = kick.Process(kicks[step]&&t) + snare.Process(snares[step]&&t) + hat.Process(snares[step]&&t
 2947              		.loc 15 136 121 discriminator 16 view .LVU716
 2948 0080 1AF80330 		ldrb	r3, [r10, r3]	@ zero_extendqisi2
 2949 0084 0BB1     		cbz	r3, .L97
 2950 0086 002F     		cmp	r7, #0
 2951 0088 60D1     		bne	.L96
 2952              	.L97:
 136:MachineDaisyFile.cpp **** 	outR = kick.Process(kicks[step]&&t) + snare.Process(snares[step]&&t) + hat.Process(snares[step]&&t
 2953              		.loc 15 136 121 discriminator 22 view .LVU717
 2954 008a 0021     		movs	r1, #0
 2955 008c 6748     		ldr	r0, .L166+28
 2956 008e FFF7FEFF 		bl	_ZN7daisysp17SyntheticBassDrum7ProcessEb
 2957              	.LVL150:
 137:MachineDaisyFile.cpp **** 	if (t)
 2958              		.loc 15 137 32 discriminator 22 view .LVU718
 2959 0092 2368     		ldr	r3, [r4]
 136:MachineDaisyFile.cpp **** 	outR = kick.Process(kicks[step]&&t) + snare.Process(snares[step]&&t) + hat.Process(snares[step]&&t
 2960              		.loc 15 136 102 discriminator 22 view .LVU719
 2961 0094 30EE280A 		vadd.f32	s0, s0, s17
 137:MachineDaisyFile.cpp **** 	if (t)
 2962              		.loc 15 137 21 discriminator 22 view .LVU720
 2963 0098 1BF80330 		ldrb	r3, [fp, r3]	@ zero_extendqisi2
 136:MachineDaisyFile.cpp **** 	outR = kick.Process(kicks[step]&&t) + snare.Process(snares[step]&&t) + hat.Process(snares[step]&&t
 2964              		.loc 15 136 7 discriminator 22 view .LVU721
 2965 009c 88ED000A 		vstr.32	s0, [r8]
 137:MachineDaisyFile.cpp **** 	if (t)
 2966              		.loc 15 137 2 is_stmt 1 discriminator 22 view .LVU722
 137:MachineDaisyFile.cpp **** 	if (t)
 2967              		.loc 15 137 21 is_stmt 0 discriminator 22 view .LVU723
 2968 00a0 0BB1     		cbz	r3, .L98
 2969 00a2 002F     		cmp	r7, #0
 2970 00a4 5FD1     		bne	.L101
 2971              	.L98:
 137:MachineDaisyFile.cpp **** 	if (t)
 2972              		.loc 15 137 21 view .LVU724
 2973 00a6 0021     		movs	r1, #0
 2974 00a8 5C48     		ldr	r0, .L166+12
 2975 00aa FFF7FEFF 		bl	_ZN7daisysp14AnalogBassDrum7ProcessEb
 2976              	.LVL151:
 137:MachineDaisyFile.cpp **** 	if (t)
 2977              		.loc 15 137 65 view .LVU725
 2978 00ae 2368     		ldr	r3, [r4]
ARM GAS  /var/folders/b5/3l92j93d5t1__l78tfntmwyr0000gn/T//ccOBeKL9.s 			page 89


 137:MachineDaisyFile.cpp **** 	if (t)
 2979              		.loc 15 137 21 view .LVU726
 2980 00b0 B0EE408A 		vmov.f32	s16, s0
 137:MachineDaisyFile.cpp **** 	if (t)
 2981              		.loc 15 137 53 view .LVU727
 2982 00b4 EB5C     		ldrb	r3, [r5, r3]	@ zero_extendqisi2
 2983 00b6 0BB1     		cbz	r3, .L100
 2984 00b8 002F     		cmp	r7, #0
 2985 00ba 5ED1     		bne	.L99
 2986              	.L100:
 137:MachineDaisyFile.cpp **** 	if (t)
 2987              		.loc 15 137 53 discriminator 10 view .LVU728
 2988 00bc 0021     		movs	r1, #0
 2989 00be 5948     		ldr	r0, .L166+20
 2990 00c0 FFF7FEFF 		bl	_ZN7daisysp15AnalogSnareDrum7ProcessEb
 2991              	.LVL152:
 137:MachineDaisyFile.cpp **** 	if (t)
 2992              		.loc 15 137 96 discriminator 10 view .LVU729
 2993 00c4 2368     		ldr	r3, [r4]
 137:MachineDaisyFile.cpp **** 	if (t)
 2994              		.loc 15 137 38 discriminator 10 view .LVU730
 2995 00c6 30EE088A 		vadd.f32	s16, s0, s16
 137:MachineDaisyFile.cpp **** 	if (t)
 2996              		.loc 15 137 84 discriminator 10 view .LVU731
 2997 00ca EB5C     		ldrb	r3, [r5, r3]	@ zero_extendqisi2
 2998 00cc 13B1     		cbz	r3, .L104
 2999 00ce 002F     		cmp	r7, #0
 3000 00d0 40F08A80 		bne	.L165
 3001              	.L104:
 137:MachineDaisyFile.cpp **** 	if (t)
 3002              		.loc 15 137 84 discriminator 16 view .LVU732
 3003 00d4 0021     		movs	r1, #0
 3004 00d6 5448     		ldr	r0, .L166+24
 3005 00d8 FFF7FEFF 		bl	_ZN7daisysp5HiHatINS_11SquareNoiseENS_9LinearVCAELb1EE7ProcessEb
 3006              	.LVL153:
 137:MachineDaisyFile.cpp **** 	if (t)
 3007              		.loc 15 137 133 discriminator 16 view .LVU733
 3008 00dc 2368     		ldr	r3, [r4]
 137:MachineDaisyFile.cpp **** 	if (t)
 3009              		.loc 15 137 71 discriminator 16 view .LVU734
 3010 00de 30EE088A 		vadd.f32	s16, s0, s16
 137:MachineDaisyFile.cpp **** 	if (t)
 3011              		.loc 15 137 121 discriminator 16 view .LVU735
 3012 00e2 1AF80330 		ldrb	r3, [r10, r3]	@ zero_extendqisi2
 3013 00e6 0BB1     		cbz	r3, .L108
 3014 00e8 002F     		cmp	r7, #0
 3015 00ea 5BD1     		bne	.L107
 3016              	.L108:
 137:MachineDaisyFile.cpp **** 	if (t)
 3017              		.loc 15 137 121 discriminator 22 view .LVU736
 3018 00ec 0021     		movs	r1, #0
 3019 00ee 4F48     		ldr	r0, .L166+28
 3020 00f0 FFF7FEFF 		bl	_ZN7daisysp17SyntheticBassDrum7ProcessEb
 3021              	.LVL154:
 137:MachineDaisyFile.cpp **** 	if (t)
 3022              		.loc 15 137 102 discriminator 22 view .LVU737
 3023 00f4 30EE080A 		vadd.f32	s0, s0, s16
ARM GAS  /var/folders/b5/3l92j93d5t1__l78tfntmwyr0000gn/T//ccOBeKL9.s 			page 90


 137:MachineDaisyFile.cpp **** 	if (t)
 3024              		.loc 15 137 7 discriminator 22 view .LVU738
 3025 00f8 89ED000A 		vstr.32	s0, [r9]
 138:MachineDaisyFile.cpp **** 	{
 3026              		.loc 15 138 2 is_stmt 1 discriminator 22 view .LVU739
 3027 00fc 002E     		cmp	r6, #0
 3028 00fe 59D1     		bne	.L109
 153:MachineDaisyFile.cpp **** //====================================================================================
 3029              		.loc 15 153 1 is_stmt 0 view .LVU740
 3030 0100 BDEC028B 		vldm	sp!, {d8}
 3031              		.cfi_remember_state
 3032              		.cfi_restore 80
 3033              		.cfi_restore 81
 3034              		.cfi_def_cfa_offset 40
 3035 0104 BDE8F88F 		pop	{r3, r4, r5, r6, r7, r8, r9, r10, fp, pc}
 3036              	.LVL155:
 3037              	.L91:
 3038              		.cfi_restore_state
 136:MachineDaisyFile.cpp **** 	outR = kick.Process(kicks[step]&&t) + snare.Process(snares[step]&&t) + hat.Process(snares[step]&&t
 3039              		.loc 15 136 21 view .LVU741
 3040 0108 0121     		movs	r1, #1
 3041 010a 4448     		ldr	r0, .L166+12
 3042              	.LVL156:
 136:MachineDaisyFile.cpp **** 	outR = kick.Process(kicks[step]&&t) + snare.Process(snares[step]&&t) + hat.Process(snares[step]&&t
 3043              		.loc 15 136 21 view .LVU742
 3044 010c FFF7FEFF 		bl	_ZN7daisysp14AnalogBassDrum7ProcessEb
 3045              	.LVL157:
 136:MachineDaisyFile.cpp **** 	outR = kick.Process(kicks[step]&&t) + snare.Process(snares[step]&&t) + hat.Process(snares[step]&&t
 3046              		.loc 15 136 65 view .LVU743
 3047 0110 434D     		ldr	r5, .L166+16
 3048 0112 2368     		ldr	r3, [r4]
 136:MachineDaisyFile.cpp **** 	outR = kick.Process(kicks[step]&&t) + snare.Process(snares[step]&&t) + hat.Process(snares[step]&&t
 3049              		.loc 15 136 21 view .LVU744
 3050 0114 F0EE408A 		vmov.f32	s17, s0
 136:MachineDaisyFile.cpp **** 	outR = kick.Process(kicks[step]&&t) + snare.Process(snares[step]&&t) + hat.Process(snares[step]&&t
 3051              		.loc 15 136 53 view .LVU745
 3052 0118 EB5C     		ldrb	r3, [r5, r3]	@ zero_extendqisi2
 3053 011a 002B     		cmp	r3, #0
 3054 011c 9CD0     		beq	.L93
 3055              	.L111:
 3056 011e 0121     		movs	r1, #1
 3057 0120 4048     		ldr	r0, .L166+20
 3058 0122 FFF7FEFF 		bl	_ZN7daisysp15AnalogSnareDrum7ProcessEb
 3059              	.LVL158:
 136:MachineDaisyFile.cpp **** 	outR = kick.Process(kicks[step]&&t) + snare.Process(snares[step]&&t) + hat.Process(snares[step]&&t
 3060              		.loc 15 136 96 view .LVU746
 3061 0126 2368     		ldr	r3, [r4]
 136:MachineDaisyFile.cpp **** 	outR = kick.Process(kicks[step]&&t) + snare.Process(snares[step]&&t) + hat.Process(snares[step]&&t
 3062              		.loc 15 136 38 view .LVU747
 3063 0128 70EE288A 		vadd.f32	s17, s0, s17
 136:MachineDaisyFile.cpp **** 	outR = kick.Process(kicks[step]&&t) + snare.Process(snares[step]&&t) + hat.Process(snares[step]&&t
 3064              		.loc 15 136 84 view .LVU748
 3065 012c EB5C     		ldrb	r3, [r5, r3]	@ zero_extendqisi2
 3066 012e 002B     		cmp	r3, #0
 3067 0130 9DD0     		beq	.L95
 3068              	.L94:
 3069 0132 0121     		movs	r1, #1
ARM GAS  /var/folders/b5/3l92j93d5t1__l78tfntmwyr0000gn/T//ccOBeKL9.s 			page 91


 3070 0134 3C48     		ldr	r0, .L166+24
 3071 0136 FFF7FEFF 		bl	_ZN7daisysp5HiHatINS_11SquareNoiseENS_9LinearVCAELb1EE7ProcessEb
 3072              	.LVL159:
 136:MachineDaisyFile.cpp **** 	outR = kick.Process(kicks[step]&&t) + snare.Process(snares[step]&&t) + hat.Process(snares[step]&&t
 3073              		.loc 15 136 133 view .LVU749
 3074 013a DFF8FCA0 		ldr	r10, .L166+40
 3075 013e 2368     		ldr	r3, [r4]
 136:MachineDaisyFile.cpp **** 	outR = kick.Process(kicks[step]&&t) + snare.Process(snares[step]&&t) + hat.Process(snares[step]&&t
 3076              		.loc 15 136 71 view .LVU750
 3077 0140 70EE288A 		vadd.f32	s17, s0, s17
 136:MachineDaisyFile.cpp **** 	outR = kick.Process(kicks[step]&&t) + snare.Process(snares[step]&&t) + hat.Process(snares[step]&&t
 3078              		.loc 15 136 121 view .LVU751
 3079 0144 1AF80330 		ldrb	r3, [r10, r3]	@ zero_extendqisi2
 3080 0148 002B     		cmp	r3, #0
 3081 014a 9ED0     		beq	.L97
 3082              	.L96:
 3083 014c 0121     		movs	r1, #1
 3084 014e 3748     		ldr	r0, .L166+28
 3085 0150 FFF7FEFF 		bl	_ZN7daisysp17SyntheticBassDrum7ProcessEb
 3086              	.LVL160:
 137:MachineDaisyFile.cpp **** 	if (t)
 3087              		.loc 15 137 32 view .LVU752
 3088 0154 2368     		ldr	r3, [r4]
 136:MachineDaisyFile.cpp **** 	outR = kick.Process(kicks[step]&&t) + snare.Process(snares[step]&&t) + hat.Process(snares[step]&&t
 3089              		.loc 15 136 102 view .LVU753
 3090 0156 30EE280A 		vadd.f32	s0, s0, s17
 137:MachineDaisyFile.cpp **** 	if (t)
 3091              		.loc 15 137 21 view .LVU754
 3092 015a 1BF80330 		ldrb	r3, [fp, r3]	@ zero_extendqisi2
 136:MachineDaisyFile.cpp **** 	outR = kick.Process(kicks[step]&&t) + snare.Process(snares[step]&&t) + hat.Process(snares[step]&&t
 3093              		.loc 15 136 7 view .LVU755
 3094 015e 88ED000A 		vstr.32	s0, [r8]
 137:MachineDaisyFile.cpp **** 	if (t)
 3095              		.loc 15 137 2 is_stmt 1 view .LVU756
 137:MachineDaisyFile.cpp **** 	if (t)
 3096              		.loc 15 137 21 is_stmt 0 view .LVU757
 3097 0162 002B     		cmp	r3, #0
 3098 0164 9FD0     		beq	.L98
 3099              	.L101:
 137:MachineDaisyFile.cpp **** 	if (t)
 3100              		.loc 15 137 21 view .LVU758
 3101 0166 0121     		movs	r1, #1
 3102 0168 2C48     		ldr	r0, .L166+12
 3103 016a FFF7FEFF 		bl	_ZN7daisysp14AnalogBassDrum7ProcessEb
 3104              	.LVL161:
 137:MachineDaisyFile.cpp **** 	if (t)
 3105              		.loc 15 137 65 view .LVU759
 3106 016e 2368     		ldr	r3, [r4]
 137:MachineDaisyFile.cpp **** 	if (t)
 3107              		.loc 15 137 21 view .LVU760
 3108 0170 B0EE408A 		vmov.f32	s16, s0
 137:MachineDaisyFile.cpp **** 	if (t)
 3109              		.loc 15 137 53 view .LVU761
 3110 0174 EB5C     		ldrb	r3, [r5, r3]	@ zero_extendqisi2
 3111 0176 002B     		cmp	r3, #0
 3112 0178 A0D0     		beq	.L100
 3113              	.L99:
ARM GAS  /var/folders/b5/3l92j93d5t1__l78tfntmwyr0000gn/T//ccOBeKL9.s 			page 92


 3114 017a 0121     		movs	r1, #1
 3115 017c 2948     		ldr	r0, .L166+20
 3116 017e FFF7FEFF 		bl	_ZN7daisysp15AnalogSnareDrum7ProcessEb
 3117              	.LVL162:
 137:MachineDaisyFile.cpp **** 	if (t)
 3118              		.loc 15 137 96 view .LVU762
 3119 0182 2368     		ldr	r3, [r4]
 137:MachineDaisyFile.cpp **** 	if (t)
 3120              		.loc 15 137 38 view .LVU763
 3121 0184 30EE088A 		vadd.f32	s16, s0, s16
 137:MachineDaisyFile.cpp **** 	if (t)
 3122              		.loc 15 137 84 view .LVU764
 3123 0188 EB5C     		ldrb	r3, [r5, r3]	@ zero_extendqisi2
 3124 018a 002B     		cmp	r3, #0
 3125 018c A2D0     		beq	.L104
 3126 018e 0121     		movs	r1, #1
 3127 0190 2548     		ldr	r0, .L166+24
 3128 0192 FFF7FEFF 		bl	_ZN7daisysp5HiHatINS_11SquareNoiseENS_9LinearVCAELb1EE7ProcessEb
 3129              	.LVL163:
 137:MachineDaisyFile.cpp **** 	if (t)
 3130              		.loc 15 137 133 view .LVU765
 3131 0196 2368     		ldr	r3, [r4]
 137:MachineDaisyFile.cpp **** 	if (t)
 3132              		.loc 15 137 71 view .LVU766
 3133 0198 30EE088A 		vadd.f32	s16, s0, s16
 137:MachineDaisyFile.cpp **** 	if (t)
 3134              		.loc 15 137 121 view .LVU767
 3135 019c 1AF80330 		ldrb	r3, [r10, r3]	@ zero_extendqisi2
 3136 01a0 002B     		cmp	r3, #0
 3137 01a2 A3D0     		beq	.L108
 3138              	.L107:
 3139 01a4 0121     		movs	r1, #1
 3140 01a6 2148     		ldr	r0, .L166+28
 3141 01a8 FFF7FEFF 		bl	_ZN7daisysp17SyntheticBassDrum7ProcessEb
 3142              	.LVL164:
 137:MachineDaisyFile.cpp **** 	if (t)
 3143              		.loc 15 137 102 view .LVU768
 3144 01ac 30EE080A 		vadd.f32	s0, s0, s16
 137:MachineDaisyFile.cpp **** 	if (t)
 3145              		.loc 15 137 7 view .LVU769
 3146 01b0 89ED000A 		vstr.32	s0, [r9]
 138:MachineDaisyFile.cpp **** 	{
 3147              		.loc 15 138 2 is_stmt 1 view .LVU770
 3148              	.L109:
 140:MachineDaisyFile.cpp **** 		step = step % NUM_STEPS;
 3149              		.loc 15 140 3 view .LVU771
 141:MachineDaisyFile.cpp **** 	}
 3150              		.loc 15 141 3 view .LVU772
 140:MachineDaisyFile.cpp **** 		step = step % NUM_STEPS;
 3151              		.loc 15 140 7 is_stmt 0 view .LVU773
 3152 01b4 2368     		ldr	r3, [r4]
 3153 01b6 0133     		adds	r3, r3, #1
 141:MachineDaisyFile.cpp **** 	}
 3154              		.loc 15 141 15 view .LVU774
 3155 01b8 5A42     		rsbs	r2, r3, #0
 3156 01ba 03F00303 		and	r3, r3, #3
 3157 01be 02F00302 		and	r2, r2, #3
ARM GAS  /var/folders/b5/3l92j93d5t1__l78tfntmwyr0000gn/T//ccOBeKL9.s 			page 93


 153:MachineDaisyFile.cpp **** //====================================================================================
 3158              		.loc 15 153 1 view .LVU775
 3159 01c2 BDEC028B 		vldm	sp!, {d8}
 3160              		.cfi_remember_state
 3161              		.cfi_restore 80
 3162              		.cfi_restore 81
 3163              		.cfi_def_cfa_offset 40
 141:MachineDaisyFile.cpp **** 	}
 3164              		.loc 15 141 15 view .LVU776
 3165 01c6 58BF     		it	pl
 3166 01c8 5342     		rsbpl	r3, r2, #0
 141:MachineDaisyFile.cpp **** 	}
 3167              		.loc 15 141 8 view .LVU777
 3168 01ca 2360     		str	r3, [r4]
 153:MachineDaisyFile.cpp **** //====================================================================================
 3169              		.loc 15 153 1 view .LVU778
 3170 01cc BDE8F88F 		pop	{r3, r4, r5, r6, r7, r8, r9, r10, fp, pc}
 3171              	.LVL165:
 3172              	.L164:
 3173              		.cfi_restore_state
 3174              	.LBB777:
 3175              	.LBB773:
 3176              	.LBB768:
 3177              	.LBI768:
 121:MachineDaisyFile.cpp **** {
 3178              		.loc 15 121 6 is_stmt 1 view .LVU779
 3179              	.LBB769:
 126:MachineDaisyFile.cpp **** 		drumMode = drumMode % 4;
 3180              		.loc 15 126 3 view .LVU780
 127:MachineDaisyFile.cpp **** 	}
 3181              		.loc 15 127 3 view .LVU781
 127:MachineDaisyFile.cpp **** 	}
 3182              		.loc 15 127 12 is_stmt 0 view .LVU782
 3183 01d0 1749     		ldr	r1, .L166+32
 126:MachineDaisyFile.cpp **** 		drumMode = drumMode % 4;
 3184              		.loc 15 126 11 view .LVU783
 3185 01d2 0B68     		ldr	r3, [r1]
 3186 01d4 0133     		adds	r3, r3, #1
 127:MachineDaisyFile.cpp **** 	}
 3187              		.loc 15 127 23 view .LVU784
 3188 01d6 5A42     		rsbs	r2, r3, #0
 3189 01d8 03F00303 		and	r3, r3, #3
 3190 01dc 02F00302 		and	r2, r2, #3
 3191 01e0 58BF     		it	pl
 3192 01e2 5342     		rsbpl	r3, r2, #0
 127:MachineDaisyFile.cpp **** 	}
 3193              		.loc 15 127 12 view .LVU785
 3194 01e4 0B60     		str	r3, [r1]
 129:MachineDaisyFile.cpp **** //====================================================================================
 3195              		.loc 15 129 1 view .LVU786
 3196 01e6 1BE7     		b	.L90
 3197              	.L165:
 129:MachineDaisyFile.cpp **** //====================================================================================
 3198              		.loc 15 129 1 view .LVU787
 3199              	.LBE769:
 3200              	.LBE768:
 3201              	.LBE773:
ARM GAS  /var/folders/b5/3l92j93d5t1__l78tfntmwyr0000gn/T//ccOBeKL9.s 			page 94


 3202              	.LBE777:
 137:MachineDaisyFile.cpp **** 	if (t)
 3203              		.loc 15 137 84 view .LVU788
 3204 01e8 0121     		movs	r1, #1
 3205 01ea 0F48     		ldr	r0, .L166+24
 3206 01ec FFF7FEFF 		bl	_ZN7daisysp5HiHatINS_11SquareNoiseENS_9LinearVCAELb1EE7ProcessEb
 3207              	.LVL166:
 137:MachineDaisyFile.cpp **** 	if (t)
 3208              		.loc 15 137 133 view .LVU789
 3209 01f0 2368     		ldr	r3, [r4]
 137:MachineDaisyFile.cpp **** 	if (t)
 3210              		.loc 15 137 71 view .LVU790
 3211 01f2 38EE008A 		vadd.f32	s16, s16, s0
 137:MachineDaisyFile.cpp **** 	if (t)
 3212              		.loc 15 137 121 view .LVU791
 3213 01f6 1AF80310 		ldrb	r1, [r10, r3]	@ zero_extendqisi2
 3214 01fa 0029     		cmp	r1, #0
 3215 01fc D2D1     		bne	.L107
 3216 01fe 0B48     		ldr	r0, .L166+28
 3217 0200 FFF7FEFF 		bl	_ZN7daisysp17SyntheticBassDrum7ProcessEb
 3218              	.LVL167:
 137:MachineDaisyFile.cpp **** 	if (t)
 3219              		.loc 15 137 102 view .LVU792
 3220 0204 38EE000A 		vadd.f32	s0, s16, s0
 137:MachineDaisyFile.cpp **** 	if (t)
 3221              		.loc 15 137 7 view .LVU793
 3222 0208 89ED000A 		vstr.32	s0, [r9]
 138:MachineDaisyFile.cpp **** 	{
 3223              		.loc 15 138 2 is_stmt 1 view .LVU794
 3224 020c D2E7     		b	.L109
 3225              	.L167:
 3226 020e 00BF     		.align	2
 3227              	.L166:
 3228 0210 00000000 		.word	.LANCHOR11
 3229 0214 00000000 		.word	.LANCHOR18
 3230 0218 00000000 		.word	.LANCHOR12
 3231 021c 00000000 		.word	.LANCHOR7
 3232 0220 00000000 		.word	.LANCHOR2
 3233 0224 00000000 		.word	.LANCHOR8
 3234 0228 00000000 		.word	.LANCHOR9
 3235 022c 00000000 		.word	.LANCHOR10
 3236 0230 00000000 		.word	.LANCHOR6
 3237 0234 00000000 		.word	.LANCHOR3
 3238 0238 00000000 		.word	.LANCHOR4
 3239              		.cfi_endproc
 3240              	.LFE4830:
 3242              		.section	.text._Z13AudioCallbackPKPKfPPfj,"ax",%progbits
 3243              		.align	1
 3244              		.p2align 2,,3
 3245              		.global	_Z13AudioCallbackPKPKfPPfj
 3246              		.syntax unified
 3247              		.thumb
 3248              		.thumb_func
 3250              	_Z13AudioCallbackPKPKfPPfj:
 3251              	.LVL168:
 3252              	.LFB4834:
 216:MachineDaisyFile.cpp **** 	
ARM GAS  /var/folders/b5/3l92j93d5t1__l78tfntmwyr0000gn/T//ccOBeKL9.s 			page 95


 3253              		.loc 15 216 1 view -0
 3254              		.cfi_startproc
 3255              		@ args = 0, pretend = 0, frame = 0
 3256              		@ frame_needed = 0, uses_anonymous_args = 0
 218:MachineDaisyFile.cpp **** 	{
 3257              		.loc 15 218 2 view .LVU796
 3258              	.LBB778:
 218:MachineDaisyFile.cpp **** 	{
 3259              		.loc 15 218 23 view .LVU797
 3260 0000 7AB1     		cbz	r2, .L176
 3261              	.LBE778:
 216:MachineDaisyFile.cpp **** 	
 3262              		.loc 15 216 1 is_stmt 0 view .LVU798
 3263 0002 70B5     		push	{r4, r5, r6, lr}
 3264              		.cfi_def_cfa_offset 16
 3265              		.cfi_offset 4, -16
 3266              		.cfi_offset 5, -12
 3267              		.cfi_offset 6, -8
 3268              		.cfi_offset 14, -4
 3269 0004 0D46     		mov	r5, r1
 3270 0006 1646     		mov	r6, r2
 3271              	.LBB779:
 218:MachineDaisyFile.cpp **** 	{
 3272              		.loc 15 218 14 view .LVU799
 3273 0008 0024     		movs	r4, #0
 3274              	.LVL169:
 3275              	.L170:
 220:MachineDaisyFile.cpp **** 	}
 3276              		.loc 15 220 3 is_stmt 1 discriminator 2 view .LVU800
 220:MachineDaisyFile.cpp **** 	}
 3277              		.loc 15 220 21 is_stmt 0 discriminator 2 view .LVU801
 3278 000a D5E90001 		ldrd	r0, r1, [r5]
 220:MachineDaisyFile.cpp **** 	}
 3279              		.loc 15 220 12 discriminator 2 view .LVU802
 3280 000e 01EB8401 		add	r1, r1, r4, lsl #2
 3281 0012 00EB8400 		add	r0, r0, r4, lsl #2
 218:MachineDaisyFile.cpp **** 	{
 3282              		.loc 15 218 2 discriminator 2 view .LVU803
 3283 0016 0134     		adds	r4, r4, #1
 3284              	.LVL170:
 220:MachineDaisyFile.cpp **** 	}
 3285              		.loc 15 220 12 discriminator 2 view .LVU804
 3286 0018 FFF7FEFF 		bl	_Z9sequencerRfS_
 3287              	.LVL171:
 218:MachineDaisyFile.cpp **** 	{
 3288              		.loc 15 218 2 is_stmt 1 discriminator 2 view .LVU805
 218:MachineDaisyFile.cpp **** 	{
 3289              		.loc 15 218 23 discriminator 2 view .LVU806
 3290 001c A642     		cmp	r6, r4
 3291 001e F4D1     		bne	.L170
 3292              	.LBE779:
 222:MachineDaisyFile.cpp **** //====================================================================================
 3293              		.loc 15 222 1 is_stmt 0 view .LVU807
 3294 0020 70BD     		pop	{r4, r5, r6, pc}
 3295              	.LVL172:
 3296              	.L176:
 3297              		.cfi_def_cfa_offset 0
ARM GAS  /var/folders/b5/3l92j93d5t1__l78tfntmwyr0000gn/T//ccOBeKL9.s 			page 96


 3298              		.cfi_restore 4
 3299              		.cfi_restore 5
 3300              		.cfi_restore 6
 3301              		.cfi_restore 14
 222:MachineDaisyFile.cpp **** //====================================================================================
 3302              		.loc 15 222 1 view .LVU808
 3303 0022 7047     		bx	lr
 3304              		.cfi_endproc
 3305              	.LFE4834:
 3307              		.section	.text.startup._GLOBAL__sub_I_drumMode,"ax",%progbits
 3308              		.align	1
 3309              		.p2align 2,,3
 3310              		.syntax unified
 3311              		.thumb
 3312              		.thumb_func
 3314              	_GLOBAL__sub_I_drumMode:
 3315              	.LFB5423:
 239:MachineDaisyFile.cpp **** 		//ledMatrix();
 240:MachineDaisyFile.cpp **** 		/*
 241:MachineDaisyFile.cpp **** 		System::Delay(100);
 242:MachineDaisyFile.cpp **** 		hw.PrintLine(" Button Value: " FLT_FMT3, FLT_VAR3(buttonValue));
 243:MachineDaisyFile.cpp **** 		hw.PrintLine("Kick bool Array %d %d %d %d", kicks[0], kicks[1], kicks[2], kicks[3]);
 244:MachineDaisyFile.cpp **** 		hw.PrintLine("Snare bool Array %d %d %d %d", snares[0], snares[1], snares[2], snares[3]);
 245:MachineDaisyFile.cpp **** 		hw.PrintLine("Hat bool Array %d %d %d %d", hats[0], hats[1], hats[2], hats[3]);
 246:MachineDaisyFile.cpp **** 		hw.PrintLine("Synth bool Array %d %d %d %d", synths[0], synths[1], synths[2], synths[3]);
 247:MachineDaisyFile.cpp **** 		hw.PrintLine("Drum Mode: %d", drumMode);
 248:MachineDaisyFile.cpp **** 		hw.PrintLine("Current Step %d", step);
 249:MachineDaisyFile.cpp **** 		*/
 250:MachineDaisyFile.cpp **** 	}
 251:MachineDaisyFile.cpp **** }
 3316              		.loc 15 251 1 is_stmt 1 view -0
 3317              		.cfi_startproc
 3318              		@ args = 0, pretend = 0, frame = 0
 3319              		@ frame_needed = 0, uses_anonymous_args = 0
 3320              	.LBB839:
 3321              	.LBI839:
 3322              		.loc 15 251 1 view .LVU810
 3323              	.LVL173:
 3324              	.LBB840:
 3325              	.LBB841:
 3326              	.LBI841:
  21:../../DaisyExamples/libDaisy//src/daisy_seed.h ****     ~DaisySeed() {}
 3327              		.loc 3 21 5 view .LVU811
 3328              	.LBB842:
 3329              	.LBB843:
 3330              	.LBI843:
 3331              		.file 19 "../../DaisyExamples/libDaisy//src/per/qspi.h"
   1:../../DaisyExamples/libDaisy//src/per/qspi.h **** #ifndef DSY_QSPI
   2:../../DaisyExamples/libDaisy//src/per/qspi.h **** #define DSY_QSPI /**< Macro */
   3:../../DaisyExamples/libDaisy//src/per/qspi.h **** 
   4:../../DaisyExamples/libDaisy//src/per/qspi.h **** #ifndef UNIT_TEST // for unit tests, a dummy implementation
   5:../../DaisyExamples/libDaisy//src/per/qspi.h **** 
   6:../../DaisyExamples/libDaisy//src/per/qspi.h **** #include <cstdint>
   7:../../DaisyExamples/libDaisy//src/per/qspi.h **** #include "daisy_core.h" // Added for dsy_gpio_pin typedef
   8:../../DaisyExamples/libDaisy//src/per/qspi.h **** 
   9:../../DaisyExamples/libDaisy//src/per/qspi.h **** #define DSY_QSPI_TEXT       \
  10:../../DaisyExamples/libDaisy//src/per/qspi.h ****     __attribute__((section( \
ARM GAS  /var/folders/b5/3l92j93d5t1__l78tfntmwyr0000gn/T//ccOBeKL9.s 			page 97


  11:../../DaisyExamples/libDaisy//src/per/qspi.h ****         ".qspiflash_text"))) /**< used for reading memory in memory_mapped mode. */
  12:../../DaisyExamples/libDaisy//src/per/qspi.h **** #define DSY_QSPI_DATA       \
  13:../../DaisyExamples/libDaisy//src/per/qspi.h ****     __attribute__((section( \
  14:../../DaisyExamples/libDaisy//src/per/qspi.h ****         ".qspiflash_data"))) /**< used for reading memory in memory_mapped mode. */
  15:../../DaisyExamples/libDaisy//src/per/qspi.h **** #define DSY_QSPI_BSS        \
  16:../../DaisyExamples/libDaisy//src/per/qspi.h ****     __attribute__((section( \
  17:../../DaisyExamples/libDaisy//src/per/qspi.h ****         ".qspiflash_bss"))) /**< used for reading memory in memory_mapped mode. */
  18:../../DaisyExamples/libDaisy//src/per/qspi.h **** 
  19:../../DaisyExamples/libDaisy//src/per/qspi.h **** namespace daisy
  20:../../DaisyExamples/libDaisy//src/per/qspi.h **** {
  21:../../DaisyExamples/libDaisy//src/per/qspi.h **** /** @addtogroup serial
  22:../../DaisyExamples/libDaisy//src/per/qspi.h **** @{
  23:../../DaisyExamples/libDaisy//src/per/qspi.h **** */
  24:../../DaisyExamples/libDaisy//src/per/qspi.h **** 
  25:../../DaisyExamples/libDaisy//src/per/qspi.h **** /** 
  26:../../DaisyExamples/libDaisy//src/per/qspi.h ****  Driver for QSPI peripheral to interface with external flash memory. \n 
  27:../../DaisyExamples/libDaisy//src/per/qspi.h ****     Currently supported QSPI Devices: \n 
  28:../../DaisyExamples/libDaisy//src/per/qspi.h ****     * IS25LP080D
  29:../../DaisyExamples/libDaisy//src/per/qspi.h **** */
  30:../../DaisyExamples/libDaisy//src/per/qspi.h **** class QSPIHandle
  31:../../DaisyExamples/libDaisy//src/per/qspi.h **** {
  32:../../DaisyExamples/libDaisy//src/per/qspi.h ****   public:
  33:../../DaisyExamples/libDaisy//src/per/qspi.h ****     enum Result
  34:../../DaisyExamples/libDaisy//src/per/qspi.h ****     {
  35:../../DaisyExamples/libDaisy//src/per/qspi.h ****         OK = 0,
  36:../../DaisyExamples/libDaisy//src/per/qspi.h ****         ERR
  37:../../DaisyExamples/libDaisy//src/per/qspi.h ****     };
  38:../../DaisyExamples/libDaisy//src/per/qspi.h **** 
  39:../../DaisyExamples/libDaisy//src/per/qspi.h ****     /** Indicates the current status of the module. 
  40:../../DaisyExamples/libDaisy//src/per/qspi.h ****          *  Warnings are indicated by a leading W.
  41:../../DaisyExamples/libDaisy//src/per/qspi.h ****          *  Errors are indicated by a leading E and cause an immediate exit.
  42:../../DaisyExamples/libDaisy//src/per/qspi.h ****          * 
  43:../../DaisyExamples/libDaisy//src/per/qspi.h ****          *  \param GOOD - No errors have been reported.
  44:../../DaisyExamples/libDaisy//src/per/qspi.h ****          *  \param E_HAL_ERROR - HAL code did not return HAL_OK.
  45:../../DaisyExamples/libDaisy//src/per/qspi.h ****          *  \param E_SWITCHING_MODES - An error was encountered while switching QSPI peripheral mod
  46:../../DaisyExamples/libDaisy//src/per/qspi.h ****          *  \param E_INVALID_MODE - QSPI should not be written to while the program is executing fr
  47:../../DaisyExamples/libDaisy//src/per/qspi.h ****          */
  48:../../DaisyExamples/libDaisy//src/per/qspi.h ****     enum Status
  49:../../DaisyExamples/libDaisy//src/per/qspi.h ****     {
  50:../../DaisyExamples/libDaisy//src/per/qspi.h ****         GOOD = 0,
  51:../../DaisyExamples/libDaisy//src/per/qspi.h ****         E_HAL_ERROR,
  52:../../DaisyExamples/libDaisy//src/per/qspi.h ****         E_SWITCHING_MODES,
  53:../../DaisyExamples/libDaisy//src/per/qspi.h ****         E_INVALID_MODE,
  54:../../DaisyExamples/libDaisy//src/per/qspi.h ****     };
  55:../../DaisyExamples/libDaisy//src/per/qspi.h **** 
  56:../../DaisyExamples/libDaisy//src/per/qspi.h ****     /** Configuration structure for interfacing with QSPI Driver */
  57:../../DaisyExamples/libDaisy//src/per/qspi.h ****     struct Config
  58:../../DaisyExamples/libDaisy//src/per/qspi.h ****     {
  59:../../DaisyExamples/libDaisy//src/per/qspi.h ****         /** Flash Devices supported. (Both of these are more-or-less the same, just different sizes
  60:../../DaisyExamples/libDaisy//src/per/qspi.h ****         enum Device
  61:../../DaisyExamples/libDaisy//src/per/qspi.h ****         {
  62:../../DaisyExamples/libDaisy//src/per/qspi.h ****             IS25LP080D,  /**< & */
  63:../../DaisyExamples/libDaisy//src/per/qspi.h ****             IS25LP064A,  /**< & */
  64:../../DaisyExamples/libDaisy//src/per/qspi.h ****             DEVICE_LAST, /**< & */
  65:../../DaisyExamples/libDaisy//src/per/qspi.h ****         };
  66:../../DaisyExamples/libDaisy//src/per/qspi.h **** 
  67:../../DaisyExamples/libDaisy//src/per/qspi.h ****         /** 
ARM GAS  /var/folders/b5/3l92j93d5t1__l78tfntmwyr0000gn/T//ccOBeKL9.s 			page 98


  68:../../DaisyExamples/libDaisy//src/per/qspi.h ****         Modes of operation.
  69:../../DaisyExamples/libDaisy//src/per/qspi.h ****         Memory Mapped mode: QSPI configured so that the QSPI can be
  70:../../DaisyExamples/libDaisy//src/per/qspi.h ****         read from starting address 0x90000000. Writing is not
  71:../../DaisyExamples/libDaisy//src/per/qspi.h ****         possible in this mode. \n 
  72:../../DaisyExamples/libDaisy//src/per/qspi.h ****         Indirect Polling mode: Device driver enabled. 
  73:../../DaisyExamples/libDaisy//src/per/qspi.h ****         */
  74:../../DaisyExamples/libDaisy//src/per/qspi.h ****         enum Mode
  75:../../DaisyExamples/libDaisy//src/per/qspi.h ****         {
  76:../../DaisyExamples/libDaisy//src/per/qspi.h ****             MEMORY_MAPPED,    /**< & */
  77:../../DaisyExamples/libDaisy//src/per/qspi.h ****             INDIRECT_POLLING, /**< & */
  78:../../DaisyExamples/libDaisy//src/per/qspi.h ****             MODE_LAST,
  79:../../DaisyExamples/libDaisy//src/per/qspi.h ****         };
  80:../../DaisyExamples/libDaisy//src/per/qspi.h **** 
  81:../../DaisyExamples/libDaisy//src/per/qspi.h ****         //SCK,  CE# (active low)
  82:../../DaisyExamples/libDaisy//src/per/qspi.h ****         struct
  83:../../DaisyExamples/libDaisy//src/per/qspi.h ****         {
  84:../../DaisyExamples/libDaisy//src/per/qspi.h ****             dsy_gpio_pin io0; /**< & */
  85:../../DaisyExamples/libDaisy//src/per/qspi.h ****             dsy_gpio_pin io1; /**< & */
  86:../../DaisyExamples/libDaisy//src/per/qspi.h ****             dsy_gpio_pin io2; /**< & */
  87:../../DaisyExamples/libDaisy//src/per/qspi.h ****             dsy_gpio_pin io3; /**< & */
  88:../../DaisyExamples/libDaisy//src/per/qspi.h ****             dsy_gpio_pin clk; /**< & */
  89:../../DaisyExamples/libDaisy//src/per/qspi.h ****             dsy_gpio_pin ncs; /**< & */
  90:../../DaisyExamples/libDaisy//src/per/qspi.h ****         } pin_config;
  91:../../DaisyExamples/libDaisy//src/per/qspi.h **** 
  92:../../DaisyExamples/libDaisy//src/per/qspi.h ****         Device device;
  93:../../DaisyExamples/libDaisy//src/per/qspi.h ****         Mode   mode;
  94:../../DaisyExamples/libDaisy//src/per/qspi.h ****     };
  95:../../DaisyExamples/libDaisy//src/per/qspi.h **** 
  96:../../DaisyExamples/libDaisy//src/per/qspi.h ****     /** 
  97:../../DaisyExamples/libDaisy//src/per/qspi.h ****         Initializes QSPI peripheral, and Resets, and prepares memory for access.
  98:../../DaisyExamples/libDaisy//src/per/qspi.h ****         \param config should be populated with the mode, device and pin_config before calling this 
  99:../../DaisyExamples/libDaisy//src/per/qspi.h ****         \return Result::OK or Result::ERR
 100:../../DaisyExamples/libDaisy//src/per/qspi.h ****         */
 101:../../DaisyExamples/libDaisy//src/per/qspi.h ****     Result Init(const Config& config);
 102:../../DaisyExamples/libDaisy//src/per/qspi.h **** 
 103:../../DaisyExamples/libDaisy//src/per/qspi.h ****     /** Returns the current config. */
 104:../../DaisyExamples/libDaisy//src/per/qspi.h ****     const Config& GetConfig() const;
 105:../../DaisyExamples/libDaisy//src/per/qspi.h **** 
 106:../../DaisyExamples/libDaisy//src/per/qspi.h ****     // Couldn't this just be called before anything else in init? That
 107:../../DaisyExamples/libDaisy//src/per/qspi.h ****     // would make manually calling it unnecessary.
 108:../../DaisyExamples/libDaisy//src/per/qspi.h ****     /** 
 109:../../DaisyExamples/libDaisy//src/per/qspi.h ****         Deinitializes the peripheral
 110:../../DaisyExamples/libDaisy//src/per/qspi.h ****         This should be called before reinitializing QSPI in a different mode.
 111:../../DaisyExamples/libDaisy//src/per/qspi.h ****         \return Result::OK or Result::ERR
 112:../../DaisyExamples/libDaisy//src/per/qspi.h ****         */
 113:../../DaisyExamples/libDaisy//src/per/qspi.h ****     Result DeInit();
 114:../../DaisyExamples/libDaisy//src/per/qspi.h **** 
 115:../../DaisyExamples/libDaisy//src/per/qspi.h ****     /** 
 116:../../DaisyExamples/libDaisy//src/per/qspi.h ****         Writes a single page to to the specified address on the QSPI chip.
 117:../../DaisyExamples/libDaisy//src/per/qspi.h ****         For IS25LP*, page size is 256 bytes.
 118:../../DaisyExamples/libDaisy//src/per/qspi.h ****         \param address Address to write to
 119:../../DaisyExamples/libDaisy//src/per/qspi.h ****         \param size Buffer size
 120:../../DaisyExamples/libDaisy//src/per/qspi.h ****         \param buffer Buffer to write
 121:../../DaisyExamples/libDaisy//src/per/qspi.h ****         \return Result::OK or Result::ERR
 122:../../DaisyExamples/libDaisy//src/per/qspi.h ****         */
 123:../../DaisyExamples/libDaisy//src/per/qspi.h ****     Result WritePage(uint32_t address, uint32_t size, uint8_t* buffer);
 124:../../DaisyExamples/libDaisy//src/per/qspi.h **** 
ARM GAS  /var/folders/b5/3l92j93d5t1__l78tfntmwyr0000gn/T//ccOBeKL9.s 			page 99


 125:../../DaisyExamples/libDaisy//src/per/qspi.h ****     /** 
 126:../../DaisyExamples/libDaisy//src/per/qspi.h ****         Writes data in buffer to to the QSPI. Starting at address to address+size 
 127:../../DaisyExamples/libDaisy//src/per/qspi.h ****         \param address Address to write to
 128:../../DaisyExamples/libDaisy//src/per/qspi.h ****         \param size Buffer size
 129:../../DaisyExamples/libDaisy//src/per/qspi.h ****         \param buffer Buffer to write
 130:../../DaisyExamples/libDaisy//src/per/qspi.h ****         \return Result::OK or Result::ERR
 131:../../DaisyExamples/libDaisy//src/per/qspi.h ****         */
 132:../../DaisyExamples/libDaisy//src/per/qspi.h ****     Result Write(uint32_t address, uint32_t size, uint8_t* buffer);
 133:../../DaisyExamples/libDaisy//src/per/qspi.h **** 
 134:../../DaisyExamples/libDaisy//src/per/qspi.h ****     /** 
 135:../../DaisyExamples/libDaisy//src/per/qspi.h ****         Erases the area specified on the chip.
 136:../../DaisyExamples/libDaisy//src/per/qspi.h ****         Erasures will happen by 4K, 32K or 64K increments.
 137:../../DaisyExamples/libDaisy//src/per/qspi.h ****         Smallest erase possible is 4kB at a time. (on IS25LP*)
 138:../../DaisyExamples/libDaisy//src/per/qspi.h ****         \param start_addr Address to begin erasing from
 139:../../DaisyExamples/libDaisy//src/per/qspi.h ****         \param end_addr  Address to stop erasing at
 140:../../DaisyExamples/libDaisy//src/per/qspi.h ****         \return Result::OK or Result::ERR
 141:../../DaisyExamples/libDaisy//src/per/qspi.h ****         */
 142:../../DaisyExamples/libDaisy//src/per/qspi.h ****     Result Erase(uint32_t start_addr, uint32_t end_addr);
 143:../../DaisyExamples/libDaisy//src/per/qspi.h **** 
 144:../../DaisyExamples/libDaisy//src/per/qspi.h ****     /**  
 145:../../DaisyExamples/libDaisy//src/per/qspi.h ****          Erases a single sector of the chip.  
 146:../../DaisyExamples/libDaisy//src/per/qspi.h ****         TODO: Document the size of this function. 
 147:../../DaisyExamples/libDaisy//src/per/qspi.h ****         \param address Address of sector to erase
 148:../../DaisyExamples/libDaisy//src/per/qspi.h ****         \return Result::OK or Result::ERR
 149:../../DaisyExamples/libDaisy//src/per/qspi.h ****         */
 150:../../DaisyExamples/libDaisy//src/per/qspi.h ****     Result EraseSector(uint32_t address);
 151:../../DaisyExamples/libDaisy//src/per/qspi.h **** 
 152:../../DaisyExamples/libDaisy//src/per/qspi.h ****     /** Returns the current class status. Useful for debugging.
 153:../../DaisyExamples/libDaisy//src/per/qspi.h ****      *  \returns Status
 154:../../DaisyExamples/libDaisy//src/per/qspi.h ****      */
 155:../../DaisyExamples/libDaisy//src/per/qspi.h ****     Status GetStatus();
 156:../../DaisyExamples/libDaisy//src/per/qspi.h **** 
 157:../../DaisyExamples/libDaisy//src/per/qspi.h ****     /** Returns a pointer to the actual memory used 
 158:../../DaisyExamples/libDaisy//src/per/qspi.h ****      *  The memory at this address is read-only
 159:../../DaisyExamples/libDaisy//src/per/qspi.h ****      *  to write to it use the Write function.
 160:../../DaisyExamples/libDaisy//src/per/qspi.h ****      * 
 161:../../DaisyExamples/libDaisy//src/per/qspi.h ****      *  \param offset returns the pointer starting this 
 162:../../DaisyExamples/libDaisy//src/per/qspi.h ****      *                many bytes into the memory
 163:../../DaisyExamples/libDaisy//src/per/qspi.h ****     */
 164:../../DaisyExamples/libDaisy//src/per/qspi.h ****     void* GetData(uint32_t offset = 0);
 165:../../DaisyExamples/libDaisy//src/per/qspi.h **** 
 166:../../DaisyExamples/libDaisy//src/per/qspi.h ****     QSPIHandle() : pimpl_(nullptr) {}
 3332              		.loc 19 166 5 view .LVU812
 3333              	.LBE843:
 3334              	.LBE842:
 3335              	.LBE841:
 3336              	.LBE840:
 3337              	.LBE839:
 3338              		.loc 15 251 1 is_stmt 0 view .LVU813
 3339 0000 38B5     		push	{r3, r4, r5, lr}
 3340              		.cfi_def_cfa_offset 16
 3341              		.cfi_offset 3, -16
 3342              		.cfi_offset 4, -12
 3343              		.cfi_offset 5, -8
 3344              		.cfi_offset 14, -4
 3345              	.LBB895:
 3346              	.LBB892:
ARM GAS  /var/folders/b5/3l92j93d5t1__l78tfntmwyr0000gn/T//ccOBeKL9.s 			page 100


 3347              	.LBB863:
 3348              	.LBB860:
 3349              	.LBB848:
 3350              	.LBB844:
 3351              	.LBB845:
 3352              		.loc 19 166 34 view .LVU814
 3353 0002 2448     		ldr	r0, .L181
 3354 0004 0023     		movs	r3, #0
 3355              	.LBE845:
 3356              	.LBE844:
 3357              	.LBE848:
 3358              	.LBE860:
 3359              	.LBE863:
  15:MachineDaisyFile.cpp **** static AdcHandle adc;
 3360              		.loc 15 15 18 view .LVU815
 3361 0006 244C     		ldr	r4, .L181+4
 3362              	.LBB864:
 3363              	.LBB861:
 3364              	.LBB849:
 3365              	.LBB847:
 3366              	.LBB846:
 3367              		.loc 19 166 34 view .LVU816
 3368 0008 0360     		str	r3, [r0]
 3369              	.LVL174:
 3370              		.loc 19 166 34 view .LVU817
 3371              	.LBE846:
 3372              	.LBE847:
 3373              	.LBE849:
 3374              	.LBB850:
 3375              	.LBI850:
  95:../../DaisyExamples/libDaisy//src/hid/audio.h ****     ~AudioHandle() {}
 3376              		.loc 6 95 5 is_stmt 1 view .LVU818
 3377              	.LBB851:
 3378              	.LBB852:
  95:../../DaisyExamples/libDaisy//src/hid/audio.h ****     ~AudioHandle() {}
 3379              		.loc 6 95 35 is_stmt 0 view .LVU819
 3380 000a 4361     		str	r3, [r0, #20]
 3381              	.LVL175:
  95:../../DaisyExamples/libDaisy//src/hid/audio.h ****     ~AudioHandle() {}
 3382              		.loc 6 95 35 view .LVU820
 3383              	.LBE852:
 3384              	.LBE851:
 3385              	.LBE850:
 3386              	.LBB853:
 3387              	.LBI853:
  92:../../DaisyExamples/libDaisy//src/per/adc.h ****     ~AdcHandle() {}
 3388              		.loc 1 92 5 is_stmt 1 view .LVU821
  92:../../DaisyExamples/libDaisy//src/per/adc.h ****     ~AdcHandle() {}
 3389              		.loc 1 92 5 is_stmt 0 view .LVU822
 3390              	.LBE853:
 3391              	.LBB854:
 3392              	.LBI854:
 3393              		.file 20 "../../DaisyExamples/libDaisy//src/per/dac.h"
   1:../../DaisyExamples/libDaisy//src/per/dac.h **** #pragma once
   2:../../DaisyExamples/libDaisy//src/per/dac.h **** #ifndef DSY_DAC_H
   3:../../DaisyExamples/libDaisy//src/per/dac.h **** #define DSY_DAC_H
   4:../../DaisyExamples/libDaisy//src/per/dac.h **** 
ARM GAS  /var/folders/b5/3l92j93d5t1__l78tfntmwyr0000gn/T//ccOBeKL9.s 			page 101


   5:../../DaisyExamples/libDaisy//src/per/dac.h **** #include "daisy_core.h"
   6:../../DaisyExamples/libDaisy//src/per/dac.h **** 
   7:../../DaisyExamples/libDaisy//src/per/dac.h **** namespace daisy
   8:../../DaisyExamples/libDaisy//src/per/dac.h **** {
   9:../../DaisyExamples/libDaisy//src/per/dac.h **** /** @brief DAC handle for Built-in DAC Peripheral 
  10:../../DaisyExamples/libDaisy//src/per/dac.h ****  *  @ingroup per_analog
  11:../../DaisyExamples/libDaisy//src/per/dac.h ****  ** 
  12:../../DaisyExamples/libDaisy//src/per/dac.h ****  ** For now only Normal Mode is supported,
  13:../../DaisyExamples/libDaisy//src/per/dac.h ****  ** Sample and hold mode provides reduced power consumption, but requires a bit more setup.
  14:../../DaisyExamples/libDaisy//src/per/dac.h ****  **
  15:../../DaisyExamples/libDaisy//src/per/dac.h ****  ** For now connecting the DAC through other internal peripherals is also not supported.
  16:../../DaisyExamples/libDaisy//src/per/dac.h ****  **
  17:../../DaisyExamples/libDaisy//src/per/dac.h ****  ** Since the DAC channels have dedicated pins we don't need to pass in a pin config like with
  18:../../DaisyExamples/libDaisy//src/per/dac.h ****  ** other modules. However, it is still important to not try to use the DAC pins for anything else.
  19:../../DaisyExamples/libDaisy//src/per/dac.h ****  ** DAC Channel 1 is on PA4, and DAC Channel 2 is on PA5
  20:../../DaisyExamples/libDaisy//src/per/dac.h ****  ***/
  21:../../DaisyExamples/libDaisy//src/per/dac.h **** class DacHandle
  22:../../DaisyExamples/libDaisy//src/per/dac.h **** {
  23:../../DaisyExamples/libDaisy//src/per/dac.h ****   public:
  24:../../DaisyExamples/libDaisy//src/per/dac.h ****     /** Return Values for the DacHandle class */
  25:../../DaisyExamples/libDaisy//src/per/dac.h ****     enum class Result
  26:../../DaisyExamples/libDaisy//src/per/dac.h ****     {
  27:../../DaisyExamples/libDaisy//src/per/dac.h ****         OK,
  28:../../DaisyExamples/libDaisy//src/per/dac.h ****         ERR,
  29:../../DaisyExamples/libDaisy//src/per/dac.h ****     };
  30:../../DaisyExamples/libDaisy//src/per/dac.h **** 
  31:../../DaisyExamples/libDaisy//src/per/dac.h ****     /** Selects which channel(s) will be configured for use. */
  32:../../DaisyExamples/libDaisy//src/per/dac.h ****     enum class Channel
  33:../../DaisyExamples/libDaisy//src/per/dac.h ****     {
  34:../../DaisyExamples/libDaisy//src/per/dac.h ****         ONE,
  35:../../DaisyExamples/libDaisy//src/per/dac.h ****         TWO,
  36:../../DaisyExamples/libDaisy//src/per/dac.h ****         BOTH,
  37:../../DaisyExamples/libDaisy//src/per/dac.h ****     };
  38:../../DaisyExamples/libDaisy//src/per/dac.h **** 
  39:../../DaisyExamples/libDaisy//src/per/dac.h ****     /** Sets the Mode for the DAC channels.
  40:../../DaisyExamples/libDaisy//src/per/dac.h ****      **
  41:../../DaisyExamples/libDaisy//src/per/dac.h ****      ** Polling mode uses the blocking mode to transmit a single value at a time.
  42:../../DaisyExamples/libDaisy//src/per/dac.h ****      **
  43:../../DaisyExamples/libDaisy//src/per/dac.h ****      ** DMA mode uses a buffer, and periodically transmits it triggering a 
  44:../../DaisyExamples/libDaisy//src/per/dac.h ****      ** callback to fill the buffer when it is ready for more samples.
  45:../../DaisyExamples/libDaisy//src/per/dac.h ****      ***/
  46:../../DaisyExamples/libDaisy//src/per/dac.h ****     enum class Mode
  47:../../DaisyExamples/libDaisy//src/per/dac.h ****     {
  48:../../DaisyExamples/libDaisy//src/per/dac.h ****         POLLING,
  49:../../DaisyExamples/libDaisy//src/per/dac.h ****         DMA,
  50:../../DaisyExamples/libDaisy//src/per/dac.h ****     };
  51:../../DaisyExamples/libDaisy//src/per/dac.h **** 
  52:../../DaisyExamples/libDaisy//src/per/dac.h ****     /** Sets the number of bits per sample transmitted out of the DAC.
  53:../../DaisyExamples/libDaisy//src/per/dac.h ****      ** The output range will be: 0V - VDDA
  54:../../DaisyExamples/libDaisy//src/per/dac.h ****      ** The resolution will be roughly: bitdepth / (VDDA - 0V) 
  55:../../DaisyExamples/libDaisy//src/per/dac.h ****      ***/
  56:../../DaisyExamples/libDaisy//src/per/dac.h ****     enum class BitDepth
  57:../../DaisyExamples/libDaisy//src/per/dac.h ****     {
  58:../../DaisyExamples/libDaisy//src/per/dac.h ****         BITS_8,
  59:../../DaisyExamples/libDaisy//src/per/dac.h ****         BITS_12
  60:../../DaisyExamples/libDaisy//src/per/dac.h ****     };
  61:../../DaisyExamples/libDaisy//src/per/dac.h **** 
ARM GAS  /var/folders/b5/3l92j93d5t1__l78tfntmwyr0000gn/T//ccOBeKL9.s 			page 102


  62:../../DaisyExamples/libDaisy//src/per/dac.h ****     /** Sets whether the DAC output is buffered for higher drive ability. */
  63:../../DaisyExamples/libDaisy//src/per/dac.h ****     enum class BufferState
  64:../../DaisyExamples/libDaisy//src/per/dac.h ****     {
  65:../../DaisyExamples/libDaisy//src/per/dac.h ****         ENABLED,
  66:../../DaisyExamples/libDaisy//src/per/dac.h ****         DISABLED,
  67:../../DaisyExamples/libDaisy//src/per/dac.h ****     };
  68:../../DaisyExamples/libDaisy//src/per/dac.h **** 
  69:../../DaisyExamples/libDaisy//src/per/dac.h ****     /** Configuration structure for initializing the DAC structure. */
  70:../../DaisyExamples/libDaisy//src/per/dac.h ****     struct Config
  71:../../DaisyExamples/libDaisy//src/per/dac.h ****     {
  72:../../DaisyExamples/libDaisy//src/per/dac.h ****         /** Target Samplerate in Hz used to configure the internal 
  73:../../DaisyExamples/libDaisy//src/per/dac.h ****          ** timebase for DMA mode. Does nothing in POLLING mode.
  74:../../DaisyExamples/libDaisy//src/per/dac.h ****          ** If the value is 0 at Init time this will default to 48000Hz 
  75:../../DaisyExamples/libDaisy//src/per/dac.h ****          ** otherwise the driver will attempt meet the target.*/
  76:../../DaisyExamples/libDaisy//src/per/dac.h ****         uint32_t target_samplerate;
  77:../../DaisyExamples/libDaisy//src/per/dac.h **** 
  78:../../DaisyExamples/libDaisy//src/per/dac.h ****         Channel     chn;
  79:../../DaisyExamples/libDaisy//src/per/dac.h ****         Mode        mode;
  80:../../DaisyExamples/libDaisy//src/per/dac.h ****         BitDepth    bitdepth;
  81:../../DaisyExamples/libDaisy//src/per/dac.h ****         BufferState buff_state;
  82:../../DaisyExamples/libDaisy//src/per/dac.h ****     };
  83:../../DaisyExamples/libDaisy//src/per/dac.h **** 
  84:../../DaisyExamples/libDaisy//src/per/dac.h ****     DacHandle() : pimpl_(nullptr) {}
 3394              		.loc 20 84 5 is_stmt 1 view .LVU823
 3395              	.LBE854:
 3396              	.LBE861:
 3397              	.LBE864:
  15:MachineDaisyFile.cpp **** static AdcHandle adc;
 3398              		.loc 15 15 18 is_stmt 0 view .LVU824
 3399 000c 2246     		mov	r2, r4
 3400              	.LBB865:
 3401              	.LBB862:
 3402              	.LBB857:
 3403              	.LBB855:
 3404              	.LBB856:
 3405              		.loc 20 84 33 view .LVU825
 3406 000e 0362     		str	r3, [r0, #32]
 3407              	.LVL176:
 3408              		.loc 20 84 33 view .LVU826
 3409              	.LBE856:
 3410              	.LBE855:
 3411              	.LBE857:
 3412              	.LBB858:
 3413              	.LBI858:
  40:../../DaisyExamples/libDaisy//src/hid/usb.h **** 
 3414              		.loc 5 40 5 is_stmt 1 view .LVU827
  40:../../DaisyExamples/libDaisy//src/hid/usb.h **** 
 3415              		.loc 5 40 5 is_stmt 0 view .LVU828
 3416              	.LBE858:
 3417              	.LBB859:
 3418              	.LBI859:
  77:../../DaisyExamples/libDaisy//src/sys/system.h ****     ~System() {}
 3419              		.loc 4 77 5 is_stmt 1 view .LVU829
  77:../../DaisyExamples/libDaisy//src/sys/system.h ****     ~System() {}
 3420              		.loc 4 77 5 is_stmt 0 view .LVU830
 3421              	.LBE859:
 3422              	.LBE862:
ARM GAS  /var/folders/b5/3l92j93d5t1__l78tfntmwyr0000gn/T//ccOBeKL9.s 			page 103


 3423              	.LBE865:
  15:MachineDaisyFile.cpp **** static AdcHandle adc;
 3424              		.loc 15 15 18 view .LVU831
 3425 0010 2249     		ldr	r1, .L181+8
 3426 0012 FFF7FEFF 		bl	__aeabi_atexit
 3427              	.LVL177:
 3428              	.LBB866:
 3429              	.LBI866:
  92:../../DaisyExamples/libDaisy//src/per/adc.h ****     ~AdcHandle() {}
 3430              		.loc 1 92 5 is_stmt 1 view .LVU832
  92:../../DaisyExamples/libDaisy//src/per/adc.h ****     ~AdcHandle() {}
 3431              		.loc 1 92 5 is_stmt 0 view .LVU833
 3432              	.LBE866:
  16:MachineDaisyFile.cpp **** 
 3433              		.loc 15 16 18 view .LVU834
 3434 0016 2246     		mov	r2, r4
 3435 0018 2149     		ldr	r1, .L181+12
 3436 001a 2248     		ldr	r0, .L181+16
 3437 001c FFF7FEFF 		bl	__aeabi_atexit
 3438              	.LVL178:
 3439              	.LBB867:
 3440              	.LBI867:
  41:../../DaisyExamples/libDaisy//src/hid/switch.h ****     ~Switch() {}
 3441              		.loc 2 41 5 is_stmt 1 view .LVU835
  41:../../DaisyExamples/libDaisy//src/hid/switch.h ****     ~Switch() {}
 3442              		.loc 2 41 5 is_stmt 0 view .LVU836
 3443              	.LBE867:
  25:MachineDaisyFile.cpp **** float buttonValue;
 3444              		.loc 15 25 8 view .LVU837
 3445 0020 2246     		mov	r2, r4
 3446 0022 2149     		ldr	r1, .L181+20
 3447 0024 2148     		ldr	r0, .L181+24
 3448 0026 FFF7FEFF 		bl	__aeabi_atexit
 3449              	.LVL179:
 3450              	.LBB868:
 3451              	.LBI868:
  14:../../DaisyExamples/DaisySP//Source/Utility/metro.h ****     ~Metro() {}
 3452              		.loc 12 14 5 is_stmt 1 view .LVU838
  14:../../DaisyExamples/DaisySP//Source/Utility/metro.h ****     ~Metro() {}
 3453              		.loc 12 14 5 is_stmt 0 view .LVU839
 3454              	.LBE868:
  29:MachineDaisyFile.cpp **** AnalogBassDrum kick;
 3455              		.loc 15 29 7 view .LVU840
 3456 002a 2246     		mov	r2, r4
 3457 002c 2049     		ldr	r1, .L181+28
 3458 002e 2148     		ldr	r0, .L181+32
 3459 0030 FFF7FEFF 		bl	__aeabi_atexit
 3460              	.LVL180:
 3461              	.LBB869:
 3462              	.LBI869:
  26:../../DaisyExamples/DaisySP//Source/Drums/analogbassdrum.h ****     ~AnalogBassDrum() {}
 3463              		.loc 8 26 5 is_stmt 1 view .LVU841
 3464              	.LBB870:
 3465              	.LBB871:
 3466              	.LBI871:
  21:../../DaisyExamples/DaisySP//Source/Filters/svf.h ****     ~Svf() {}
 3467              		.loc 9 21 5 view .LVU842
ARM GAS  /var/folders/b5/3l92j93d5t1__l78tfntmwyr0000gn/T//ccOBeKL9.s 			page 104


  21:../../DaisyExamples/DaisySP//Source/Filters/svf.h ****     ~Svf() {}
 3468              		.loc 9 21 5 is_stmt 0 view .LVU843
 3469              	.LBE871:
 3470              	.LBE870:
 3471              	.LBE869:
  30:MachineDaisyFile.cpp **** AnalogSnareDrum snare;
 3472              		.loc 15 30 16 view .LVU844
 3473 0034 2246     		mov	r2, r4
 3474 0036 2049     		ldr	r1, .L181+36
 3475 0038 2048     		ldr	r0, .L181+40
 3476 003a FFF7FEFF 		bl	__aeabi_atexit
 3477              	.LVL181:
 3478              	.LBB872:
 3479              	.LBI872:
  25:../../DaisyExamples/DaisySP//Source/Drums/analogsnaredrum.h ****     ~AnalogSnareDrum() {}
 3480              		.loc 10 25 5 is_stmt 1 view .LVU845
 3481              	.LBE872:
 3482              	.LBE892:
 3483              	.LBE895:
  25:../../DaisyExamples/DaisySP//Source/Drums/analogsnaredrum.h ****     ~AnalogSnareDrum() {}
 3484              		.loc 10 25 23 view .LVU846
 3485              	.LBB896:
 3486              	.LBB893:
 3487              	.LBB875:
 3488              	.LBB873:
 3489              	.LBB874:
 3490              	.LBI874:
  21:../../DaisyExamples/DaisySP//Source/Filters/svf.h ****     ~Svf() {}
 3491              		.loc 9 21 5 view .LVU847
  21:../../DaisyExamples/DaisySP//Source/Filters/svf.h ****     ~Svf() {}
 3492              		.loc 9 21 5 is_stmt 0 view .LVU848
 3493              	.LBE874:
 3494              	.LBE873:
 3495              	.LBE875:
  31:MachineDaisyFile.cpp **** HiHat<SquareNoise, LinearVCA, true> hat;
 3496              		.loc 15 31 17 view .LVU849
 3497 003e 2246     		mov	r2, r4
 3498 0040 1F49     		ldr	r1, .L181+44
 3499 0042 2048     		ldr	r0, .L181+48
  34:MachineDaisyFile.cpp **** EZ_DSP::DelayLine<float, MAX_DELAY> DSY_SDRAM_BSS del;
 3500              		.loc 15 34 7 view .LVU850
 3501 0044 204D     		ldr	r5, .L181+52
  31:MachineDaisyFile.cpp **** HiHat<SquareNoise, LinearVCA, true> hat;
 3502              		.loc 15 31 17 view .LVU851
 3503 0046 FFF7FEFF 		bl	__aeabi_atexit
 3504              	.LVL182:
 3505              	.LBB876:
 3506              	.LBI876:
 112:../../DaisyExamples/DaisySP//Source/Drums/hihat.h ****     ~HiHat() {}
 3507              		.loc 13 112 5 is_stmt 1 view .LVU852
 3508              	.LBB877:
 3509              	.LBB878:
 3510              	.LBI878:
  27:../../DaisyExamples/DaisySP//Source/Drums/hihat.h ****     ~SquareNoise() {}
 3511              		.loc 13 27 5 view .LVU853
  27:../../DaisyExamples/DaisySP//Source/Drums/hihat.h ****     ~SquareNoise() {}
 3512              		.loc 13 27 5 is_stmt 0 view .LVU854
ARM GAS  /var/folders/b5/3l92j93d5t1__l78tfntmwyr0000gn/T//ccOBeKL9.s 			page 105


 3513              	.LBE878:
 3514              	.LBB879:
 3515              	.LBI879:
  21:../../DaisyExamples/DaisySP//Source/Filters/svf.h ****     ~Svf() {}
 3516              		.loc 9 21 5 is_stmt 1 view .LVU855
  21:../../DaisyExamples/DaisySP//Source/Filters/svf.h ****     ~Svf() {}
 3517              		.loc 9 21 5 is_stmt 0 view .LVU856
 3518              	.LBE879:
 3519              	.LBB880:
 3520              	.LBI880:
  21:../../DaisyExamples/DaisySP//Source/Filters/svf.h ****     ~Svf() {}
 3521              		.loc 9 21 5 is_stmt 1 view .LVU857
  21:../../DaisyExamples/DaisySP//Source/Filters/svf.h ****     ~Svf() {}
 3522              		.loc 9 21 5 is_stmt 0 view .LVU858
 3523              	.LBE880:
 3524              	.LBE877:
 3525              	.LBE876:
  32:MachineDaisyFile.cpp **** SyntheticBassDrum synthKick;
 3526              		.loc 15 32 37 view .LVU859
 3527 004a 2246     		mov	r2, r4
 3528 004c 1F49     		ldr	r1, .L181+56
 3529 004e 2048     		ldr	r0, .L181+60
 3530 0050 FFF7FEFF 		bl	__aeabi_atexit
 3531              	.LVL183:
 3532              	.LBB881:
 3533              	.LBI881:
  82:../../DaisyExamples/DaisySP//Source/Drums/synthbassdrum.h ****     ~SyntheticBassDrum() {}
 3534              		.loc 11 82 5 is_stmt 1 view .LVU860
 3535              	.LBB882:
 3536              	.LBB883:
 3537              	.LBI883:
  26:../../DaisyExamples/DaisySP//Source/Drums/synthbassdrum.h ****     ~SyntheticBassDrumClick() {}
 3538              		.loc 11 26 5 view .LVU861
 3539              	.LBB884:
 3540              	.LBB885:
 3541              	.LBI885:
  21:../../DaisyExamples/DaisySP//Source/Filters/svf.h ****     ~Svf() {}
 3542              		.loc 9 21 5 view .LVU862
  21:../../DaisyExamples/DaisySP//Source/Filters/svf.h ****     ~Svf() {}
 3543              		.loc 9 21 5 is_stmt 0 view .LVU863
 3544              	.LBE885:
 3545              	.LBE884:
 3546              	.LBE883:
 3547              	.LBB886:
 3548              	.LBI886:
  56:../../DaisyExamples/DaisySP//Source/Drums/synthbassdrum.h ****     ~SyntheticBassDrumAttackNoise() {}
 3549              		.loc 11 56 5 is_stmt 1 view .LVU864
  56:../../DaisyExamples/DaisySP//Source/Drums/synthbassdrum.h ****     ~SyntheticBassDrumAttackNoise() {}
 3550              		.loc 11 56 5 is_stmt 0 view .LVU865
 3551              	.LBE886:
 3552              	.LBE882:
 3553              	.LBE881:
  33:MachineDaisyFile.cpp **** AdEnv kickEnv, snareEnv, hatEnv, synthEnv;
 3554              		.loc 15 33 19 view .LVU866
 3555 0054 2246     		mov	r2, r4
 3556 0056 1F49     		ldr	r1, .L181+64
 3557 0058 1F48     		ldr	r0, .L181+68
ARM GAS  /var/folders/b5/3l92j93d5t1__l78tfntmwyr0000gn/T//ccOBeKL9.s 			page 106


 3558 005a FFF7FEFF 		bl	__aeabi_atexit
 3559              	.LVL184:
 3560              	.LBB887:
 3561              	.LBI887:
  34:../../DaisyExamples/DaisySP//Source/Control/adenv.h ****     ~AdEnv() {}
 3562              		.loc 7 34 5 is_stmt 1 view .LVU867
  34:../../DaisyExamples/DaisySP//Source/Control/adenv.h ****     ~AdEnv() {}
 3563              		.loc 7 34 5 is_stmt 0 view .LVU868
 3564              	.LBE887:
  34:MachineDaisyFile.cpp **** EZ_DSP::DelayLine<float, MAX_DELAY> DSY_SDRAM_BSS del;
 3565              		.loc 15 34 7 view .LVU869
 3566 005e 2246     		mov	r2, r4
 3567 0060 2946     		mov	r1, r5
 3568 0062 1E48     		ldr	r0, .L181+72
 3569 0064 FFF7FEFF 		bl	__aeabi_atexit
 3570              	.LVL185:
 3571              	.LBB888:
 3572              	.LBI888:
  34:../../DaisyExamples/DaisySP//Source/Control/adenv.h ****     ~AdEnv() {}
 3573              		.loc 7 34 5 is_stmt 1 view .LVU870
  34:../../DaisyExamples/DaisySP//Source/Control/adenv.h ****     ~AdEnv() {}
 3574              		.loc 7 34 5 is_stmt 0 view .LVU871
 3575              	.LBE888:
  34:MachineDaisyFile.cpp **** EZ_DSP::DelayLine<float, MAX_DELAY> DSY_SDRAM_BSS del;
 3576              		.loc 15 34 16 view .LVU872
 3577 0068 2246     		mov	r2, r4
 3578 006a 2946     		mov	r1, r5
 3579 006c 1C48     		ldr	r0, .L181+76
 3580 006e FFF7FEFF 		bl	__aeabi_atexit
 3581              	.LVL186:
 3582              	.LBB889:
 3583              	.LBI889:
  34:../../DaisyExamples/DaisySP//Source/Control/adenv.h ****     ~AdEnv() {}
 3584              		.loc 7 34 5 is_stmt 1 view .LVU873
  34:../../DaisyExamples/DaisySP//Source/Control/adenv.h ****     ~AdEnv() {}
 3585              		.loc 7 34 5 is_stmt 0 view .LVU874
 3586              	.LBE889:
  34:MachineDaisyFile.cpp **** EZ_DSP::DelayLine<float, MAX_DELAY> DSY_SDRAM_BSS del;
 3587              		.loc 15 34 26 view .LVU875
 3588 0072 2246     		mov	r2, r4
 3589 0074 2946     		mov	r1, r5
 3590 0076 1B48     		ldr	r0, .L181+80
 3591 0078 FFF7FEFF 		bl	__aeabi_atexit
 3592              	.LVL187:
 3593              	.LBB890:
 3594              	.LBI890:
  34:../../DaisyExamples/DaisySP//Source/Control/adenv.h ****     ~AdEnv() {}
 3595              		.loc 7 34 5 is_stmt 1 view .LVU876
  34:../../DaisyExamples/DaisySP//Source/Control/adenv.h ****     ~AdEnv() {}
 3596              		.loc 7 34 5 is_stmt 0 view .LVU877
 3597              	.LBE890:
  34:MachineDaisyFile.cpp **** EZ_DSP::DelayLine<float, MAX_DELAY> DSY_SDRAM_BSS del;
 3598              		.loc 15 34 34 view .LVU878
 3599 007c 2246     		mov	r2, r4
 3600 007e 2946     		mov	r1, r5
 3601 0080 1948     		ldr	r0, .L181+84
 3602 0082 FFF7FEFF 		bl	__aeabi_atexit
ARM GAS  /var/folders/b5/3l92j93d5t1__l78tfntmwyr0000gn/T//ccOBeKL9.s 			page 107


 3603              	.LVL188:
 3604              	.LBB891:
 3605              	.LBI891:
  13:../EZ_DSP/delay_line.h ****     ~DelayLine(){}
 3606              		.loc 14 13 5 is_stmt 1 view .LVU879
  13:../EZ_DSP/delay_line.h ****     ~DelayLine(){}
 3607              		.loc 14 13 5 is_stmt 0 view .LVU880
 3608              	.LBE891:
  35:MachineDaisyFile.cpp **** 
 3609              		.loc 15 35 51 view .LVU881
 3610 0086 2246     		mov	r2, r4
 3611 0088 1849     		ldr	r1, .L181+88
 3612 008a 1948     		ldr	r0, .L181+92
 3613              	.LBE893:
 3614              	.LBE896:
 3615              		.loc 15 251 1 view .LVU882
 3616 008c BDE83840 		pop	{r3, r4, r5, lr}
 3617              		.cfi_restore 14
 3618              		.cfi_restore 5
 3619              		.cfi_restore 4
 3620              		.cfi_restore 3
 3621              		.cfi_def_cfa_offset 0
 3622              	.LBB897:
 3623              	.LBB894:
  35:MachineDaisyFile.cpp **** 
 3624              		.loc 15 35 51 view .LVU883
 3625 0090 FFF7FEBF 		b	__aeabi_atexit
 3626              	.LVL189:
 3627              	.L182:
 3628              		.align	2
 3629              	.L181:
 3630 0094 00000000 		.word	.LANCHOR0
 3631 0098 00000000 		.word	__dso_handle
 3632 009c 00000000 		.word	_ZN5daisy9DaisySeedD1Ev
 3633 00a0 00000000 		.word	_ZN5daisy9AdcHandleD1Ev
 3634 00a4 00000000 		.word	.LANCHOR19
 3635 00a8 00000000 		.word	_ZN5daisy6SwitchD1Ev
 3636 00ac 00000000 		.word	.LANCHOR11
 3637 00b0 00000000 		.word	_ZN7daisysp5MetroD1Ev
 3638 00b4 00000000 		.word	.LANCHOR12
 3639 00b8 00000000 		.word	_ZN7daisysp14AnalogBassDrumD1Ev
 3640 00bc 00000000 		.word	.LANCHOR7
 3641 00c0 00000000 		.word	_ZN7daisysp15AnalogSnareDrumD1Ev
 3642 00c4 00000000 		.word	.LANCHOR8
 3643 00c8 00000000 		.word	_ZN7daisysp5AdEnvD1Ev
 3644 00cc 00000000 		.word	_ZN7daisysp5HiHatINS_11SquareNoiseENS_9LinearVCAELb1EED1Ev
 3645 00d0 00000000 		.word	.LANCHOR9
 3646 00d4 00000000 		.word	_ZN7daisysp17SyntheticBassDrumD1Ev
 3647 00d8 00000000 		.word	.LANCHOR10
 3648 00dc 00000000 		.word	.LANCHOR14
 3649 00e0 00000000 		.word	.LANCHOR13
 3650 00e4 00000000 		.word	.LANCHOR15
 3651 00e8 00000000 		.word	.LANCHOR16
 3652 00ec 00000000 		.word	_ZN6EZ_DSP9DelayLineIfLj96000EED1Ev
 3653 00f0 00000000 		.word	del
 3654              	.LBE894:
 3655              	.LBE897:
ARM GAS  /var/folders/b5/3l92j93d5t1__l78tfntmwyr0000gn/T//ccOBeKL9.s 			page 108


 3656              		.cfi_endproc
 3657              	.LFE5423:
 3659              		.section	.init_array,"aw",%init_array
 3660              		.align	2
 3661 0000 00000000 		.word	_GLOBAL__sub_I_drumMode(target1)
 3662              		.global	synthOn
 3663              		.global	hatOn
 3664              		.global	snareOn
 3665              		.global	kickOn
 3666              		.global	delWet
 3667              		.global	delTime
 3668              		.global	delFeedback
 3669              		.global	step
 3670              		.global	synths
 3671              		.global	hats
 3672              		.global	kicks
 3673              		.global	snares
 3674              		.global	del
 3675              		.global	synthEnv
 3676              		.global	hatEnv
 3677              		.global	snareEnv
 3678              		.global	kickEnv
 3679              		.global	synthKick
 3680              		.global	hat
 3681              		.global	snare
 3682              		.global	kick
 3683              		.global	tick
 3684              		.global	buttonValue
 3685              		.global	selector
 3686              		.global	drumMode
 3687              		.section	.bss._ZL2hw,"aw",%nobits
 3688              		.align	2
 3689              		.set	.LANCHOR0,. + 0
 3692              	_ZL2hw:
 3693 0000 00000000 		.space	60
 3693      00000000 
 3693      00000000 
 3693      00000000 
 3693      00000000 
 3694              		.section	.bss._ZL3adc,"aw",%nobits
 3695              		.align	2
 3696              		.set	.LANCHOR19,. + 0
 3699              	_ZL3adc:
 3700 0000 00000000 		.space	8
 3700      00000000 
 3701              		.section	.bss.buttonValue,"aw",%nobits
 3702              		.align	2
 3703              		.set	.LANCHOR1,. + 0
 3706              	buttonValue:
 3707 0000 00000000 		.space	4
 3708              		.section	.bss.drumMode,"aw",%nobits
 3709              		.align	2
 3710              		.set	.LANCHOR6,. + 0
 3713              	drumMode:
 3714 0000 00000000 		.space	4
 3715              		.section	.bss.hat,"aw",%nobits
 3716              		.align	2
ARM GAS  /var/folders/b5/3l92j93d5t1__l78tfntmwyr0000gn/T//ccOBeKL9.s 			page 109


 3717              		.set	.LANCHOR9,. + 0
 3720              	hat:
 3721 0000 00000000 		.space	220
 3721      00000000 
 3721      00000000 
 3721      00000000 
 3721      00000000 
 3722              		.section	.bss.hatEnv,"aw",%nobits
 3723              		.align	2
 3724              		.set	.LANCHOR15,. + 0
 3727              	hatEnv:
 3728 0000 00000000 		.space	56
 3728      00000000 
 3728      00000000 
 3728      00000000 
 3728      00000000 
 3729              		.section	.bss.hatOn,"aw",%nobits
 3732              	hatOn:
 3733 0000 00       		.space	1
 3734              		.section	.bss.hats,"aw",%nobits
 3735              		.align	2
 3736              		.set	.LANCHOR5,. + 0
 3739              	hats:
 3740 0000 00000000 		.space	4
 3741              		.section	.bss.kick,"aw",%nobits
 3742              		.align	2
 3743              		.set	.LANCHOR7,. + 0
 3746              	kick:
 3747 0000 00000000 		.space	152
 3747      00000000 
 3747      00000000 
 3747      00000000 
 3747      00000000 
 3748              		.section	.bss.kickEnv,"aw",%nobits
 3749              		.align	2
 3750              		.set	.LANCHOR14,. + 0
 3753              	kickEnv:
 3754 0000 00000000 		.space	56
 3754      00000000 
 3754      00000000 
 3754      00000000 
 3754      00000000 
 3755              		.section	.bss.kickOn,"aw",%nobits
 3758              	kickOn:
 3759 0000 00       		.space	1
 3760              		.section	.bss.kicks,"aw",%nobits
 3761              		.align	2
 3762              		.set	.LANCHOR3,. + 0
 3765              	kicks:
 3766 0000 00000000 		.space	4
 3767              		.section	.bss.selector,"aw",%nobits
 3768              		.align	2
 3769              		.set	.LANCHOR11,. + 0
 3772              	selector:
 3773 0000 00000000 		.space	16
 3773      00000000 
 3773      00000000 
ARM GAS  /var/folders/b5/3l92j93d5t1__l78tfntmwyr0000gn/T//ccOBeKL9.s 			page 110


 3773      00000000 
 3774              		.section	.bss.snare,"aw",%nobits
 3775              		.align	2
 3776              		.set	.LANCHOR8,. + 0
 3779              	snare:
 3780 0000 00000000 		.space	528
 3780      00000000 
 3780      00000000 
 3780      00000000 
 3780      00000000 
 3781              		.section	.bss.snareEnv,"aw",%nobits
 3782              		.align	2
 3783              		.set	.LANCHOR13,. + 0
 3786              	snareEnv:
 3787 0000 00000000 		.space	56
 3787      00000000 
 3787      00000000 
 3787      00000000 
 3787      00000000 
 3788              		.section	.bss.snareOn,"aw",%nobits
 3791              	snareOn:
 3792 0000 00       		.space	1
 3793              		.section	.bss.snares,"aw",%nobits
 3794              		.align	2
 3795              		.set	.LANCHOR2,. + 0
 3798              	snares:
 3799 0000 00000000 		.space	4
 3800              		.section	.bss.step,"aw",%nobits
 3801              		.align	2
 3802              		.set	.LANCHOR18,. + 0
 3805              	step:
 3806 0000 00000000 		.space	4
 3807              		.section	.bss.synthEnv,"aw",%nobits
 3808              		.align	2
 3809              		.set	.LANCHOR16,. + 0
 3812              	synthEnv:
 3813 0000 00000000 		.space	56
 3813      00000000 
 3813      00000000 
 3813      00000000 
 3813      00000000 
 3814              		.section	.bss.synthKick,"aw",%nobits
 3815              		.align	2
 3816              		.set	.LANCHOR10,. + 0
 3819              	synthKick:
 3820 0000 00000000 		.space	180
 3820      00000000 
 3820      00000000 
 3820      00000000 
 3820      00000000 
 3821              		.section	.bss.synthOn,"aw",%nobits
 3824              	synthOn:
 3825 0000 00       		.space	1
 3826              		.section	.bss.synths,"aw",%nobits
 3827              		.align	2
 3828              		.set	.LANCHOR4,. + 0
 3831              	synths:
ARM GAS  /var/folders/b5/3l92j93d5t1__l78tfntmwyr0000gn/T//ccOBeKL9.s 			page 111


 3832 0000 00000000 		.space	4
 3833              		.section	.bss.tick,"aw",%nobits
 3834              		.align	2
 3835              		.set	.LANCHOR12,. + 0
 3838              	tick:
 3839 0000 00000000 		.space	16
 3839      00000000 
 3839      00000000 
 3839      00000000 
 3840              		.section	.data.delFeedback,"aw"
 3841              		.align	2
 3844              	delFeedback:
 3845 0000 0000003F 		.word	1056964608
 3846              		.section	.data.delTime,"aw"
 3847              		.align	2
 3848              		.set	.LANCHOR17,. + 0
 3851              	delTime:
 3852 0000 00803B46 		.word	1178304512
 3853              		.section	.data.delWet,"aw"
 3854              		.align	2
 3857              	delWet:
 3858 0000 0000003F 		.word	1056964608
 3859              		.section	.sdram_bss,"aw"
 3860              		.align	2
 3863              	del:
 3864 0000 00000000 		.space	384012
 3864      00000000 
 3864      00000000 
 3864      00000000 
 3864      00000000 
 3865              		.text
 3866              	.Letext0:
 3867              		.file 21 "/Library/DaisyToolchain/0.2.0/arm/arm-none-eabi/include/machine/_default_types.h"
 3868              		.file 22 "/Library/DaisyToolchain/0.2.0/arm/arm-none-eabi/include/sys/_stdint.h"
 3869              		.file 23 "/Library/DaisyToolchain/0.2.0/arm/arm-none-eabi/include/stdint.h"
 3870              		.file 24 "/Library/DaisyToolchain/0.2.0/arm/lib/gcc/arm-none-eabi/10.3.1/include/stddef.h"
 3871              		.file 25 "/Library/DaisyToolchain/0.2.0/arm/arm-none-eabi/include/c++/10.3.1/cmath"
 3872              		.file 26 "/Library/DaisyToolchain/0.2.0/arm/arm-none-eabi/include/c++/10.3.1/bits/std_abs.h"
 3873              		.file 27 "/Library/DaisyToolchain/0.2.0/arm/arm-none-eabi/include/c++/10.3.1/cstdlib"
 3874              		.file 28 "/Library/DaisyToolchain/0.2.0/arm/arm-none-eabi/include/c++/10.3.1/cstdint"
 3875              		.file 29 "/Library/DaisyToolchain/0.2.0/arm/arm-none-eabi/include/c++/10.3.1/type_traits"
 3876              		.file 30 "/Library/DaisyToolchain/0.2.0/arm/arm-none-eabi/include/c++/10.3.1/debug/debug.h"
 3877              		.file 31 "/Library/DaisyToolchain/0.2.0/arm/arm-none-eabi/include/c++/10.3.1/arm-none-eabi/thumb/v
 3878              		.file 32 "/Library/DaisyToolchain/0.2.0/arm/arm-none-eabi/include/c++/10.3.1/bits/algorithmfwd.h"
 3879              		.file 33 "/Library/DaisyToolchain/0.2.0/arm/arm-none-eabi/include/c++/10.3.1/bits/stl_pair.h"
 3880              		.file 34 "/Library/DaisyToolchain/0.2.0/arm/arm-none-eabi/include/c++/10.3.1/bits/exception_ptr.h"
 3881              		.file 35 "/Library/DaisyToolchain/0.2.0/arm/arm-none-eabi/include/c++/10.3.1/cstdarg"
 3882              		.file 36 "/Library/DaisyToolchain/0.2.0/arm/arm-none-eabi/include/c++/10.3.1/cstdio"
 3883              		.file 37 "/Library/DaisyToolchain/0.2.0/arm/arm-none-eabi/include/c++/10.3.1/cstring"
 3884              		.file 38 "/Library/DaisyToolchain/0.2.0/arm/arm-none-eabi/include/c++/10.3.1/cwchar"
 3885              		.file 39 "/Library/DaisyToolchain/0.2.0/arm/arm-none-eabi/include/c++/10.3.1/clocale"
 3886              		.file 40 "/Library/DaisyToolchain/0.2.0/arm/arm-none-eabi/include/c++/10.3.1/bits/basic_string.h"
 3887              		.file 41 "/Library/DaisyToolchain/0.2.0/arm/arm-none-eabi/include/c++/10.3.1/bits/stl_iterator.h"
 3888              		.file 42 "/Library/DaisyToolchain/0.2.0/arm/arm-none-eabi/include/c++/10.3.1/bits/predefined_ops.h
 3889              		.file 43 "/Library/DaisyToolchain/0.2.0/arm/arm-none-eabi/include/sys/_types.h"
 3890              		.file 44 "/Library/DaisyToolchain/0.2.0/arm/arm-none-eabi/include/sys/reent.h"
 3891              		.file 45 "/Library/DaisyToolchain/0.2.0/arm/arm-none-eabi/include/sys/lock.h"
ARM GAS  /var/folders/b5/3l92j93d5t1__l78tfntmwyr0000gn/T//ccOBeKL9.s 			page 112


 3892              		.file 46 "/Library/DaisyToolchain/0.2.0/arm/arm-none-eabi/include/math.h"
 3893              		.file 47 "/Library/DaisyToolchain/0.2.0/arm/arm-none-eabi/include/stdlib.h"
 3894              		.file 48 "/Library/DaisyToolchain/0.2.0/arm/arm-none-eabi/include/c++/10.3.1/math.h"
 3895              		.file 49 "/Library/DaisyToolchain/0.2.0/arm/arm-none-eabi/include/c++/10.3.1/stdlib.h"
 3896              		.file 50 "../../DaisyExamples/libDaisy//src/per/tim.h"
 3897              		.file 51 "../../DaisyExamples/libDaisy//src/per/sai.h"
 3898              		.file 52 "../../DaisyExamples/libDaisy//src/util/wav_format.h"
 3899              		.file 53 "../../DaisyExamples/libDaisy//src/dev/max11300.h"
 3900              		.file 54 "../../DaisyExamples/libDaisy//src/per/gpio.h"
 3901              		.file 55 "../../DaisyExamples/libDaisy//src/dev/sdram.h"
 3902              		.file 56 "/Library/DaisyToolchain/0.2.0/arm/lib/gcc/arm-none-eabi/10.3.1/include/stdarg.h"
 3903              		.file 57 "/Library/DaisyToolchain/0.2.0/arm/arm-none-eabi/include/stdio.h"
 3904              		.file 58 "/Library/DaisyToolchain/0.2.0/arm/arm-none-eabi/include/string.h"
 3905              		.file 59 "/Library/DaisyToolchain/0.2.0/arm/arm-none-eabi/include/wchar.h"
 3906              		.file 60 "/Library/DaisyToolchain/0.2.0/arm/arm-none-eabi/include/locale.h"
 3907              		.file 61 "<built-in>"
 3908              		.file 62 "../../DaisyExamples/libDaisy//src/dev/sr_595.h"
ARM GAS  /var/folders/b5/3l92j93d5t1__l78tfntmwyr0000gn/T//ccOBeKL9.s 			page 113


DEFINED SYMBOLS
                            *ABS*:0000000000000000 MachineDaisyFile.cpp
/var/folders/b5/3l92j93d5t1__l78tfntmwyr0000gn/T//ccOBeKL9.s:19     .text._ZN5daisy9AdcHandleD2Ev:0000000000000000 $t
/var/folders/b5/3l92j93d5t1__l78tfntmwyr0000gn/T//ccOBeKL9.s:26     .text._ZN5daisy9AdcHandleD2Ev:0000000000000000 _ZN5daisy9AdcHandleD2Ev
/var/folders/b5/3l92j93d5t1__l78tfntmwyr0000gn/T//ccOBeKL9.s:26     .text._ZN5daisy9AdcHandleD2Ev:0000000000000000 _ZN5daisy9AdcHandleD1Ev
/var/folders/b5/3l92j93d5t1__l78tfntmwyr0000gn/T//ccOBeKL9.s:43     .text._ZN5daisy6SwitchD2Ev:0000000000000000 $t
/var/folders/b5/3l92j93d5t1__l78tfntmwyr0000gn/T//ccOBeKL9.s:50     .text._ZN5daisy6SwitchD2Ev:0000000000000000 _ZN5daisy6SwitchD2Ev
/var/folders/b5/3l92j93d5t1__l78tfntmwyr0000gn/T//ccOBeKL9.s:50     .text._ZN5daisy6SwitchD2Ev:0000000000000000 _ZN5daisy6SwitchD1Ev
/var/folders/b5/3l92j93d5t1__l78tfntmwyr0000gn/T//ccOBeKL9.s:67     .text._ZN5daisy9DaisySeedD2Ev:0000000000000000 $t
/var/folders/b5/3l92j93d5t1__l78tfntmwyr0000gn/T//ccOBeKL9.s:74     .text._ZN5daisy9DaisySeedD2Ev:0000000000000000 _ZN5daisy9DaisySeedD2Ev
/var/folders/b5/3l92j93d5t1__l78tfntmwyr0000gn/T//ccOBeKL9.s:74     .text._ZN5daisy9DaisySeedD2Ev:0000000000000000 _ZN5daisy9DaisySeedD1Ev
/var/folders/b5/3l92j93d5t1__l78tfntmwyr0000gn/T//ccOBeKL9.s:114    .text._ZN7daisysp5AdEnvD2Ev:0000000000000000 $t
/var/folders/b5/3l92j93d5t1__l78tfntmwyr0000gn/T//ccOBeKL9.s:121    .text._ZN7daisysp5AdEnvD2Ev:0000000000000000 _ZN7daisysp5AdEnvD2Ev
/var/folders/b5/3l92j93d5t1__l78tfntmwyr0000gn/T//ccOBeKL9.s:121    .text._ZN7daisysp5AdEnvD2Ev:0000000000000000 _ZN7daisysp5AdEnvD1Ev
/var/folders/b5/3l92j93d5t1__l78tfntmwyr0000gn/T//ccOBeKL9.s:138    .text._ZN7daisysp14AnalogBassDrumD2Ev:0000000000000000 $t
/var/folders/b5/3l92j93d5t1__l78tfntmwyr0000gn/T//ccOBeKL9.s:145    .text._ZN7daisysp14AnalogBassDrumD2Ev:0000000000000000 _ZN7daisysp14AnalogBassDrumD2Ev
/var/folders/b5/3l92j93d5t1__l78tfntmwyr0000gn/T//ccOBeKL9.s:145    .text._ZN7daisysp14AnalogBassDrumD2Ev:0000000000000000 _ZN7daisysp14AnalogBassDrumD1Ev
/var/folders/b5/3l92j93d5t1__l78tfntmwyr0000gn/T//ccOBeKL9.s:168    .text._ZN7daisysp15AnalogSnareDrumD2Ev:0000000000000000 $t
/var/folders/b5/3l92j93d5t1__l78tfntmwyr0000gn/T//ccOBeKL9.s:175    .text._ZN7daisysp15AnalogSnareDrumD2Ev:0000000000000000 _ZN7daisysp15AnalogSnareDrumD2Ev
/var/folders/b5/3l92j93d5t1__l78tfntmwyr0000gn/T//ccOBeKL9.s:175    .text._ZN7daisysp15AnalogSnareDrumD2Ev:0000000000000000 _ZN7daisysp15AnalogSnareDrumD1Ev
/var/folders/b5/3l92j93d5t1__l78tfntmwyr0000gn/T//ccOBeKL9.s:197    .text._ZN7daisysp17SyntheticBassDrumD2Ev:0000000000000000 $t
/var/folders/b5/3l92j93d5t1__l78tfntmwyr0000gn/T//ccOBeKL9.s:204    .text._ZN7daisysp17SyntheticBassDrumD2Ev:0000000000000000 _ZN7daisysp17SyntheticBassDrumD2Ev
/var/folders/b5/3l92j93d5t1__l78tfntmwyr0000gn/T//ccOBeKL9.s:204    .text._ZN7daisysp17SyntheticBassDrumD2Ev:0000000000000000 _ZN7daisysp17SyntheticBassDrumD1Ev
/var/folders/b5/3l92j93d5t1__l78tfntmwyr0000gn/T//ccOBeKL9.s:235    .text._ZN7daisysp5MetroD2Ev:0000000000000000 $t
/var/folders/b5/3l92j93d5t1__l78tfntmwyr0000gn/T//ccOBeKL9.s:242    .text._ZN7daisysp5MetroD2Ev:0000000000000000 _ZN7daisysp5MetroD2Ev
/var/folders/b5/3l92j93d5t1__l78tfntmwyr0000gn/T//ccOBeKL9.s:242    .text._ZN7daisysp5MetroD2Ev:0000000000000000 _ZN7daisysp5MetroD1Ev
/var/folders/b5/3l92j93d5t1__l78tfntmwyr0000gn/T//ccOBeKL9.s:259    .text._ZN7daisysp5HiHatINS_11SquareNoiseENS_9LinearVCAELb1EED2Ev:0000000000000000 $t
/var/folders/b5/3l92j93d5t1__l78tfntmwyr0000gn/T//ccOBeKL9.s:266    .text._ZN7daisysp5HiHatINS_11SquareNoiseENS_9LinearVCAELb1EED2Ev:0000000000000000 _ZN7daisysp5HiHatINS_11SquareNoiseENS_9LinearVCAELb1EED2Ev
/var/folders/b5/3l92j93d5t1__l78tfntmwyr0000gn/T//ccOBeKL9.s:266    .text._ZN7daisysp5HiHatINS_11SquareNoiseENS_9LinearVCAELb1EED2Ev:0000000000000000 _ZN7daisysp5HiHatINS_11SquareNoiseENS_9LinearVCAELb1EED1Ev
/var/folders/b5/3l92j93d5t1__l78tfntmwyr0000gn/T//ccOBeKL9.s:298    .text._ZN6EZ_DSP9DelayLineIfLj96000EED2Ev:0000000000000000 $t
/var/folders/b5/3l92j93d5t1__l78tfntmwyr0000gn/T//ccOBeKL9.s:305    .text._ZN6EZ_DSP9DelayLineIfLj96000EED2Ev:0000000000000000 _ZN6EZ_DSP9DelayLineIfLj96000EED2Ev
/var/folders/b5/3l92j93d5t1__l78tfntmwyr0000gn/T//ccOBeKL9.s:305    .text._ZN6EZ_DSP9DelayLineIfLj96000EED2Ev:0000000000000000 _ZN6EZ_DSP9DelayLineIfLj96000EED1Ev
/var/folders/b5/3l92j93d5t1__l78tfntmwyr0000gn/T//ccOBeKL9.s:322    .text._Z6myfmapfff:0000000000000000 $t
/var/folders/b5/3l92j93d5t1__l78tfntmwyr0000gn/T//ccOBeKL9.s:329    .text._Z6myfmapfff:0000000000000000 _Z6myfmapfff
/var/folders/b5/3l92j93d5t1__l78tfntmwyr0000gn/T//ccOBeKL9.s:393    .text._Z15isButtonPressedi:0000000000000000 $t
/var/folders/b5/3l92j93d5t1__l78tfntmwyr0000gn/T//ccOBeKL9.s:400    .text._Z15isButtonPressedi:0000000000000000 _Z15isButtonPressedi
/var/folders/b5/3l92j93d5t1__l78tfntmwyr0000gn/T//ccOBeKL9.s:575    .text._Z15isButtonPressedi:00000000000000d0 $d
/var/folders/b5/3l92j93d5t1__l78tfntmwyr0000gn/T//ccOBeKL9.s:587    .text._Z14processButtonsv:0000000000000000 $t
/var/folders/b5/3l92j93d5t1__l78tfntmwyr0000gn/T//ccOBeKL9.s:594    .text._Z14processButtonsv:0000000000000000 _Z14processButtonsv
/var/folders/b5/3l92j93d5t1__l78tfntmwyr0000gn/T//ccOBeKL9.s:643    .text._Z14processButtonsv:000000000000002a $d
/var/folders/b5/3l92j93d5t1__l78tfntmwyr0000gn/T//ccOBeKL9.s:647    .text._Z14processButtonsv:000000000000002e $t
/var/folders/b5/3l92j93d5t1__l78tfntmwyr0000gn/T//ccOBeKL9.s:707    .text._Z14processButtonsv:0000000000000064 $d
/var/folders/b5/3l92j93d5t1__l78tfntmwyr0000gn/T//ccOBeKL9.s:717    .text._Z13setDrumParamsv:0000000000000000 $t
/var/folders/b5/3l92j93d5t1__l78tfntmwyr0000gn/T//ccOBeKL9.s:724    .text._Z13setDrumParamsv:0000000000000000 _Z13setDrumParamsv
/var/folders/b5/3l92j93d5t1__l78tfntmwyr0000gn/T//ccOBeKL9.s:1066   .text._Z13setDrumParamsv:00000000000000d0 $d
/var/folders/b5/3l92j93d5t1__l78tfntmwyr0000gn/T//ccOBeKL9.s:1085   .text._Z14digitalButtonsv:0000000000000000 $t
/var/folders/b5/3l92j93d5t1__l78tfntmwyr0000gn/T//ccOBeKL9.s:1092   .text._Z14digitalButtonsv:0000000000000000 _Z14digitalButtonsv
/var/folders/b5/3l92j93d5t1__l78tfntmwyr0000gn/T//ccOBeKL9.s:1153   .text._Z14digitalButtonsv:000000000000002c $d
/var/folders/b5/3l92j93d5t1__l78tfntmwyr0000gn/T//ccOBeKL9.s:1159   .text._Z9initDrumsv:0000000000000000 $t
/var/folders/b5/3l92j93d5t1__l78tfntmwyr0000gn/T//ccOBeKL9.s:1166   .text._Z9initDrumsv:0000000000000000 _Z9initDrumsv
/var/folders/b5/3l92j93d5t1__l78tfntmwyr0000gn/T//ccOBeKL9.s:1702   .text._Z9initDrumsv:00000000000000f8 $d
/var/folders/b5/3l92j93d5t1__l78tfntmwyr0000gn/T//ccOBeKL9.s:1720   .text._Z8initEnvsv:0000000000000000 $t
/var/folders/b5/3l92j93d5t1__l78tfntmwyr0000gn/T//ccOBeKL9.s:1727   .text._Z8initEnvsv:0000000000000000 _Z8initEnvsv
/var/folders/b5/3l92j93d5t1__l78tfntmwyr0000gn/T//ccOBeKL9.s:2033   .text._Z8initEnvsv:0000000000000084 $d
/var/folders/b5/3l92j93d5t1__l78tfntmwyr0000gn/T//ccOBeKL9.s:2044   .text._Z12initControlsv:0000000000000000 $t
/var/folders/b5/3l92j93d5t1__l78tfntmwyr0000gn/T//ccOBeKL9.s:2051   .text._Z12initControlsv:0000000000000000 _Z12initControlsv
/var/folders/b5/3l92j93d5t1__l78tfntmwyr0000gn/T//ccOBeKL9.s:2149   .text._Z12initControlsv:000000000000004c $d
ARM GAS  /var/folders/b5/3l92j93d5t1__l78tfntmwyr0000gn/T//ccOBeKL9.s 			page 114


/var/folders/b5/3l92j93d5t1__l78tfntmwyr0000gn/T//ccOBeKL9.s:2156   .text.startup.main:0000000000000000 $t
/var/folders/b5/3l92j93d5t1__l78tfntmwyr0000gn/T//ccOBeKL9.s:2163   .text.startup.main:0000000000000000 main
/var/folders/b5/3l92j93d5t1__l78tfntmwyr0000gn/T//ccOBeKL9.s:2271   .text.startup.main:0000000000000060 $d
/var/folders/b5/3l92j93d5t1__l78tfntmwyr0000gn/T//ccOBeKL9.s:3863   .sdram_bss:0000000000000000 del
/var/folders/b5/3l92j93d5t1__l78tfntmwyr0000gn/T//ccOBeKL9.s:3250   .text._Z13AudioCallbackPKPKfPPfj:0000000000000000 _Z13AudioCallbackPKPKfPPfj
/var/folders/b5/3l92j93d5t1__l78tfntmwyr0000gn/T//ccOBeKL9.s:2280   .text._ZN7daisysp5HiHatINS_11SquareNoiseENS_9LinearVCAELb1EE7ProcessEb:0000000000000000 $t
/var/folders/b5/3l92j93d5t1__l78tfntmwyr0000gn/T//ccOBeKL9.s:2287   .text._ZN7daisysp5HiHatINS_11SquareNoiseENS_9LinearVCAELb1EE7ProcessEb:0000000000000000 _ZN7daisysp5HiHatINS_11SquareNoiseENS_9LinearVCAELb1EE7ProcessEb
/var/folders/b5/3l92j93d5t1__l78tfntmwyr0000gn/T//ccOBeKL9.s:2785   .text._ZN7daisysp5HiHatINS_11SquareNoiseENS_9LinearVCAELb1EE7ProcessEb:000000000000020c $d
/var/folders/b5/3l92j93d5t1__l78tfntmwyr0000gn/T//ccOBeKL9.s:2801   .text._Z9sequencerRfS_:0000000000000000 $t
/var/folders/b5/3l92j93d5t1__l78tfntmwyr0000gn/T//ccOBeKL9.s:2808   .text._Z9sequencerRfS_:0000000000000000 _Z9sequencerRfS_
/var/folders/b5/3l92j93d5t1__l78tfntmwyr0000gn/T//ccOBeKL9.s:3228   .text._Z9sequencerRfS_:0000000000000210 $d
/var/folders/b5/3l92j93d5t1__l78tfntmwyr0000gn/T//ccOBeKL9.s:3243   .text._Z13AudioCallbackPKPKfPPfj:0000000000000000 $t
/var/folders/b5/3l92j93d5t1__l78tfntmwyr0000gn/T//ccOBeKL9.s:3308   .text.startup._GLOBAL__sub_I_drumMode:0000000000000000 $t
/var/folders/b5/3l92j93d5t1__l78tfntmwyr0000gn/T//ccOBeKL9.s:3314   .text.startup._GLOBAL__sub_I_drumMode:0000000000000000 _GLOBAL__sub_I_drumMode
/var/folders/b5/3l92j93d5t1__l78tfntmwyr0000gn/T//ccOBeKL9.s:3630   .text.startup._GLOBAL__sub_I_drumMode:0000000000000094 $d
/var/folders/b5/3l92j93d5t1__l78tfntmwyr0000gn/T//ccOBeKL9.s:3660   .init_array:0000000000000000 $d
/var/folders/b5/3l92j93d5t1__l78tfntmwyr0000gn/T//ccOBeKL9.s:3824   .bss.synthOn:0000000000000000 synthOn
/var/folders/b5/3l92j93d5t1__l78tfntmwyr0000gn/T//ccOBeKL9.s:3732   .bss.hatOn:0000000000000000 hatOn
/var/folders/b5/3l92j93d5t1__l78tfntmwyr0000gn/T//ccOBeKL9.s:3791   .bss.snareOn:0000000000000000 snareOn
/var/folders/b5/3l92j93d5t1__l78tfntmwyr0000gn/T//ccOBeKL9.s:3758   .bss.kickOn:0000000000000000 kickOn
/var/folders/b5/3l92j93d5t1__l78tfntmwyr0000gn/T//ccOBeKL9.s:3857   .data.delWet:0000000000000000 delWet
/var/folders/b5/3l92j93d5t1__l78tfntmwyr0000gn/T//ccOBeKL9.s:3851   .data.delTime:0000000000000000 delTime
/var/folders/b5/3l92j93d5t1__l78tfntmwyr0000gn/T//ccOBeKL9.s:3844   .data.delFeedback:0000000000000000 delFeedback
/var/folders/b5/3l92j93d5t1__l78tfntmwyr0000gn/T//ccOBeKL9.s:3805   .bss.step:0000000000000000 step
/var/folders/b5/3l92j93d5t1__l78tfntmwyr0000gn/T//ccOBeKL9.s:3831   .bss.synths:0000000000000000 synths
/var/folders/b5/3l92j93d5t1__l78tfntmwyr0000gn/T//ccOBeKL9.s:3739   .bss.hats:0000000000000000 hats
/var/folders/b5/3l92j93d5t1__l78tfntmwyr0000gn/T//ccOBeKL9.s:3765   .bss.kicks:0000000000000000 kicks
/var/folders/b5/3l92j93d5t1__l78tfntmwyr0000gn/T//ccOBeKL9.s:3798   .bss.snares:0000000000000000 snares
/var/folders/b5/3l92j93d5t1__l78tfntmwyr0000gn/T//ccOBeKL9.s:3812   .bss.synthEnv:0000000000000000 synthEnv
/var/folders/b5/3l92j93d5t1__l78tfntmwyr0000gn/T//ccOBeKL9.s:3727   .bss.hatEnv:0000000000000000 hatEnv
/var/folders/b5/3l92j93d5t1__l78tfntmwyr0000gn/T//ccOBeKL9.s:3786   .bss.snareEnv:0000000000000000 snareEnv
/var/folders/b5/3l92j93d5t1__l78tfntmwyr0000gn/T//ccOBeKL9.s:3753   .bss.kickEnv:0000000000000000 kickEnv
/var/folders/b5/3l92j93d5t1__l78tfntmwyr0000gn/T//ccOBeKL9.s:3819   .bss.synthKick:0000000000000000 synthKick
/var/folders/b5/3l92j93d5t1__l78tfntmwyr0000gn/T//ccOBeKL9.s:3720   .bss.hat:0000000000000000 hat
/var/folders/b5/3l92j93d5t1__l78tfntmwyr0000gn/T//ccOBeKL9.s:3779   .bss.snare:0000000000000000 snare
/var/folders/b5/3l92j93d5t1__l78tfntmwyr0000gn/T//ccOBeKL9.s:3746   .bss.kick:0000000000000000 kick
/var/folders/b5/3l92j93d5t1__l78tfntmwyr0000gn/T//ccOBeKL9.s:3838   .bss.tick:0000000000000000 tick
/var/folders/b5/3l92j93d5t1__l78tfntmwyr0000gn/T//ccOBeKL9.s:3706   .bss.buttonValue:0000000000000000 buttonValue
/var/folders/b5/3l92j93d5t1__l78tfntmwyr0000gn/T//ccOBeKL9.s:3772   .bss.selector:0000000000000000 selector
/var/folders/b5/3l92j93d5t1__l78tfntmwyr0000gn/T//ccOBeKL9.s:3713   .bss.drumMode:0000000000000000 drumMode
/var/folders/b5/3l92j93d5t1__l78tfntmwyr0000gn/T//ccOBeKL9.s:3688   .bss._ZL2hw:0000000000000000 $d
/var/folders/b5/3l92j93d5t1__l78tfntmwyr0000gn/T//ccOBeKL9.s:3692   .bss._ZL2hw:0000000000000000 _ZL2hw
/var/folders/b5/3l92j93d5t1__l78tfntmwyr0000gn/T//ccOBeKL9.s:3695   .bss._ZL3adc:0000000000000000 $d
/var/folders/b5/3l92j93d5t1__l78tfntmwyr0000gn/T//ccOBeKL9.s:3699   .bss._ZL3adc:0000000000000000 _ZL3adc
/var/folders/b5/3l92j93d5t1__l78tfntmwyr0000gn/T//ccOBeKL9.s:3702   .bss.buttonValue:0000000000000000 $d
/var/folders/b5/3l92j93d5t1__l78tfntmwyr0000gn/T//ccOBeKL9.s:3709   .bss.drumMode:0000000000000000 $d
/var/folders/b5/3l92j93d5t1__l78tfntmwyr0000gn/T//ccOBeKL9.s:3716   .bss.hat:0000000000000000 $d
/var/folders/b5/3l92j93d5t1__l78tfntmwyr0000gn/T//ccOBeKL9.s:3723   .bss.hatEnv:0000000000000000 $d
/var/folders/b5/3l92j93d5t1__l78tfntmwyr0000gn/T//ccOBeKL9.s:3733   .bss.hatOn:0000000000000000 $d
/var/folders/b5/3l92j93d5t1__l78tfntmwyr0000gn/T//ccOBeKL9.s:3735   .bss.hats:0000000000000000 $d
/var/folders/b5/3l92j93d5t1__l78tfntmwyr0000gn/T//ccOBeKL9.s:3742   .bss.kick:0000000000000000 $d
/var/folders/b5/3l92j93d5t1__l78tfntmwyr0000gn/T//ccOBeKL9.s:3749   .bss.kickEnv:0000000000000000 $d
/var/folders/b5/3l92j93d5t1__l78tfntmwyr0000gn/T//ccOBeKL9.s:3759   .bss.kickOn:0000000000000000 $d
/var/folders/b5/3l92j93d5t1__l78tfntmwyr0000gn/T//ccOBeKL9.s:3761   .bss.kicks:0000000000000000 $d
/var/folders/b5/3l92j93d5t1__l78tfntmwyr0000gn/T//ccOBeKL9.s:3768   .bss.selector:0000000000000000 $d
/var/folders/b5/3l92j93d5t1__l78tfntmwyr0000gn/T//ccOBeKL9.s:3775   .bss.snare:0000000000000000 $d
/var/folders/b5/3l92j93d5t1__l78tfntmwyr0000gn/T//ccOBeKL9.s:3782   .bss.snareEnv:0000000000000000 $d
ARM GAS  /var/folders/b5/3l92j93d5t1__l78tfntmwyr0000gn/T//ccOBeKL9.s 			page 115


/var/folders/b5/3l92j93d5t1__l78tfntmwyr0000gn/T//ccOBeKL9.s:3792   .bss.snareOn:0000000000000000 $d
/var/folders/b5/3l92j93d5t1__l78tfntmwyr0000gn/T//ccOBeKL9.s:3794   .bss.snares:0000000000000000 $d
/var/folders/b5/3l92j93d5t1__l78tfntmwyr0000gn/T//ccOBeKL9.s:3801   .bss.step:0000000000000000 $d
/var/folders/b5/3l92j93d5t1__l78tfntmwyr0000gn/T//ccOBeKL9.s:3808   .bss.synthEnv:0000000000000000 $d
/var/folders/b5/3l92j93d5t1__l78tfntmwyr0000gn/T//ccOBeKL9.s:3815   .bss.synthKick:0000000000000000 $d
/var/folders/b5/3l92j93d5t1__l78tfntmwyr0000gn/T//ccOBeKL9.s:3825   .bss.synthOn:0000000000000000 $d
/var/folders/b5/3l92j93d5t1__l78tfntmwyr0000gn/T//ccOBeKL9.s:3827   .bss.synths:0000000000000000 $d
/var/folders/b5/3l92j93d5t1__l78tfntmwyr0000gn/T//ccOBeKL9.s:3834   .bss.tick:0000000000000000 $d
/var/folders/b5/3l92j93d5t1__l78tfntmwyr0000gn/T//ccOBeKL9.s:3841   .data.delFeedback:0000000000000000 $d
/var/folders/b5/3l92j93d5t1__l78tfntmwyr0000gn/T//ccOBeKL9.s:3847   .data.delTime:0000000000000000 $d
/var/folders/b5/3l92j93d5t1__l78tfntmwyr0000gn/T//ccOBeKL9.s:3854   .data.delWet:0000000000000000 $d
/var/folders/b5/3l92j93d5t1__l78tfntmwyr0000gn/T//ccOBeKL9.s:3860   .sdram_bss:0000000000000000 $d
                           .group:0000000000000000 _ZN5daisy9AdcHandleD5Ev
                           .group:0000000000000000 _ZN5daisy6SwitchD5Ev
                           .group:0000000000000000 _ZN5daisy9DaisySeedD5Ev
                           .group:0000000000000000 _ZN7daisysp5AdEnvD5Ev
                           .group:0000000000000000 _ZN7daisysp14AnalogBassDrumD5Ev
                           .group:0000000000000000 _ZN7daisysp15AnalogSnareDrumD5Ev
                           .group:0000000000000000 _ZN7daisysp17SyntheticBassDrumD5Ev
                           .group:0000000000000000 _ZN7daisysp5MetroD5Ev
                           .group:0000000000000000 _ZN7daisysp5HiHatINS_11SquareNoiseENS_9LinearVCAELb1EED5Ev
                           .group:0000000000000000 _ZN6EZ_DSP9DelayLineIfLj96000EED5Ev

UNDEFINED SYMBOLS
_ZNK5daisy9AdcHandle8GetFloatEh
_ZN7daisysp14AnalogBassDrum7SetToneEf
_ZN7daisysp14AnalogBassDrum8SetDecayEf
_ZN7daisysp14AnalogBassDrum15SetSelfFmAmountEf
_ZN7daisysp15AnalogSnareDrum9SetAccentEf
_ZN7daisysp15AnalogSnareDrum8SetDecayEf
_ZN7daisysp15AnalogSnareDrum7SetToneEf
_ZN7daisysp15AnalogSnareDrum9SetSnappyEf
_ZN7daisysp17SyntheticBassDrum9SetAccentEf
_ZN7daisysp17SyntheticBassDrum12SetDirtinessEf
_ZN7daisysp17SyntheticBassDrum8SetDecayEf
_ZN7daisysp17SyntheticBassDrum7SetFreqEf
_ZN5daisy6Switch8DebounceEv
_ZN5daisy9DaisySeed15AudioSampleRateEv
_ZN7daisysp14AnalogBassDrum4InitEf
_ZN7daisysp15AnalogSnareDrum4InitEf
_ZN7daisysp11SquareNoise4InitEf
_ZN7daisysp3Svf4InitEf
_ZN7daisysp17SyntheticBassDrum4InitEf
_ZN7daisysp5Metro4InitEff
_ZN7daisysp5AdEnv4InitEf
_ZN5daisy16AdcChannelConfig10InitSingleE12dsy_gpio_pin
_ZN5daisy9AdcHandle4InitEPNS_16AdcChannelConfigEjNS0_12OverSamplingE
_ZN5daisy9AdcHandle5StartEv
_ZN5daisy6Switch4InitE12dsy_gpio_pinf
_ZN5daisy9DaisySeed4InitEb
_ZN5daisy9DaisySeed17SetAudioBlockSizeEj
_ZN5daisy9DaisySeed18SetAudioSampleRateENS_9SaiHandle6Config10SampleRateE
_ZN5daisy9DaisySeed6SetLedEb
_ZN5daisy9DaisySeed10StartAudioEPFvPKPKfPPfjE
powf
_ZN7daisysp11SquareNoise7ProcessEf
_ZN7daisysp3Svf7SetFreqEf
ARM GAS  /var/folders/b5/3l92j93d5t1__l78tfntmwyr0000gn/T//ccOBeKL9.s 			page 116


_ZN7daisysp3Svf6SetResEf
_ZN7daisysp3Svf7ProcessEf
rand
_ZN7daisysp5Metro7ProcessEv
_ZN7daisysp14AnalogBassDrum7ProcessEb
_ZN7daisysp15AnalogSnareDrum7ProcessEb
_ZN7daisysp17SyntheticBassDrum7ProcessEb
__aeabi_atexit
__dso_handle
