ARM GAS  /var/folders/b5/3l92j93d5t1__l78tfntmwyr0000gn/T//ccd9zsAq.s 			page 1


   1              		.cpu cortex-m7
   2              		.arch armv7e-m
   3              		.fpu fpv5-d16
   4              		.eabi_attribute 28, 1
   5              		.eabi_attribute 20, 1
   6              		.eabi_attribute 21, 1
   7              		.eabi_attribute 23, 3
   8              		.eabi_attribute 24, 1
   9              		.eabi_attribute 25, 1
  10              		.eabi_attribute 26, 1
  11              		.eabi_attribute 30, 2
  12              		.eabi_attribute 34, 1
  13              		.eabi_attribute 18, 4
  14              		.file	"MachineDaisyFile.cpp"
  15              		.text
  16              	.Ltext0:
  17              		.cfi_sections	.debug_frame
  18              		.section	.text._ZN5daisy9AdcHandleD2Ev,"axG",%progbits,_ZN5daisy9AdcHandleD5Ev,comdat
  19              		.align	1
  20              		.p2align 2,,3
  21              		.weak	_ZN5daisy9AdcHandleD2Ev
  22              		.syntax unified
  23              		.thumb
  24              		.thumb_func
  26              	_ZN5daisy9AdcHandleD2Ev:
  27              	.LVL0:
  28              	.LFB671:
  29              		.file 1 "../../DaisyExamples/libDaisy//src/per/adc.h"
   1:../../DaisyExamples/libDaisy//src/per/adc.h **** #pragma once
   2:../../DaisyExamples/libDaisy//src/per/adc.h **** #ifndef DSY_ADC_H
   3:../../DaisyExamples/libDaisy//src/per/adc.h **** #define DSY_ADC_H /**< Macro */
   4:../../DaisyExamples/libDaisy//src/per/adc.h **** #include <stdint.h>
   5:../../DaisyExamples/libDaisy//src/per/adc.h **** #include <stdlib.h>
   6:../../DaisyExamples/libDaisy//src/per/adc.h **** #include "daisy_core.h"
   7:../../DaisyExamples/libDaisy//src/per/adc.h **** #include "per/gpio.h"
   8:../../DaisyExamples/libDaisy//src/per/adc.h **** 
   9:../../DaisyExamples/libDaisy//src/per/adc.h **** #define DSY_ADC_MAX_CHANNELS 16 /**< Maximum number of ADC channels */
  10:../../DaisyExamples/libDaisy//src/per/adc.h **** 
  11:../../DaisyExamples/libDaisy//src/per/adc.h **** namespace daisy
  12:../../DaisyExamples/libDaisy//src/per/adc.h **** {
  13:../../DaisyExamples/libDaisy//src/per/adc.h **** /** @addtogroup per_analog
  14:../../DaisyExamples/libDaisy//src/per/adc.h ****     @{
  15:../../DaisyExamples/libDaisy//src/per/adc.h **** */
  16:../../DaisyExamples/libDaisy//src/per/adc.h **** 
  17:../../DaisyExamples/libDaisy//src/per/adc.h **** /* While there may not be many configuration options here,
  18:../../DaisyExamples/libDaisy//src/per/adc.h **** using a struct like this allows us to add more configuration
  19:../../DaisyExamples/libDaisy//src/per/adc.h **** later without breaking existing functionality.
  20:../../DaisyExamples/libDaisy//src/per/adc.h **** */
  21:../../DaisyExamples/libDaisy//src/per/adc.h **** 
  22:../../DaisyExamples/libDaisy//src/per/adc.h **** /** @brief   Configuration Structure for an ADC Channel 
  23:../../DaisyExamples/libDaisy//src/per/adc.h ****  *  @details This can be used to configure a a single input, 
  24:../../DaisyExamples/libDaisy//src/per/adc.h ****  *           or a multiplexed input, allowing up to 8 inputs on 
  25:../../DaisyExamples/libDaisy//src/per/adc.h ****  *           one channel.
  26:../../DaisyExamples/libDaisy//src/per/adc.h ****  *  @note    Sharing data lines to multiple muxes _is_ possible, but
  27:../../DaisyExamples/libDaisy//src/per/adc.h ****  *           each channel sharing data lines must be set to the maximum
  28:../../DaisyExamples/libDaisy//src/per/adc.h ****  *           number of channels, even if some multiplexers have fewer
  29:../../DaisyExamples/libDaisy//src/per/adc.h ****  *           inputs connected.
ARM GAS  /var/folders/b5/3l92j93d5t1__l78tfntmwyr0000gn/T//ccd9zsAq.s 			page 2


  30:../../DaisyExamples/libDaisy//src/per/adc.h **** */
  31:../../DaisyExamples/libDaisy//src/per/adc.h **** struct AdcChannelConfig
  32:../../DaisyExamples/libDaisy//src/per/adc.h **** {
  33:../../DaisyExamples/libDaisy//src/per/adc.h ****     /** Which pin to use for multiplexing */
  34:../../DaisyExamples/libDaisy//src/per/adc.h ****     enum MuxPin
  35:../../DaisyExamples/libDaisy//src/per/adc.h ****     {
  36:../../DaisyExamples/libDaisy//src/per/adc.h ****         MUX_SEL_0,    /**< & */
  37:../../DaisyExamples/libDaisy//src/per/adc.h ****         MUX_SEL_1,    /**< & */
  38:../../DaisyExamples/libDaisy//src/per/adc.h ****         MUX_SEL_2,    /**< & */
  39:../../DaisyExamples/libDaisy//src/per/adc.h ****         MUX_SEL_LAST, /**< & */
  40:../../DaisyExamples/libDaisy//src/per/adc.h ****     };
  41:../../DaisyExamples/libDaisy//src/per/adc.h **** 
  42:../../DaisyExamples/libDaisy//src/per/adc.h ****     /** Initializes a single ADC pin as an ADC. 
  43:../../DaisyExamples/libDaisy//src/per/adc.h ****     \param pin Pin to init.
  44:../../DaisyExamples/libDaisy//src/per/adc.h ****      */
  45:../../DaisyExamples/libDaisy//src/per/adc.h ****     void InitSingle(dsy_gpio_pin pin);
  46:../../DaisyExamples/libDaisy//src/per/adc.h **** 
  47:../../DaisyExamples/libDaisy//src/per/adc.h ****     /** 
  48:../../DaisyExamples/libDaisy//src/per/adc.h ****     Initializes a single ADC pin as a Multiplexed ADC.
  49:../../DaisyExamples/libDaisy//src/per/adc.h ****     Requires a CD405X Multiplexer connected to the pin.
  50:../../DaisyExamples/libDaisy//src/per/adc.h ****     You only need to supply the mux pins that are required,
  51:../../DaisyExamples/libDaisy//src/per/adc.h ****     e.g. a 4052 mux would only require mux_0 and mux_1.
  52:../../DaisyExamples/libDaisy//src/per/adc.h ****     Internal Callbacks handle the pin addressing.
  53:../../DaisyExamples/libDaisy//src/per/adc.h ****     \param mux_channels must be 1-8
  54:../../DaisyExamples/libDaisy//src/per/adc.h ****     \param mux_0 First mux pin
  55:../../DaisyExamples/libDaisy//src/per/adc.h ****     \param mux_1 Second mux pin
  56:../../DaisyExamples/libDaisy//src/per/adc.h ****     \param mux_2 Third mux pin
  57:../../DaisyExamples/libDaisy//src/per/adc.h ****     \param adc_pin &
  58:../../DaisyExamples/libDaisy//src/per/adc.h ****     */
  59:../../DaisyExamples/libDaisy//src/per/adc.h ****     void InitMux(dsy_gpio_pin adc_pin,
  60:../../DaisyExamples/libDaisy//src/per/adc.h ****                  size_t       mux_channels,
  61:../../DaisyExamples/libDaisy//src/per/adc.h ****                  dsy_gpio_pin mux_0,
  62:../../DaisyExamples/libDaisy//src/per/adc.h ****                  dsy_gpio_pin mux_1 = {DSY_GPIOX, 0},
  63:../../DaisyExamples/libDaisy//src/per/adc.h ****                  dsy_gpio_pin mux_2 = {DSY_GPIOX, 0});
  64:../../DaisyExamples/libDaisy//src/per/adc.h **** 
  65:../../DaisyExamples/libDaisy//src/per/adc.h ****     dsy_gpio pin_;                   /**< & */
  66:../../DaisyExamples/libDaisy//src/per/adc.h ****     dsy_gpio mux_pin_[MUX_SEL_LAST]; /**< & */
  67:../../DaisyExamples/libDaisy//src/per/adc.h ****     uint8_t  mux_channels_;          /**< & */
  68:../../DaisyExamples/libDaisy//src/per/adc.h **** };
  69:../../DaisyExamples/libDaisy//src/per/adc.h **** 
  70:../../DaisyExamples/libDaisy//src/per/adc.h **** /**
  71:../../DaisyExamples/libDaisy//src/per/adc.h ****    @brief Handler for analog to digital conversion
  72:../../DaisyExamples/libDaisy//src/per/adc.h **** */
  73:../../DaisyExamples/libDaisy//src/per/adc.h **** class AdcHandle
  74:../../DaisyExamples/libDaisy//src/per/adc.h **** {
  75:../../DaisyExamples/libDaisy//src/per/adc.h ****   public:
  76:../../DaisyExamples/libDaisy//src/per/adc.h ****     /** Supported oversampling amounts */
  77:../../DaisyExamples/libDaisy//src/per/adc.h ****     enum OverSampling
  78:../../DaisyExamples/libDaisy//src/per/adc.h ****     {
  79:../../DaisyExamples/libDaisy//src/per/adc.h ****         OVS_NONE, /**< & */
  80:../../DaisyExamples/libDaisy//src/per/adc.h ****         OVS_4,    /**< & */
  81:../../DaisyExamples/libDaisy//src/per/adc.h ****         OVS_8,    /**< & */
  82:../../DaisyExamples/libDaisy//src/per/adc.h ****         OVS_16,   /**< & */
  83:../../DaisyExamples/libDaisy//src/per/adc.h ****         OVS_32,   /**< & */
  84:../../DaisyExamples/libDaisy//src/per/adc.h ****         OVS_64,   /**< & */
  85:../../DaisyExamples/libDaisy//src/per/adc.h ****         OVS_128,  /**< & */
  86:../../DaisyExamples/libDaisy//src/per/adc.h ****         OVS_256,  /**< & */
ARM GAS  /var/folders/b5/3l92j93d5t1__l78tfntmwyr0000gn/T//ccd9zsAq.s 			page 3


  87:../../DaisyExamples/libDaisy//src/per/adc.h ****         OVS_512,  /**< & */
  88:../../DaisyExamples/libDaisy//src/per/adc.h ****         OVS_1024, /**< & */
  89:../../DaisyExamples/libDaisy//src/per/adc.h ****         OVS_LAST, /**< & */
  90:../../DaisyExamples/libDaisy//src/per/adc.h ****     };
  91:../../DaisyExamples/libDaisy//src/per/adc.h **** 
  92:../../DaisyExamples/libDaisy//src/per/adc.h ****     AdcHandle() {}
  93:../../DaisyExamples/libDaisy//src/per/adc.h ****     ~AdcHandle() {}
  30              		.loc 1 93 5 view -0
  31              		.cfi_startproc
  32              		@ args = 0, pretend = 0, frame = 0
  33              		@ frame_needed = 0, uses_anonymous_args = 0
  34              		@ link register save eliminated.
  35              		.loc 1 93 19 is_stmt 0 view .LVU1
  36 0000 7047     		bx	lr
  37              		.cfi_endproc
  38              	.LFE671:
  40              		.weak	_ZN5daisy9AdcHandleD1Ev
  41              		.thumb_set _ZN5daisy9AdcHandleD1Ev,_ZN5daisy9AdcHandleD2Ev
  42 0002 00BF     		.section	.text._ZN5daisy6SwitchD2Ev,"axG",%progbits,_ZN5daisy6SwitchD5Ev,comdat
  43              		.align	1
  44              		.p2align 2,,3
  45              		.weak	_ZN5daisy6SwitchD2Ev
  46              		.syntax unified
  47              		.thumb
  48              		.thumb_func
  50              	_ZN5daisy6SwitchD2Ev:
  51              	.LVL1:
  52              	.LFB1606:
  53              		.file 2 "../../DaisyExamples/libDaisy//src/hid/switch.h"
   1:../../DaisyExamples/libDaisy//src/hid/switch.h **** #pragma once
   2:../../DaisyExamples/libDaisy//src/hid/switch.h **** #ifndef DSY_SWITCH_H
   3:../../DaisyExamples/libDaisy//src/hid/switch.h **** #define DSY_SWITCH_H
   4:../../DaisyExamples/libDaisy//src/hid/switch.h **** #include "daisy_core.h"
   5:../../DaisyExamples/libDaisy//src/hid/switch.h **** #include "per/gpio.h"
   6:../../DaisyExamples/libDaisy//src/hid/switch.h **** #include "sys/system.h"
   7:../../DaisyExamples/libDaisy//src/hid/switch.h **** 
   8:../../DaisyExamples/libDaisy//src/hid/switch.h **** namespace daisy
   9:../../DaisyExamples/libDaisy//src/hid/switch.h **** {
  10:../../DaisyExamples/libDaisy//src/hid/switch.h **** /** 
  11:../../DaisyExamples/libDaisy//src/hid/switch.h ****     Generic Class for handling momentary/latching switches \n 
  12:../../DaisyExamples/libDaisy//src/hid/switch.h ****     Inspired/influenced by Mutable Instruments (pichenettes) Switch classes
  13:../../DaisyExamples/libDaisy//src/hid/switch.h ****     @author Stephen Hensley
  14:../../DaisyExamples/libDaisy//src/hid/switch.h ****     @date December 2019
  15:../../DaisyExamples/libDaisy//src/hid/switch.h ****     @ingroup controls
  16:../../DaisyExamples/libDaisy//src/hid/switch.h **** */
  17:../../DaisyExamples/libDaisy//src/hid/switch.h **** class Switch
  18:../../DaisyExamples/libDaisy//src/hid/switch.h **** {
  19:../../DaisyExamples/libDaisy//src/hid/switch.h ****   public:
  20:../../DaisyExamples/libDaisy//src/hid/switch.h ****     /** Specifies the expected behavior of the switch */
  21:../../DaisyExamples/libDaisy//src/hid/switch.h ****     enum Type
  22:../../DaisyExamples/libDaisy//src/hid/switch.h ****     {
  23:../../DaisyExamples/libDaisy//src/hid/switch.h ****         TYPE_TOGGLE,    /**< & */
  24:../../DaisyExamples/libDaisy//src/hid/switch.h ****         TYPE_MOMENTARY, /**< & */
  25:../../DaisyExamples/libDaisy//src/hid/switch.h ****     };
  26:../../DaisyExamples/libDaisy//src/hid/switch.h ****     /** Specifies whether the pressed is HIGH or LOW. */
  27:../../DaisyExamples/libDaisy//src/hid/switch.h ****     enum Polarity
  28:../../DaisyExamples/libDaisy//src/hid/switch.h ****     {
ARM GAS  /var/folders/b5/3l92j93d5t1__l78tfntmwyr0000gn/T//ccd9zsAq.s 			page 4


  29:../../DaisyExamples/libDaisy//src/hid/switch.h ****         POLARITY_NORMAL,   /**< & */
  30:../../DaisyExamples/libDaisy//src/hid/switch.h ****         POLARITY_INVERTED, /**< & */
  31:../../DaisyExamples/libDaisy//src/hid/switch.h ****     };
  32:../../DaisyExamples/libDaisy//src/hid/switch.h **** 
  33:../../DaisyExamples/libDaisy//src/hid/switch.h ****     /** Specifies whether to use built-in Pull Up/Down resistors to hold button at a given state wh
  34:../../DaisyExamples/libDaisy//src/hid/switch.h ****     enum Pull
  35:../../DaisyExamples/libDaisy//src/hid/switch.h ****     {
  36:../../DaisyExamples/libDaisy//src/hid/switch.h ****         PULL_UP,   /**< & */
  37:../../DaisyExamples/libDaisy//src/hid/switch.h ****         PULL_DOWN, /**< & */
  38:../../DaisyExamples/libDaisy//src/hid/switch.h ****         PULL_NONE, /**< & */
  39:../../DaisyExamples/libDaisy//src/hid/switch.h ****     };
  40:../../DaisyExamples/libDaisy//src/hid/switch.h **** 
  41:../../DaisyExamples/libDaisy//src/hid/switch.h ****     Switch() {}
  42:../../DaisyExamples/libDaisy//src/hid/switch.h ****     ~Switch() {}
  54              		.loc 2 42 5 is_stmt 1 view -0
  55              		.cfi_startproc
  56              		@ args = 0, pretend = 0, frame = 0
  57              		@ frame_needed = 0, uses_anonymous_args = 0
  58              		@ link register save eliminated.
  59              		.loc 2 42 16 is_stmt 0 view .LVU3
  60 0000 7047     		bx	lr
  61              		.cfi_endproc
  62              	.LFE1606:
  64              		.weak	_ZN5daisy6SwitchD1Ev
  65              		.thumb_set _ZN5daisy6SwitchD1Ev,_ZN5daisy6SwitchD2Ev
  66 0002 00BF     		.section	.text._ZN5daisy9DaisySeedD2Ev,"axG",%progbits,_ZN5daisy9DaisySeedD5Ev,comdat
  67              		.align	1
  68              		.p2align 2,,3
  69              		.weak	_ZN5daisy9DaisySeedD2Ev
  70              		.syntax unified
  71              		.thumb
  72              		.thumb_func
  74              	_ZN5daisy9DaisySeedD2Ev:
  75              	.LVL2:
  76              	.LFB2529:
  77              		.file 3 "../../DaisyExamples/libDaisy//src/daisy_seed.h"
   1:../../DaisyExamples/libDaisy//src/daisy_seed.h **** #pragma once
   2:../../DaisyExamples/libDaisy//src/daisy_seed.h **** #ifndef DSY_SEED_H
   3:../../DaisyExamples/libDaisy//src/daisy_seed.h **** #define DSY_SEED_H
   4:../../DaisyExamples/libDaisy//src/daisy_seed.h **** 
   5:../../DaisyExamples/libDaisy//src/daisy_seed.h **** #include "daisy.h"
   6:../../DaisyExamples/libDaisy//src/daisy_seed.h **** 
   7:../../DaisyExamples/libDaisy//src/daisy_seed.h **** //Uncomment this out if you're still using the rev2 hardware
   8:../../DaisyExamples/libDaisy//src/daisy_seed.h **** //#define SEED_REV2
   9:../../DaisyExamples/libDaisy//src/daisy_seed.h **** 
  10:../../DaisyExamples/libDaisy//src/daisy_seed.h **** namespace daisy
  11:../../DaisyExamples/libDaisy//src/daisy_seed.h **** {
  12:../../DaisyExamples/libDaisy//src/daisy_seed.h **** /**
  13:../../DaisyExamples/libDaisy//src/daisy_seed.h ****    @brief This is the higher-level interface for the Daisy board. \n 
  14:../../DaisyExamples/libDaisy//src/daisy_seed.h ****     All basic peripheral configuration/initialization is setup here. \n
  15:../../DaisyExamples/libDaisy//src/daisy_seed.h **** 
  16:../../DaisyExamples/libDaisy//src/daisy_seed.h ****    @ingroup boards
  17:../../DaisyExamples/libDaisy//src/daisy_seed.h **** */
  18:../../DaisyExamples/libDaisy//src/daisy_seed.h **** class DaisySeed
  19:../../DaisyExamples/libDaisy//src/daisy_seed.h **** {
  20:../../DaisyExamples/libDaisy//src/daisy_seed.h ****   public:
  21:../../DaisyExamples/libDaisy//src/daisy_seed.h ****     DaisySeed() {}
ARM GAS  /var/folders/b5/3l92j93d5t1__l78tfntmwyr0000gn/T//ccd9zsAq.s 			page 5


  22:../../DaisyExamples/libDaisy//src/daisy_seed.h ****     ~DaisySeed() {}
  78              		.loc 3 22 5 is_stmt 1 view -0
  79              		.cfi_startproc
  80              		@ args = 0, pretend = 0, frame = 0
  81              		@ frame_needed = 0, uses_anonymous_args = 0
  82              		@ link register save eliminated.
  83              	.LBB389:
  84              	.LBI389:
  85              		.file 4 "../../DaisyExamples/libDaisy//src/sys/system.h"
   1:../../DaisyExamples/libDaisy//src/sys/system.h **** #ifndef DSY_SYSTEM_H
   2:../../DaisyExamples/libDaisy//src/sys/system.h **** #define DSY_SYSTEM_H
   3:../../DaisyExamples/libDaisy//src/sys/system.h **** 
   4:../../DaisyExamples/libDaisy//src/sys/system.h **** #ifndef UNIT_TEST // for unit tests, a dummy implementation is provided below
   5:../../DaisyExamples/libDaisy//src/sys/system.h **** 
   6:../../DaisyExamples/libDaisy//src/sys/system.h **** #include <cstdint>
   7:../../DaisyExamples/libDaisy//src/sys/system.h **** #include "per/tim.h"
   8:../../DaisyExamples/libDaisy//src/sys/system.h **** 
   9:../../DaisyExamples/libDaisy//src/sys/system.h **** namespace daisy
  10:../../DaisyExamples/libDaisy//src/sys/system.h **** {
  11:../../DaisyExamples/libDaisy//src/sys/system.h **** /** A handle for interacting with the Core System. 
  12:../../DaisyExamples/libDaisy//src/sys/system.h ****  ** This includes the Clock tree, MPU, global DMA initialization,
  13:../../DaisyExamples/libDaisy//src/sys/system.h ****  ** cache handling, and any other necessary global initiailzation
  14:../../DaisyExamples/libDaisy//src/sys/system.h ****  **
  15:../../DaisyExamples/libDaisy//src/sys/system.h ****  ** @author shensley
  16:../../DaisyExamples/libDaisy//src/sys/system.h ****  ** @ingroup system
  17:../../DaisyExamples/libDaisy//src/sys/system.h ****  */
  18:../../DaisyExamples/libDaisy//src/sys/system.h **** class System
  19:../../DaisyExamples/libDaisy//src/sys/system.h **** {
  20:../../DaisyExamples/libDaisy//src/sys/system.h ****   public:
  21:../../DaisyExamples/libDaisy//src/sys/system.h ****     /** Contains settings for initializing the System */
  22:../../DaisyExamples/libDaisy//src/sys/system.h ****     struct Config
  23:../../DaisyExamples/libDaisy//src/sys/system.h ****     {
  24:../../DaisyExamples/libDaisy//src/sys/system.h ****         /** Specifies the system clock frequency that feeds APB/AHB clocks, etc. */
  25:../../DaisyExamples/libDaisy//src/sys/system.h ****         enum class SysClkFreq
  26:../../DaisyExamples/libDaisy//src/sys/system.h ****         {
  27:../../DaisyExamples/libDaisy//src/sys/system.h ****             FREQ_400MHZ,
  28:../../DaisyExamples/libDaisy//src/sys/system.h ****             FREQ_480MHZ,
  29:../../DaisyExamples/libDaisy//src/sys/system.h ****         };
  30:../../DaisyExamples/libDaisy//src/sys/system.h **** 
  31:../../DaisyExamples/libDaisy//src/sys/system.h ****         /** Method to call on the struct to set to defaults
  32:../../DaisyExamples/libDaisy//src/sys/system.h ****          ** CPU Freq set to 400MHz
  33:../../DaisyExamples/libDaisy//src/sys/system.h ****          ** Cache Enabled 
  34:../../DaisyExamples/libDaisy//src/sys/system.h ****          ** */
  35:../../DaisyExamples/libDaisy//src/sys/system.h ****         void Defaults()
  36:../../DaisyExamples/libDaisy//src/sys/system.h ****         {
  37:../../DaisyExamples/libDaisy//src/sys/system.h ****             cpu_freq    = SysClkFreq::FREQ_400MHZ;
  38:../../DaisyExamples/libDaisy//src/sys/system.h ****             use_dcache  = true;
  39:../../DaisyExamples/libDaisy//src/sys/system.h ****             use_icache  = true;
  40:../../DaisyExamples/libDaisy//src/sys/system.h ****             skip_clocks = false;
  41:../../DaisyExamples/libDaisy//src/sys/system.h ****         }
  42:../../DaisyExamples/libDaisy//src/sys/system.h **** 
  43:../../DaisyExamples/libDaisy//src/sys/system.h ****         /** Method to call on the struct to set to boost mode:
  44:../../DaisyExamples/libDaisy//src/sys/system.h ****          ** CPU Freq set to 480MHz
  45:../../DaisyExamples/libDaisy//src/sys/system.h ****          ** Cache Enabled 
  46:../../DaisyExamples/libDaisy//src/sys/system.h ****          ** */
  47:../../DaisyExamples/libDaisy//src/sys/system.h ****         void Boost()
  48:../../DaisyExamples/libDaisy//src/sys/system.h ****         {
ARM GAS  /var/folders/b5/3l92j93d5t1__l78tfntmwyr0000gn/T//ccd9zsAq.s 			page 6


  49:../../DaisyExamples/libDaisy//src/sys/system.h ****             cpu_freq    = SysClkFreq::FREQ_480MHZ;
  50:../../DaisyExamples/libDaisy//src/sys/system.h ****             use_dcache  = true;
  51:../../DaisyExamples/libDaisy//src/sys/system.h ****             use_icache  = true;
  52:../../DaisyExamples/libDaisy//src/sys/system.h ****             skip_clocks = false;
  53:../../DaisyExamples/libDaisy//src/sys/system.h ****         }
  54:../../DaisyExamples/libDaisy//src/sys/system.h **** 
  55:../../DaisyExamples/libDaisy//src/sys/system.h ****         SysClkFreq cpu_freq;
  56:../../DaisyExamples/libDaisy//src/sys/system.h ****         bool       use_dcache;
  57:../../DaisyExamples/libDaisy//src/sys/system.h ****         bool       use_icache;
  58:../../DaisyExamples/libDaisy//src/sys/system.h ****         bool       skip_clocks;
  59:../../DaisyExamples/libDaisy//src/sys/system.h ****     };
  60:../../DaisyExamples/libDaisy//src/sys/system.h **** 
  61:../../DaisyExamples/libDaisy//src/sys/system.h ****     /** Describes the different regions of memory available to the Daisy
  62:../../DaisyExamples/libDaisy//src/sys/system.h ****      * 
  63:../../DaisyExamples/libDaisy//src/sys/system.h ****      */
  64:../../DaisyExamples/libDaisy//src/sys/system.h ****     enum MemoryRegion
  65:../../DaisyExamples/libDaisy//src/sys/system.h ****     {
  66:../../DaisyExamples/libDaisy//src/sys/system.h ****         INTERNAL_FLASH = 0,
  67:../../DaisyExamples/libDaisy//src/sys/system.h ****         ITCMRAM,
  68:../../DaisyExamples/libDaisy//src/sys/system.h ****         DTCMRAM,
  69:../../DaisyExamples/libDaisy//src/sys/system.h ****         SRAM_D1,
  70:../../DaisyExamples/libDaisy//src/sys/system.h ****         SRAM_D2,
  71:../../DaisyExamples/libDaisy//src/sys/system.h ****         SRAM_D3,
  72:../../DaisyExamples/libDaisy//src/sys/system.h ****         SDRAM,
  73:../../DaisyExamples/libDaisy//src/sys/system.h ****         QSPI,
  74:../../DaisyExamples/libDaisy//src/sys/system.h ****         INVALID_ADDRESS,
  75:../../DaisyExamples/libDaisy//src/sys/system.h ****     };
  76:../../DaisyExamples/libDaisy//src/sys/system.h **** 
  77:../../DaisyExamples/libDaisy//src/sys/system.h ****     System() {}
  78:../../DaisyExamples/libDaisy//src/sys/system.h ****     ~System() {}
  86              		.loc 4 78 5 view .LVU5
  87              		.loc 4 78 5 is_stmt 0 view .LVU6
  88              	.LBE389:
  89              	.LBB390:
  90              	.LBI390:
  91              		.file 5 "../../DaisyExamples/libDaisy//src/hid/usb.h"
   1:../../DaisyExamples/libDaisy//src/hid/usb.h **** #pragma once
   2:../../DaisyExamples/libDaisy//src/hid/usb.h **** #ifndef DSY_HID_USB_H
   3:../../DaisyExamples/libDaisy//src/hid/usb.h **** #define DSY_HID_USB_H
   4:../../DaisyExamples/libDaisy//src/hid/usb.h **** #include <stdint.h>
   5:../../DaisyExamples/libDaisy//src/hid/usb.h **** #include <stdlib.h>
   6:../../DaisyExamples/libDaisy//src/hid/usb.h **** 
   7:../../DaisyExamples/libDaisy//src/hid/usb.h **** namespace daisy
   8:../../DaisyExamples/libDaisy//src/hid/usb.h **** /** @addtogroup human_interface
   9:../../DaisyExamples/libDaisy//src/hid/usb.h ****     @{
  10:../../DaisyExamples/libDaisy//src/hid/usb.h **** */
  11:../../DaisyExamples/libDaisy//src/hid/usb.h **** 
  12:../../DaisyExamples/libDaisy//src/hid/usb.h **** {
  13:../../DaisyExamples/libDaisy//src/hid/usb.h **** /** 
  14:../../DaisyExamples/libDaisy//src/hid/usb.h ****     @brief Interface for initializing and using the USB Peripherals on the daisy
  15:../../DaisyExamples/libDaisy//src/hid/usb.h ****     @author Stephen Hensley
  16:../../DaisyExamples/libDaisy//src/hid/usb.h ****     @date December 2019
  17:../../DaisyExamples/libDaisy//src/hid/usb.h **** */
  18:../../DaisyExamples/libDaisy//src/hid/usb.h **** class UsbHandle
  19:../../DaisyExamples/libDaisy//src/hid/usb.h **** {
  20:../../DaisyExamples/libDaisy//src/hid/usb.h ****   public:
  21:../../DaisyExamples/libDaisy//src/hid/usb.h ****     /** Return values for USBHandle Functions */
ARM GAS  /var/folders/b5/3l92j93d5t1__l78tfntmwyr0000gn/T//ccd9zsAq.s 			page 7


  22:../../DaisyExamples/libDaisy//src/hid/usb.h ****     enum class Result
  23:../../DaisyExamples/libDaisy//src/hid/usb.h ****     {
  24:../../DaisyExamples/libDaisy//src/hid/usb.h ****         OK,
  25:../../DaisyExamples/libDaisy//src/hid/usb.h ****         ERR,
  26:../../DaisyExamples/libDaisy//src/hid/usb.h ****     };
  27:../../DaisyExamples/libDaisy//src/hid/usb.h **** 
  28:../../DaisyExamples/libDaisy//src/hid/usb.h ****     /** Specified which of the two USB Peripherals to initialize. */
  29:../../DaisyExamples/libDaisy//src/hid/usb.h ****     enum UsbPeriph
  30:../../DaisyExamples/libDaisy//src/hid/usb.h ****     {
  31:../../DaisyExamples/libDaisy//src/hid/usb.h ****         FS_INTERNAL, /**< Internal pin */
  32:../../DaisyExamples/libDaisy//src/hid/usb.h ****         FS_EXTERNAL, /**< FS External D+ pin is Pin 38 (GPIO32). FS External D- pin is Pin 37 (GPIO
  33:../../DaisyExamples/libDaisy//src/hid/usb.h ****         FS_BOTH,     /**< Both */
  34:../../DaisyExamples/libDaisy//src/hid/usb.h ****     };
  35:../../DaisyExamples/libDaisy//src/hid/usb.h **** 
  36:../../DaisyExamples/libDaisy//src/hid/usb.h **** 
  37:../../DaisyExamples/libDaisy//src/hid/usb.h ****     /** Function called upon reception of a buffer */
  38:../../DaisyExamples/libDaisy//src/hid/usb.h ****     typedef void (*ReceiveCallback)(uint8_t* buff, uint32_t* len);
  39:../../DaisyExamples/libDaisy//src/hid/usb.h **** 
  40:../../DaisyExamples/libDaisy//src/hid/usb.h ****     UsbHandle() {}
  41:../../DaisyExamples/libDaisy//src/hid/usb.h **** 
  42:../../DaisyExamples/libDaisy//src/hid/usb.h ****     ~UsbHandle() {}
  92              		.loc 5 42 5 is_stmt 1 view .LVU7
  93              		.loc 5 42 5 is_stmt 0 view .LVU8
  94              	.LBE390:
  95              	.LBB391:
  96              	.LBI391:
  97              		.loc 1 93 5 is_stmt 1 view .LVU9
  98              		.loc 1 93 5 is_stmt 0 view .LVU10
  99              	.LBE391:
 100              	.LBB392:
 101              	.LBI392:
 102              		.file 6 "../../DaisyExamples/libDaisy//src/hid/audio.h"
   1:../../DaisyExamples/libDaisy//src/hid/audio.h **** #ifndef DSY_AUDIO_H
   2:../../DaisyExamples/libDaisy//src/hid/audio.h **** #define DSY_AUDIO_H /**< & */
   3:../../DaisyExamples/libDaisy//src/hid/audio.h **** 
   4:../../DaisyExamples/libDaisy//src/hid/audio.h **** #include "per/sai.h"
   5:../../DaisyExamples/libDaisy//src/hid/audio.h **** 
   6:../../DaisyExamples/libDaisy//src/hid/audio.h **** namespace daisy
   7:../../DaisyExamples/libDaisy//src/hid/audio.h **** {
   8:../../DaisyExamples/libDaisy//src/hid/audio.h **** /** @brief Audio Engine Handle
   9:../../DaisyExamples/libDaisy//src/hid/audio.h ****  *  @ingroup audio 
  10:../../DaisyExamples/libDaisy//src/hid/audio.h ****  *  @details This class allows for higher level access to an audio engine.
  11:../../DaisyExamples/libDaisy//src/hid/audio.h ****  *           If you're using a SOM like the DaisySeed or DaisyPatchSM (or any 
  12:../../DaisyExamples/libDaisy//src/hid/audio.h ****  *            board that includes one of those objects) then the intialization
  13:../../DaisyExamples/libDaisy//src/hid/audio.h ****  *            is already taken  care of.
  14:../../DaisyExamples/libDaisy//src/hid/audio.h ****  *           If you're setting up your own custom hardware, or need to make changes
  15:../../DaisyExamples/libDaisy//src/hid/audio.h ****  *           you will have to take the following steps:
  16:../../DaisyExamples/libDaisy//src/hid/audio.h ****  *             1. Create and Initialize an SaiHandle or two depending on your requirements
  17:../../DaisyExamples/libDaisy//src/hid/audio.h ****  *             2. Initialize the Audio Handle with the desired settings and the Initialized SaiHand
  18:../../DaisyExamples/libDaisy//src/hid/audio.h ****  *             3. If the connected codec requires special configuration or initialization, do so
  19:../../DaisyExamples/libDaisy//src/hid/audio.h ****  *             4. Write a callback method using either the AudioCallback or the InterleavingAudioCa
  20:../../DaisyExamples/libDaisy//src/hid/audio.h ****  *             5. Start the Audio using one of the StartAudio function
  21:../../DaisyExamples/libDaisy//src/hid/audio.h ****  */
  22:../../DaisyExamples/libDaisy//src/hid/audio.h **** class AudioHandle
  23:../../DaisyExamples/libDaisy//src/hid/audio.h **** {
  24:../../DaisyExamples/libDaisy//src/hid/audio.h ****   public:
  25:../../DaisyExamples/libDaisy//src/hid/audio.h ****     /** Manually configurable details about the Audio Engine */
ARM GAS  /var/folders/b5/3l92j93d5t1__l78tfntmwyr0000gn/T//ccd9zsAq.s 			page 8


  26:../../DaisyExamples/libDaisy//src/hid/audio.h ****     /** TODO: Figure out how to get samplerate in here. */
  27:../../DaisyExamples/libDaisy//src/hid/audio.h ****     struct Config
  28:../../DaisyExamples/libDaisy//src/hid/audio.h ****     {
  29:../../DaisyExamples/libDaisy//src/hid/audio.h ****         /** number of samples to process per callback */
  30:../../DaisyExamples/libDaisy//src/hid/audio.h ****         size_t blocksize;
  31:../../DaisyExamples/libDaisy//src/hid/audio.h **** 
  32:../../DaisyExamples/libDaisy//src/hid/audio.h ****         /**< Sample rate of audio */
  33:../../DaisyExamples/libDaisy//src/hid/audio.h ****         SaiHandle::Config::SampleRate samplerate;
  34:../../DaisyExamples/libDaisy//src/hid/audio.h **** 
  35:../../DaisyExamples/libDaisy//src/hid/audio.h ****         /** factor for adjustment before and after callback for hardware that may have extra headro
  36:../../DaisyExamples/libDaisy//src/hid/audio.h ****         float postgain;
  37:../../DaisyExamples/libDaisy//src/hid/audio.h **** 
  38:../../DaisyExamples/libDaisy//src/hid/audio.h ****         /** factor for additional one-sided compensation to audio path for hardware that may
  39:../../DaisyExamples/libDaisy//src/hid/audio.h ****          *  have unequal input/output ranges
  40:../../DaisyExamples/libDaisy//src/hid/audio.h ****          */
  41:../../DaisyExamples/libDaisy//src/hid/audio.h ****         float output_compensation;
  42:../../DaisyExamples/libDaisy//src/hid/audio.h **** 
  43:../../DaisyExamples/libDaisy//src/hid/audio.h ****         /** Sets default values for config struct */
  44:../../DaisyExamples/libDaisy//src/hid/audio.h ****         Config()
  45:../../DaisyExamples/libDaisy//src/hid/audio.h ****         : blocksize(48),
  46:../../DaisyExamples/libDaisy//src/hid/audio.h ****           samplerate(SaiHandle::Config::SampleRate::SAI_48KHZ),
  47:../../DaisyExamples/libDaisy//src/hid/audio.h ****           postgain(1.f),
  48:../../DaisyExamples/libDaisy//src/hid/audio.h ****           output_compensation(1.f)
  49:../../DaisyExamples/libDaisy//src/hid/audio.h ****         {
  50:../../DaisyExamples/libDaisy//src/hid/audio.h ****         }
  51:../../DaisyExamples/libDaisy//src/hid/audio.h ****     };
  52:../../DaisyExamples/libDaisy//src/hid/audio.h **** 
  53:../../DaisyExamples/libDaisy//src/hid/audio.h ****     enum class Result
  54:../../DaisyExamples/libDaisy//src/hid/audio.h ****     {
  55:../../DaisyExamples/libDaisy//src/hid/audio.h ****         OK,
  56:../../DaisyExamples/libDaisy//src/hid/audio.h ****         ERR,
  57:../../DaisyExamples/libDaisy//src/hid/audio.h ****     };
  58:../../DaisyExamples/libDaisy//src/hid/audio.h **** 
  59:../../DaisyExamples/libDaisy//src/hid/audio.h ****     /** Non-Interleaving input buffer
  60:../../DaisyExamples/libDaisy//src/hid/audio.h ****      * Buffer arranged by float[chn][sample] 
  61:../../DaisyExamples/libDaisy//src/hid/audio.h ****      * const so that the user can't modify the input
  62:../../DaisyExamples/libDaisy//src/hid/audio.h ****      */
  63:../../DaisyExamples/libDaisy//src/hid/audio.h ****     typedef const float* const* InputBuffer;
  64:../../DaisyExamples/libDaisy//src/hid/audio.h **** 
  65:../../DaisyExamples/libDaisy//src/hid/audio.h ****     /** Non-Interleaving output buffer
  66:../../DaisyExamples/libDaisy//src/hid/audio.h ****      * Arranged by float[chn][sample] 
  67:../../DaisyExamples/libDaisy//src/hid/audio.h ****      */
  68:../../DaisyExamples/libDaisy//src/hid/audio.h ****     typedef float** OutputBuffer;
  69:../../DaisyExamples/libDaisy//src/hid/audio.h **** 
  70:../../DaisyExamples/libDaisy//src/hid/audio.h ****     /** Type for a Non-Interleaving audio callback 
  71:../../DaisyExamples/libDaisy//src/hid/audio.h ****      * Non-Interleaving audio callbacks in daisy will be of this type
  72:../../DaisyExamples/libDaisy//src/hid/audio.h ****      */
  73:../../DaisyExamples/libDaisy//src/hid/audio.h ****     typedef void (*AudioCallback)(InputBuffer  in,
  74:../../DaisyExamples/libDaisy//src/hid/audio.h ****                                   OutputBuffer out,
  75:../../DaisyExamples/libDaisy//src/hid/audio.h ****                                   size_t       size);
  76:../../DaisyExamples/libDaisy//src/hid/audio.h **** 
  77:../../DaisyExamples/libDaisy//src/hid/audio.h ****     /** Interleaving Input buffer
  78:../../DaisyExamples/libDaisy//src/hid/audio.h ****      ** audio is prepared as { L0, R0, L1, R1, . . . LN, RN }]
  79:../../DaisyExamples/libDaisy//src/hid/audio.h ****      ** this is const, as the user shouldn't modify it
  80:../../DaisyExamples/libDaisy//src/hid/audio.h ****     */
  81:../../DaisyExamples/libDaisy//src/hid/audio.h ****     typedef const float* InterleavingInputBuffer;
  82:../../DaisyExamples/libDaisy//src/hid/audio.h **** 
ARM GAS  /var/folders/b5/3l92j93d5t1__l78tfntmwyr0000gn/T//ccd9zsAq.s 			page 9


  83:../../DaisyExamples/libDaisy//src/hid/audio.h ****     /** Interleaving Output buffer 
  84:../../DaisyExamples/libDaisy//src/hid/audio.h ****      ** audio is prepared as { L0, R0, L1, R1, . . . LN, RN }
  85:../../DaisyExamples/libDaisy//src/hid/audio.h ****     */
  86:../../DaisyExamples/libDaisy//src/hid/audio.h ****     typedef float* InterleavingOutputBuffer;
  87:../../DaisyExamples/libDaisy//src/hid/audio.h **** 
  88:../../DaisyExamples/libDaisy//src/hid/audio.h ****     /** Interleaving Audio Callback 
  89:../../DaisyExamples/libDaisy//src/hid/audio.h ****      * Interleaving audio callbacks in daisy must be of this type
  90:../../DaisyExamples/libDaisy//src/hid/audio.h ****      */
  91:../../DaisyExamples/libDaisy//src/hid/audio.h ****     typedef void (*InterleavingAudioCallback)(InterleavingInputBuffer  in,
  92:../../DaisyExamples/libDaisy//src/hid/audio.h ****                                               InterleavingOutputBuffer out,
  93:../../DaisyExamples/libDaisy//src/hid/audio.h ****                                               size_t                   size);
  94:../../DaisyExamples/libDaisy//src/hid/audio.h **** 
  95:../../DaisyExamples/libDaisy//src/hid/audio.h ****     AudioHandle() : pimpl_(nullptr) {}
  96:../../DaisyExamples/libDaisy//src/hid/audio.h ****     ~AudioHandle() {}
 103              		.loc 6 96 5 is_stmt 1 view .LVU11
 104              		.loc 6 96 5 is_stmt 0 view .LVU12
 105              	.LBE392:
 106              		.loc 3 22 19 view .LVU13
 107 0000 7047     		bx	lr
 108              		.cfi_endproc
 109              	.LFE2529:
 111              		.weak	_ZN5daisy9DaisySeedD1Ev
 112              		.thumb_set _ZN5daisy9DaisySeedD1Ev,_ZN5daisy9DaisySeedD2Ev
 113 0002 00BF     		.section	.text._ZN7daisysp5AdEnvD2Ev,"axG",%progbits,_ZN7daisysp5AdEnvD5Ev,comdat
 114              		.align	1
 115              		.p2align 2,,3
 116              		.weak	_ZN7daisysp5AdEnvD2Ev
 117              		.syntax unified
 118              		.thumb
 119              		.thumb_func
 121              	_ZN7daisysp5AdEnvD2Ev:
 122              	.LVL3:
 123              	.LFB2538:
 124              		.file 7 "../../DaisyExamples/DaisySP//Source/Control/adenv.h"
   1:../../DaisyExamples/DaisySP//Source/Control/adenv.h **** #pragma once
   2:../../DaisyExamples/DaisySP//Source/Control/adenv.h **** #ifndef ADENV_H
   3:../../DaisyExamples/DaisySP//Source/Control/adenv.h **** #define ADENV_H
   4:../../DaisyExamples/DaisySP//Source/Control/adenv.h **** #include <stdint.h>
   5:../../DaisyExamples/DaisySP//Source/Control/adenv.h **** #ifdef __cplusplus
   6:../../DaisyExamples/DaisySP//Source/Control/adenv.h **** 
   7:../../DaisyExamples/DaisySP//Source/Control/adenv.h **** namespace daisysp
   8:../../DaisyExamples/DaisySP//Source/Control/adenv.h **** {
   9:../../DaisyExamples/DaisySP//Source/Control/adenv.h **** /** Distinct stages that the phase of the envelope can be located in.
  10:../../DaisyExamples/DaisySP//Source/Control/adenv.h ****     @see AdEnv
  11:../../DaisyExamples/DaisySP//Source/Control/adenv.h **** */
  12:../../DaisyExamples/DaisySP//Source/Control/adenv.h **** enum AdEnvSegment
  13:../../DaisyExamples/DaisySP//Source/Control/adenv.h **** {
  14:../../DaisyExamples/DaisySP//Source/Control/adenv.h ****     /** located at phase location 0, and not currently running */
  15:../../DaisyExamples/DaisySP//Source/Control/adenv.h ****     ADENV_SEG_IDLE,
  16:../../DaisyExamples/DaisySP//Source/Control/adenv.h ****     /** First segment of envelope where phase moves from MIN value to MAX value */
  17:../../DaisyExamples/DaisySP//Source/Control/adenv.h ****     ADENV_SEG_ATTACK,
  18:../../DaisyExamples/DaisySP//Source/Control/adenv.h ****     /** Second segment of envelope where phase moves from MAX to MIN value */
  19:../../DaisyExamples/DaisySP//Source/Control/adenv.h ****     ADENV_SEG_DECAY,
  20:../../DaisyExamples/DaisySP//Source/Control/adenv.h ****     /** The final segment of the envelope (currently decay) */
  21:../../DaisyExamples/DaisySP//Source/Control/adenv.h ****     ADENV_SEG_LAST,
  22:../../DaisyExamples/DaisySP//Source/Control/adenv.h **** };
  23:../../DaisyExamples/DaisySP//Source/Control/adenv.h **** 
ARM GAS  /var/folders/b5/3l92j93d5t1__l78tfntmwyr0000gn/T//ccd9zsAq.s 			page 10


  24:../../DaisyExamples/DaisySP//Source/Control/adenv.h **** /** Trigger-able envelope with adjustable min/max, and independent per-segment time control.
  25:../../DaisyExamples/DaisySP//Source/Control/adenv.h **** 
  26:../../DaisyExamples/DaisySP//Source/Control/adenv.h ****     \author shensley
  27:../../DaisyExamples/DaisySP//Source/Control/adenv.h ****     \todo - Add Cycling
  28:../../DaisyExamples/DaisySP//Source/Control/adenv.h ****     \todo - Implement Curve (its only linear for now).
  29:../../DaisyExamples/DaisySP//Source/Control/adenv.h ****     \todo - Maybe make this an ADsr_ that has AD/AR/Asr_ modes.
  30:../../DaisyExamples/DaisySP//Source/Control/adenv.h ****  */
  31:../../DaisyExamples/DaisySP//Source/Control/adenv.h **** class AdEnv
  32:../../DaisyExamples/DaisySP//Source/Control/adenv.h **** {
  33:../../DaisyExamples/DaisySP//Source/Control/adenv.h ****   public:
  34:../../DaisyExamples/DaisySP//Source/Control/adenv.h ****     AdEnv() {}
  35:../../DaisyExamples/DaisySP//Source/Control/adenv.h ****     ~AdEnv() {}
 125              		.loc 7 35 5 is_stmt 1 view -0
 126              		.cfi_startproc
 127              		@ args = 0, pretend = 0, frame = 0
 128              		@ frame_needed = 0, uses_anonymous_args = 0
 129              		@ link register save eliminated.
 130              		.loc 7 35 15 is_stmt 0 view .LVU15
 131 0000 7047     		bx	lr
 132              		.cfi_endproc
 133              	.LFE2538:
 135              		.weak	_ZN7daisysp5AdEnvD1Ev
 136              		.thumb_set _ZN7daisysp5AdEnvD1Ev,_ZN7daisysp5AdEnvD2Ev
 137 0002 00BF     		.section	.text._ZN7daisysp14AnalogBassDrumD2Ev,"axG",%progbits,_ZN7daisysp14AnalogBassDrumD5Ev,com
 138              		.align	1
 139              		.p2align 2,,3
 140              		.weak	_ZN7daisysp14AnalogBassDrumD2Ev
 141              		.syntax unified
 142              		.thumb
 143              		.thumb_func
 145              	_ZN7daisysp14AnalogBassDrumD2Ev:
 146              	.LVL4:
 147              	.LFB4247:
 148              		.file 8 "../../DaisyExamples/DaisySP//Source/Drums/analogbassdrum.h"
   1:../../DaisyExamples/DaisySP//Source/Drums/analogbassdrum.h **** #pragma once
   2:../../DaisyExamples/DaisySP//Source/Drums/analogbassdrum.h **** #ifndef DSY_ANALOG_BD_H
   3:../../DaisyExamples/DaisySP//Source/Drums/analogbassdrum.h **** #define DSY_ANALOG_BD_H
   4:../../DaisyExamples/DaisySP//Source/Drums/analogbassdrum.h **** 
   5:../../DaisyExamples/DaisySP//Source/Drums/analogbassdrum.h **** #include <stdint.h>
   6:../../DaisyExamples/DaisySP//Source/Drums/analogbassdrum.h **** #ifdef __cplusplus
   7:../../DaisyExamples/DaisySP//Source/Drums/analogbassdrum.h **** 
   8:../../DaisyExamples/DaisySP//Source/Drums/analogbassdrum.h **** #include "Synthesis/oscillator.h"
   9:../../DaisyExamples/DaisySP//Source/Drums/analogbassdrum.h **** #include "Filters/svf.h"
  10:../../DaisyExamples/DaisySP//Source/Drums/analogbassdrum.h **** 
  11:../../DaisyExamples/DaisySP//Source/Drums/analogbassdrum.h **** /** @file analogbassdrum.h */
  12:../../DaisyExamples/DaisySP//Source/Drums/analogbassdrum.h **** 
  13:../../DaisyExamples/DaisySP//Source/Drums/analogbassdrum.h **** namespace daisysp
  14:../../DaisyExamples/DaisySP//Source/Drums/analogbassdrum.h **** {
  15:../../DaisyExamples/DaisySP//Source/Drums/analogbassdrum.h **** /**  
  16:../../DaisyExamples/DaisySP//Source/Drums/analogbassdrum.h ****        @brief 808 bass drum model, revisited.
  17:../../DaisyExamples/DaisySP//Source/Drums/analogbassdrum.h ****        @author Ben Sergentanis
  18:../../DaisyExamples/DaisySP//Source/Drums/analogbassdrum.h ****        @date Jan 2021 
  19:../../DaisyExamples/DaisySP//Source/Drums/analogbassdrum.h ****        Ported from pichenettes/eurorack/plaits/dsp/drums/analog_bass_drum.h \n
  20:../../DaisyExamples/DaisySP//Source/Drums/analogbassdrum.h ****        to an independent module. \n
  21:../../DaisyExamples/DaisySP//Source/Drums/analogbassdrum.h ****        Original code written by Emilie Gillet in 2016. \n
  22:../../DaisyExamples/DaisySP//Source/Drums/analogbassdrum.h **** */
  23:../../DaisyExamples/DaisySP//Source/Drums/analogbassdrum.h **** class AnalogBassDrum
ARM GAS  /var/folders/b5/3l92j93d5t1__l78tfntmwyr0000gn/T//ccd9zsAq.s 			page 11


  24:../../DaisyExamples/DaisySP//Source/Drums/analogbassdrum.h **** {
  25:../../DaisyExamples/DaisySP//Source/Drums/analogbassdrum.h ****   public:
  26:../../DaisyExamples/DaisySP//Source/Drums/analogbassdrum.h ****     AnalogBassDrum() {}
  27:../../DaisyExamples/DaisySP//Source/Drums/analogbassdrum.h ****     ~AnalogBassDrum() {}
 149              		.loc 8 27 5 is_stmt 1 view -0
 150              		.cfi_startproc
 151              		@ args = 0, pretend = 0, frame = 0
 152              		@ frame_needed = 0, uses_anonymous_args = 0
 153              		@ link register save eliminated.
 154              	.LBB393:
 155              	.LBI393:
 156              		.file 9 "../../DaisyExamples/DaisySP//Source/Filters/svf.h"
   1:../../DaisyExamples/DaisySP//Source/Filters/svf.h **** #pragma once
   2:../../DaisyExamples/DaisySP//Source/Filters/svf.h **** #ifndef DSY_SVF_H
   3:../../DaisyExamples/DaisySP//Source/Filters/svf.h **** #define DSY_SVF_H
   4:../../DaisyExamples/DaisySP//Source/Filters/svf.h **** 
   5:../../DaisyExamples/DaisySP//Source/Filters/svf.h **** namespace daisysp
   6:../../DaisyExamples/DaisySP//Source/Filters/svf.h **** {
   7:../../DaisyExamples/DaisySP//Source/Filters/svf.h **** /**      Double Sampled, Stable State Variable Filter
   8:../../DaisyExamples/DaisySP//Source/Filters/svf.h **** 
   9:../../DaisyExamples/DaisySP//Source/Filters/svf.h **** Credit to Andrew Simper from musicdsp.org
  10:../../DaisyExamples/DaisySP//Source/Filters/svf.h **** 
  11:../../DaisyExamples/DaisySP//Source/Filters/svf.h **** This is his "State Variable Filter (Double Sampled, Stable)"
  12:../../DaisyExamples/DaisySP//Source/Filters/svf.h **** 
  13:../../DaisyExamples/DaisySP//Source/Filters/svf.h **** Additional thanks to Laurent de Soras for stability limit, and 
  14:../../DaisyExamples/DaisySP//Source/Filters/svf.h **** Stefan Diedrichsen for the correct notch output
  15:../../DaisyExamples/DaisySP//Source/Filters/svf.h **** 
  16:../../DaisyExamples/DaisySP//Source/Filters/svf.h **** Ported by: Stephen Hensley
  17:../../DaisyExamples/DaisySP//Source/Filters/svf.h **** */
  18:../../DaisyExamples/DaisySP//Source/Filters/svf.h **** class Svf
  19:../../DaisyExamples/DaisySP//Source/Filters/svf.h **** {
  20:../../DaisyExamples/DaisySP//Source/Filters/svf.h ****   public:
  21:../../DaisyExamples/DaisySP//Source/Filters/svf.h ****     Svf() {}
  22:../../DaisyExamples/DaisySP//Source/Filters/svf.h ****     ~Svf() {}
 157              		.loc 9 22 5 view .LVU17
 158              		.loc 9 22 5 is_stmt 0 view .LVU18
 159              	.LBE393:
 160              		.loc 8 27 24 view .LVU19
 161 0000 7047     		bx	lr
 162              		.cfi_endproc
 163              	.LFE4247:
 165              		.weak	_ZN7daisysp14AnalogBassDrumD1Ev
 166              		.thumb_set _ZN7daisysp14AnalogBassDrumD1Ev,_ZN7daisysp14AnalogBassDrumD2Ev
 167 0002 00BF     		.section	.text._ZN7daisysp17SyntheticBassDrumD2Ev,"axG",%progbits,_ZN7daisysp17SyntheticBassDrumD5
 168              		.align	1
 169              		.p2align 2,,3
 170              		.weak	_ZN7daisysp17SyntheticBassDrumD2Ev
 171              		.syntax unified
 172              		.thumb
 173              		.thumb_func
 175              	_ZN7daisysp17SyntheticBassDrumD2Ev:
 176              	.LVL5:
 177              	.LFB4297:
 178              		.file 10 "../../DaisyExamples/DaisySP//Source/Drums/synthbassdrum.h"
   1:../../DaisyExamples/DaisySP//Source/Drums/synthbassdrum.h **** #pragma once
   2:../../DaisyExamples/DaisySP//Source/Drums/synthbassdrum.h **** #ifndef DSY_SYNTHBD_H
   3:../../DaisyExamples/DaisySP//Source/Drums/synthbassdrum.h **** #define DSY_SYNTHBD_H
ARM GAS  /var/folders/b5/3l92j93d5t1__l78tfntmwyr0000gn/T//ccd9zsAq.s 			page 12


   4:../../DaisyExamples/DaisySP//Source/Drums/synthbassdrum.h **** 
   5:../../DaisyExamples/DaisySP//Source/Drums/synthbassdrum.h **** #include "Filters/svf.h"
   6:../../DaisyExamples/DaisySP//Source/Drums/synthbassdrum.h **** #include "Utility/dsp.h"
   7:../../DaisyExamples/DaisySP//Source/Drums/synthbassdrum.h **** 
   8:../../DaisyExamples/DaisySP//Source/Drums/synthbassdrum.h **** #include <stdint.h>
   9:../../DaisyExamples/DaisySP//Source/Drums/synthbassdrum.h **** #ifdef __cplusplus
  10:../../DaisyExamples/DaisySP//Source/Drums/synthbassdrum.h **** 
  11:../../DaisyExamples/DaisySP//Source/Drums/synthbassdrum.h **** /** @file synthbassdrum.h */
  12:../../DaisyExamples/DaisySP//Source/Drums/synthbassdrum.h **** 
  13:../../DaisyExamples/DaisySP//Source/Drums/synthbassdrum.h **** namespace daisysp
  14:../../DaisyExamples/DaisySP//Source/Drums/synthbassdrum.h **** {
  15:../../DaisyExamples/DaisySP//Source/Drums/synthbassdrum.h **** /**  
  16:../../DaisyExamples/DaisySP//Source/Drums/synthbassdrum.h ****        @brief Click noise for SyntheticBassDrum
  17:../../DaisyExamples/DaisySP//Source/Drums/synthbassdrum.h ****        @author Ben Sergentanis
  18:../../DaisyExamples/DaisySP//Source/Drums/synthbassdrum.h ****        @date Jan 2021
  19:../../DaisyExamples/DaisySP//Source/Drums/synthbassdrum.h ****        Ported from pichenettes/eurorack/plaits/dsp/drums/synthetic_bass_drum.h \n
  20:../../DaisyExamples/DaisySP//Source/Drums/synthbassdrum.h ****        to an independent module. \n
  21:../../DaisyExamples/DaisySP//Source/Drums/synthbassdrum.h ****        Original code written by Emilie Gillet in 2016. \n
  22:../../DaisyExamples/DaisySP//Source/Drums/synthbassdrum.h **** */
  23:../../DaisyExamples/DaisySP//Source/Drums/synthbassdrum.h **** class SyntheticBassDrumClick
  24:../../DaisyExamples/DaisySP//Source/Drums/synthbassdrum.h **** {
  25:../../DaisyExamples/DaisySP//Source/Drums/synthbassdrum.h ****   public:
  26:../../DaisyExamples/DaisySP//Source/Drums/synthbassdrum.h ****     SyntheticBassDrumClick() {}
  27:../../DaisyExamples/DaisySP//Source/Drums/synthbassdrum.h ****     ~SyntheticBassDrumClick() {}
  28:../../DaisyExamples/DaisySP//Source/Drums/synthbassdrum.h **** 
  29:../../DaisyExamples/DaisySP//Source/Drums/synthbassdrum.h ****     /** Init the module
  30:../../DaisyExamples/DaisySP//Source/Drums/synthbassdrum.h ****         \param sample_rate Audio engine sample rate.
  31:../../DaisyExamples/DaisySP//Source/Drums/synthbassdrum.h ****     */
  32:../../DaisyExamples/DaisySP//Source/Drums/synthbassdrum.h ****     void Init(float sample_rate);
  33:../../DaisyExamples/DaisySP//Source/Drums/synthbassdrum.h **** 
  34:../../DaisyExamples/DaisySP//Source/Drums/synthbassdrum.h ****     /** Get the next sample.
  35:../../DaisyExamples/DaisySP//Source/Drums/synthbassdrum.h ****         \param in Trigger the click.
  36:../../DaisyExamples/DaisySP//Source/Drums/synthbassdrum.h ****     */
  37:../../DaisyExamples/DaisySP//Source/Drums/synthbassdrum.h ****     float Process(float in);
  38:../../DaisyExamples/DaisySP//Source/Drums/synthbassdrum.h **** 
  39:../../DaisyExamples/DaisySP//Source/Drums/synthbassdrum.h ****   private:
  40:../../DaisyExamples/DaisySP//Source/Drums/synthbassdrum.h ****     float lp_;
  41:../../DaisyExamples/DaisySP//Source/Drums/synthbassdrum.h ****     float hp_;
  42:../../DaisyExamples/DaisySP//Source/Drums/synthbassdrum.h ****     Svf   filter_;
  43:../../DaisyExamples/DaisySP//Source/Drums/synthbassdrum.h **** };
  44:../../DaisyExamples/DaisySP//Source/Drums/synthbassdrum.h **** 
  45:../../DaisyExamples/DaisySP//Source/Drums/synthbassdrum.h **** /**  
  46:../../DaisyExamples/DaisySP//Source/Drums/synthbassdrum.h ****        @brief Attack Noise generator for SyntheticBassDrum. 
  47:../../DaisyExamples/DaisySP//Source/Drums/synthbassdrum.h ****        @author Ben Sergentanis
  48:../../DaisyExamples/DaisySP//Source/Drums/synthbassdrum.h ****        @date Jan 2021
  49:../../DaisyExamples/DaisySP//Source/Drums/synthbassdrum.h ****        Ported from pichenettes/eurorack/plaits/dsp/drums/synthetic_bass_drum.h \n
  50:../../DaisyExamples/DaisySP//Source/Drums/synthbassdrum.h ****        to an independent module. \n
  51:../../DaisyExamples/DaisySP//Source/Drums/synthbassdrum.h ****        Original code written by Emilie Gillet in 2016. \n
  52:../../DaisyExamples/DaisySP//Source/Drums/synthbassdrum.h **** */
  53:../../DaisyExamples/DaisySP//Source/Drums/synthbassdrum.h **** class SyntheticBassDrumAttackNoise
  54:../../DaisyExamples/DaisySP//Source/Drums/synthbassdrum.h **** {
  55:../../DaisyExamples/DaisySP//Source/Drums/synthbassdrum.h ****   public:
  56:../../DaisyExamples/DaisySP//Source/Drums/synthbassdrum.h ****     SyntheticBassDrumAttackNoise() {}
  57:../../DaisyExamples/DaisySP//Source/Drums/synthbassdrum.h ****     ~SyntheticBassDrumAttackNoise() {}
  58:../../DaisyExamples/DaisySP//Source/Drums/synthbassdrum.h **** 
  59:../../DaisyExamples/DaisySP//Source/Drums/synthbassdrum.h ****     /** Init the module */
  60:../../DaisyExamples/DaisySP//Source/Drums/synthbassdrum.h ****     void Init();
ARM GAS  /var/folders/b5/3l92j93d5t1__l78tfntmwyr0000gn/T//ccd9zsAq.s 			page 13


  61:../../DaisyExamples/DaisySP//Source/Drums/synthbassdrum.h **** 
  62:../../DaisyExamples/DaisySP//Source/Drums/synthbassdrum.h ****     /** Get the next sample. */
  63:../../DaisyExamples/DaisySP//Source/Drums/synthbassdrum.h ****     float Process();
  64:../../DaisyExamples/DaisySP//Source/Drums/synthbassdrum.h **** 
  65:../../DaisyExamples/DaisySP//Source/Drums/synthbassdrum.h ****   private:
  66:../../DaisyExamples/DaisySP//Source/Drums/synthbassdrum.h ****     float lp_;
  67:../../DaisyExamples/DaisySP//Source/Drums/synthbassdrum.h ****     float hp_;
  68:../../DaisyExamples/DaisySP//Source/Drums/synthbassdrum.h **** };
  69:../../DaisyExamples/DaisySP//Source/Drums/synthbassdrum.h **** 
  70:../../DaisyExamples/DaisySP//Source/Drums/synthbassdrum.h **** /**  
  71:../../DaisyExamples/DaisySP//Source/Drums/synthbassdrum.h ****        @brief Naive bass drum model (modulated oscillator with FM + envelope).
  72:../../DaisyExamples/DaisySP//Source/Drums/synthbassdrum.h ****        @author Ben Sergentanis
  73:../../DaisyExamples/DaisySP//Source/Drums/synthbassdrum.h ****        @date Jan 2021
  74:../../DaisyExamples/DaisySP//Source/Drums/synthbassdrum.h ****        Inadvertently 909-ish. \n \n 
  75:../../DaisyExamples/DaisySP//Source/Drums/synthbassdrum.h ****        Ported from pichenettes/eurorack/plaits/dsp/drums/synthetic_bass_drum.h \n
  76:../../DaisyExamples/DaisySP//Source/Drums/synthbassdrum.h ****        to an independent module. \n
  77:../../DaisyExamples/DaisySP//Source/Drums/synthbassdrum.h ****        Original code written by Emilie Gillet in 2016. \n
  78:../../DaisyExamples/DaisySP//Source/Drums/synthbassdrum.h **** */
  79:../../DaisyExamples/DaisySP//Source/Drums/synthbassdrum.h **** class SyntheticBassDrum
  80:../../DaisyExamples/DaisySP//Source/Drums/synthbassdrum.h **** {
  81:../../DaisyExamples/DaisySP//Source/Drums/synthbassdrum.h ****   public:
  82:../../DaisyExamples/DaisySP//Source/Drums/synthbassdrum.h ****     SyntheticBassDrum() {}
  83:../../DaisyExamples/DaisySP//Source/Drums/synthbassdrum.h ****     ~SyntheticBassDrum() {}
 179              		.loc 10 83 5 is_stmt 1 view -0
 180              		.cfi_startproc
 181              		@ args = 0, pretend = 0, frame = 0
 182              		@ frame_needed = 0, uses_anonymous_args = 0
 183              		@ link register save eliminated.
 184              	.LBB394:
 185              	.LBI394:
  57:../../DaisyExamples/DaisySP//Source/Drums/synthbassdrum.h **** 
 186              		.loc 10 57 5 view .LVU21
  57:../../DaisyExamples/DaisySP//Source/Drums/synthbassdrum.h **** 
 187              		.loc 10 57 5 is_stmt 0 view .LVU22
 188              	.LBE394:
 189              	.LBB395:
 190              	.LBI395:
  27:../../DaisyExamples/DaisySP//Source/Drums/synthbassdrum.h **** 
 191              		.loc 10 27 5 is_stmt 1 view .LVU23
 192              	.LBB396:
 193              	.LBI396:
 194              		.loc 9 22 5 view .LVU24
 195              		.loc 9 22 5 is_stmt 0 view .LVU25
 196              	.LBE396:
 197              	.LBE395:
 198              		.loc 10 83 27 view .LVU26
 199 0000 7047     		bx	lr
 200              		.cfi_endproc
 201              	.LFE4297:
 203              		.weak	_ZN7daisysp17SyntheticBassDrumD1Ev
 204              		.thumb_set _ZN7daisysp17SyntheticBassDrumD1Ev,_ZN7daisysp17SyntheticBassDrumD2Ev
 205 0002 00BF     		.section	.text._ZN7daisysp18SyntheticSnareDrumD2Ev,"axG",%progbits,_ZN7daisysp18SyntheticSnareDrum
 206              		.align	1
 207              		.p2align 2,,3
 208              		.weak	_ZN7daisysp18SyntheticSnareDrumD2Ev
 209              		.syntax unified
 210              		.thumb
ARM GAS  /var/folders/b5/3l92j93d5t1__l78tfntmwyr0000gn/T//ccd9zsAq.s 			page 14


 211              		.thumb_func
 213              	_ZN7daisysp18SyntheticSnareDrumD2Ev:
 214              	.LVL6:
 215              	.LFB4303:
 216              		.file 11 "../../DaisyExamples/DaisySP//Source/Drums/synthsnaredrum.h"
   1:../../DaisyExamples/DaisySP//Source/Drums/synthsnaredrum.h **** #pragma once
   2:../../DaisyExamples/DaisySP//Source/Drums/synthsnaredrum.h **** #ifndef DSY_SYNTHSD_H
   3:../../DaisyExamples/DaisySP//Source/Drums/synthsnaredrum.h **** #define DSY_SYNTHSD_H
   4:../../DaisyExamples/DaisySP//Source/Drums/synthsnaredrum.h **** 
   5:../../DaisyExamples/DaisySP//Source/Drums/synthsnaredrum.h **** #include "Filters/svf.h"
   6:../../DaisyExamples/DaisySP//Source/Drums/synthsnaredrum.h **** 
   7:../../DaisyExamples/DaisySP//Source/Drums/synthsnaredrum.h **** #include <stdint.h>
   8:../../DaisyExamples/DaisySP//Source/Drums/synthsnaredrum.h **** #ifdef __cplusplus
   9:../../DaisyExamples/DaisySP//Source/Drums/synthsnaredrum.h **** 
  10:../../DaisyExamples/DaisySP//Source/Drums/synthsnaredrum.h **** /** @file synthsnaredrum.h */
  11:../../DaisyExamples/DaisySP//Source/Drums/synthsnaredrum.h **** 
  12:../../DaisyExamples/DaisySP//Source/Drums/synthsnaredrum.h **** namespace daisysp
  13:../../DaisyExamples/DaisySP//Source/Drums/synthsnaredrum.h **** {
  14:../../DaisyExamples/DaisySP//Source/Drums/synthsnaredrum.h **** /**  
  15:../../DaisyExamples/DaisySP//Source/Drums/synthsnaredrum.h ****        @brief Naive snare drum model (two modulated oscillators + filtered noise).
  16:../../DaisyExamples/DaisySP//Source/Drums/synthsnaredrum.h ****        @author Ben Sergentanis
  17:../../DaisyExamples/DaisySP//Source/Drums/synthsnaredrum.h ****        @date Jan 2021
  18:../../DaisyExamples/DaisySP//Source/Drums/synthsnaredrum.h ****        Uses a few magic numbers taken from the 909 schematics: \n 
  19:../../DaisyExamples/DaisySP//Source/Drums/synthsnaredrum.h ****        - Ratio between the two modes of the drum set to 1.47. \n
  20:../../DaisyExamples/DaisySP//Source/Drums/synthsnaredrum.h ****        - Funky coupling between the two modes. \n
  21:../../DaisyExamples/DaisySP//Source/Drums/synthsnaredrum.h ****        - Noise coloration filters and envelope shapes for the snare. \n \n
  22:../../DaisyExamples/DaisySP//Source/Drums/synthsnaredrum.h ****        Ported from pichenettes/eurorack/plaits/dsp/drums/synthetic_snare_drum.h \n
  23:../../DaisyExamples/DaisySP//Source/Drums/synthsnaredrum.h ****        to an independent module. \n
  24:../../DaisyExamples/DaisySP//Source/Drums/synthsnaredrum.h ****        Original code written by Emilie Gillet in 2016. \n
  25:../../DaisyExamples/DaisySP//Source/Drums/synthsnaredrum.h **** */
  26:../../DaisyExamples/DaisySP//Source/Drums/synthsnaredrum.h **** class SyntheticSnareDrum
  27:../../DaisyExamples/DaisySP//Source/Drums/synthsnaredrum.h **** {
  28:../../DaisyExamples/DaisySP//Source/Drums/synthsnaredrum.h ****   public:
  29:../../DaisyExamples/DaisySP//Source/Drums/synthsnaredrum.h ****     SyntheticSnareDrum() {}
  30:../../DaisyExamples/DaisySP//Source/Drums/synthsnaredrum.h ****     ~SyntheticSnareDrum() {}
 217              		.loc 11 30 5 is_stmt 1 view -0
 218              		.cfi_startproc
 219              		@ args = 0, pretend = 0, frame = 0
 220              		@ frame_needed = 0, uses_anonymous_args = 0
 221              		@ link register save eliminated.
 222              	.LBB397:
 223              	.LBI397:
 224              		.loc 9 22 5 view .LVU28
 225              		.loc 9 22 5 is_stmt 0 view .LVU29
 226              	.LBE397:
 227              	.LBB398:
 228              	.LBI398:
 229              		.loc 9 22 5 is_stmt 1 view .LVU30
 230              		.loc 9 22 5 is_stmt 0 view .LVU31
 231              	.LBE398:
 232              	.LBB399:
 233              	.LBI399:
 234              		.loc 9 22 5 is_stmt 1 view .LVU32
 235              		.loc 9 22 5 is_stmt 0 view .LVU33
 236              	.LBE399:
 237              		.loc 11 30 28 view .LVU34
 238 0000 7047     		bx	lr
ARM GAS  /var/folders/b5/3l92j93d5t1__l78tfntmwyr0000gn/T//ccd9zsAq.s 			page 15


 239              		.cfi_endproc
 240              	.LFE4303:
 242              		.weak	_ZN7daisysp18SyntheticSnareDrumD1Ev
 243              		.thumb_set _ZN7daisysp18SyntheticSnareDrumD1Ev,_ZN7daisysp18SyntheticSnareDrumD2Ev
 244 0002 00BF     		.section	.text._ZN7daisysp5MetroD2Ev,"axG",%progbits,_ZN7daisysp5MetroD5Ev,comdat
 245              		.align	1
 246              		.p2align 2,,3
 247              		.weak	_ZN7daisysp5MetroD2Ev
 248              		.syntax unified
 249              		.thumb
 250              		.thumb_func
 252              	_ZN7daisysp5MetroD2Ev:
 253              	.LVL7:
 254              	.LFB4760:
 255              		.file 12 "../../DaisyExamples/DaisySP//Source/Utility/metro.h"
   1:../../DaisyExamples/DaisySP//Source/Utility/metro.h **** #pragma once
   2:../../DaisyExamples/DaisySP//Source/Utility/metro.h **** #ifndef DSY_METRO_H
   3:../../DaisyExamples/DaisySP//Source/Utility/metro.h **** #define DSY_METRO_H
   4:../../DaisyExamples/DaisySP//Source/Utility/metro.h **** #include <stdint.h>
   5:../../DaisyExamples/DaisySP//Source/Utility/metro.h **** #ifdef __cplusplus
   6:../../DaisyExamples/DaisySP//Source/Utility/metro.h **** 
   7:../../DaisyExamples/DaisySP//Source/Utility/metro.h **** namespace daisysp
   8:../../DaisyExamples/DaisySP//Source/Utility/metro.h **** {
   9:../../DaisyExamples/DaisySP//Source/Utility/metro.h **** /** Creates a clock signal at a specific frequency.
  10:../../DaisyExamples/DaisySP//Source/Utility/metro.h **** */
  11:../../DaisyExamples/DaisySP//Source/Utility/metro.h **** class Metro
  12:../../DaisyExamples/DaisySP//Source/Utility/metro.h **** {
  13:../../DaisyExamples/DaisySP//Source/Utility/metro.h ****   public:
  14:../../DaisyExamples/DaisySP//Source/Utility/metro.h ****     Metro() {}
  15:../../DaisyExamples/DaisySP//Source/Utility/metro.h ****     ~Metro() {}
 256              		.loc 12 15 5 is_stmt 1 view -0
 257              		.cfi_startproc
 258              		@ args = 0, pretend = 0, frame = 0
 259              		@ frame_needed = 0, uses_anonymous_args = 0
 260              		@ link register save eliminated.
 261              		.loc 12 15 15 is_stmt 0 view .LVU36
 262 0000 7047     		bx	lr
 263              		.cfi_endproc
 264              	.LFE4760:
 266              		.weak	_ZN7daisysp5MetroD1Ev
 267              		.thumb_set _ZN7daisysp5MetroD1Ev,_ZN7daisysp5MetroD2Ev
 268 0002 00BF     		.section	.text._ZN7daisysp5HiHatINS_11SquareNoiseENS_9LinearVCAELb1EED2Ev,"axG",%progbits,_ZN7dais
 269              		.align	1
 270              		.p2align 2,,3
 271              		.weak	_ZN7daisysp5HiHatINS_11SquareNoiseENS_9LinearVCAELb1EED2Ev
 272              		.syntax unified
 273              		.thumb
 274              		.thumb_func
 276              	_ZN7daisysp5HiHatINS_11SquareNoiseENS_9LinearVCAELb1EED2Ev:
 277              	.LVL8:
 278              	.LFB5442:
 279              		.file 13 "../../DaisyExamples/DaisySP//Source/Drums/hihat.h"
   1:../../DaisyExamples/DaisySP//Source/Drums/hihat.h **** #pragma once
   2:../../DaisyExamples/DaisySP//Source/Drums/hihat.h **** #ifndef DSY_HIHAT_H
   3:../../DaisyExamples/DaisySP//Source/Drums/hihat.h **** #define DSY_HIHAT_H
   4:../../DaisyExamples/DaisySP//Source/Drums/hihat.h **** 
   5:../../DaisyExamples/DaisySP//Source/Drums/hihat.h **** #include "Filters/svf.h"
ARM GAS  /var/folders/b5/3l92j93d5t1__l78tfntmwyr0000gn/T//ccd9zsAq.s 			page 16


   6:../../DaisyExamples/DaisySP//Source/Drums/hihat.h **** #include "Synthesis/oscillator.h"
   7:../../DaisyExamples/DaisySP//Source/Drums/hihat.h **** 
   8:../../DaisyExamples/DaisySP//Source/Drums/hihat.h **** #include <stdint.h>
   9:../../DaisyExamples/DaisySP//Source/Drums/hihat.h **** #include <stdlib.h>
  10:../../DaisyExamples/DaisySP//Source/Drums/hihat.h **** #ifdef __cplusplus
  11:../../DaisyExamples/DaisySP//Source/Drums/hihat.h **** 
  12:../../DaisyExamples/DaisySP//Source/Drums/hihat.h **** /** @file hihat.h */
  13:../../DaisyExamples/DaisySP//Source/Drums/hihat.h **** 
  14:../../DaisyExamples/DaisySP//Source/Drums/hihat.h **** namespace daisysp
  15:../../DaisyExamples/DaisySP//Source/Drums/hihat.h **** {
  16:../../DaisyExamples/DaisySP//Source/Drums/hihat.h **** /**  
  17:../../DaisyExamples/DaisySP//Source/Drums/hihat.h ****        @brief 808 style "metallic noise" with 6 square oscillators.
  18:../../DaisyExamples/DaisySP//Source/Drums/hihat.h ****        @author Ben Sergentanis
  19:../../DaisyExamples/DaisySP//Source/Drums/hihat.h ****        @date Jan 2021
  20:../../DaisyExamples/DaisySP//Source/Drums/hihat.h ****        Ported from pichenettes/eurorack/plaits/dsp/drums/hihat.h \n
  21:../../DaisyExamples/DaisySP//Source/Drums/hihat.h ****        to an independent module. \n
  22:../../DaisyExamples/DaisySP//Source/Drums/hihat.h ****        Original code written by Emilie Gillet in 2016. \n
  23:../../DaisyExamples/DaisySP//Source/Drums/hihat.h **** */
  24:../../DaisyExamples/DaisySP//Source/Drums/hihat.h **** class SquareNoise
  25:../../DaisyExamples/DaisySP//Source/Drums/hihat.h **** {
  26:../../DaisyExamples/DaisySP//Source/Drums/hihat.h ****   public:
  27:../../DaisyExamples/DaisySP//Source/Drums/hihat.h ****     SquareNoise() {}
  28:../../DaisyExamples/DaisySP//Source/Drums/hihat.h ****     ~SquareNoise() {}
  29:../../DaisyExamples/DaisySP//Source/Drums/hihat.h **** 
  30:../../DaisyExamples/DaisySP//Source/Drums/hihat.h ****     void Init(float sample_rate);
  31:../../DaisyExamples/DaisySP//Source/Drums/hihat.h **** 
  32:../../DaisyExamples/DaisySP//Source/Drums/hihat.h ****     float Process(float f0);
  33:../../DaisyExamples/DaisySP//Source/Drums/hihat.h **** 
  34:../../DaisyExamples/DaisySP//Source/Drums/hihat.h ****   private:
  35:../../DaisyExamples/DaisySP//Source/Drums/hihat.h ****     uint32_t phase_[6];
  36:../../DaisyExamples/DaisySP//Source/Drums/hihat.h **** };
  37:../../DaisyExamples/DaisySP//Source/Drums/hihat.h **** 
  38:../../DaisyExamples/DaisySP//Source/Drums/hihat.h **** /**  
  39:../../DaisyExamples/DaisySP//Source/Drums/hihat.h ****        @brief Ring mod style metallic noise generator.
  40:../../DaisyExamples/DaisySP//Source/Drums/hihat.h ****        @author Ben Sergentanis
  41:../../DaisyExamples/DaisySP//Source/Drums/hihat.h ****        @date Jan 2021
  42:../../DaisyExamples/DaisySP//Source/Drums/hihat.h ****        Ported from pichenettes/eurorack/plaits/dsp/drums/hihat.h \n
  43:../../DaisyExamples/DaisySP//Source/Drums/hihat.h ****        to an independent module. \n
  44:../../DaisyExamples/DaisySP//Source/Drums/hihat.h ****        Original code written by Emilie Gillet in 2016. \n
  45:../../DaisyExamples/DaisySP//Source/Drums/hihat.h **** */
  46:../../DaisyExamples/DaisySP//Source/Drums/hihat.h **** class RingModNoise
  47:../../DaisyExamples/DaisySP//Source/Drums/hihat.h **** {
  48:../../DaisyExamples/DaisySP//Source/Drums/hihat.h ****   public:
  49:../../DaisyExamples/DaisySP//Source/Drums/hihat.h ****     RingModNoise() {}
  50:../../DaisyExamples/DaisySP//Source/Drums/hihat.h ****     ~RingModNoise() {}
  51:../../DaisyExamples/DaisySP//Source/Drums/hihat.h **** 
  52:../../DaisyExamples/DaisySP//Source/Drums/hihat.h ****     void Init(float sample_rate);
  53:../../DaisyExamples/DaisySP//Source/Drums/hihat.h **** 
  54:../../DaisyExamples/DaisySP//Source/Drums/hihat.h ****     float Process(float f0);
  55:../../DaisyExamples/DaisySP//Source/Drums/hihat.h **** 
  56:../../DaisyExamples/DaisySP//Source/Drums/hihat.h ****   private:
  57:../../DaisyExamples/DaisySP//Source/Drums/hihat.h ****     float      ProcessPair(Oscillator* osc, float f1, float f2);
  58:../../DaisyExamples/DaisySP//Source/Drums/hihat.h ****     Oscillator oscillator_[6];
  59:../../DaisyExamples/DaisySP//Source/Drums/hihat.h **** 
  60:../../DaisyExamples/DaisySP//Source/Drums/hihat.h ****     float sample_rate_;
  61:../../DaisyExamples/DaisySP//Source/Drums/hihat.h **** };
  62:../../DaisyExamples/DaisySP//Source/Drums/hihat.h **** 
ARM GAS  /var/folders/b5/3l92j93d5t1__l78tfntmwyr0000gn/T//ccd9zsAq.s 			page 17


  63:../../DaisyExamples/DaisySP//Source/Drums/hihat.h **** /**  
  64:../../DaisyExamples/DaisySP//Source/Drums/hihat.h ****        @brief Swing type VCA
  65:../../DaisyExamples/DaisySP//Source/Drums/hihat.h ****        @author Ben Sergentanis
  66:../../DaisyExamples/DaisySP//Source/Drums/hihat.h ****        @date Jan 2021
  67:../../DaisyExamples/DaisySP//Source/Drums/hihat.h ****        Ported from pichenettes/eurorack/plaits/dsp/drums/hihat.h \n
  68:../../DaisyExamples/DaisySP//Source/Drums/hihat.h ****        to an independent module. \n
  69:../../DaisyExamples/DaisySP//Source/Drums/hihat.h ****        Original code written by Emilie Gillet in 2016. \n
  70:../../DaisyExamples/DaisySP//Source/Drums/hihat.h **** */
  71:../../DaisyExamples/DaisySP//Source/Drums/hihat.h **** class SwingVCA
  72:../../DaisyExamples/DaisySP//Source/Drums/hihat.h **** {
  73:../../DaisyExamples/DaisySP//Source/Drums/hihat.h ****   public:
  74:../../DaisyExamples/DaisySP//Source/Drums/hihat.h ****     float operator()(float s, float gain)
  75:../../DaisyExamples/DaisySP//Source/Drums/hihat.h ****     {
  76:../../DaisyExamples/DaisySP//Source/Drums/hihat.h ****         s *= s > 0.0f ? 10.0f : 0.1f;
  77:../../DaisyExamples/DaisySP//Source/Drums/hihat.h ****         s = s / (1.0f + fabsf(s));
  78:../../DaisyExamples/DaisySP//Source/Drums/hihat.h ****         return (s + 1.0f) * gain;
  79:../../DaisyExamples/DaisySP//Source/Drums/hihat.h ****     }
  80:../../DaisyExamples/DaisySP//Source/Drums/hihat.h **** };
  81:../../DaisyExamples/DaisySP//Source/Drums/hihat.h **** 
  82:../../DaisyExamples/DaisySP//Source/Drums/hihat.h **** /**  
  83:../../DaisyExamples/DaisySP//Source/Drums/hihat.h ****        @brief Linear type VCA
  84:../../DaisyExamples/DaisySP//Source/Drums/hihat.h ****        @author Ben Sergentanis
  85:../../DaisyExamples/DaisySP//Source/Drums/hihat.h ****        @date Jan 2021
  86:../../DaisyExamples/DaisySP//Source/Drums/hihat.h ****        Ported from pichenettes/eurorack/plaits/dsp/drums/hihat.h \n
  87:../../DaisyExamples/DaisySP//Source/Drums/hihat.h ****        to an independent module. \n
  88:../../DaisyExamples/DaisySP//Source/Drums/hihat.h ****        Original code written by Emilie Gillet in 2016. \n
  89:../../DaisyExamples/DaisySP//Source/Drums/hihat.h **** */
  90:../../DaisyExamples/DaisySP//Source/Drums/hihat.h **** class LinearVCA
  91:../../DaisyExamples/DaisySP//Source/Drums/hihat.h **** {
  92:../../DaisyExamples/DaisySP//Source/Drums/hihat.h ****   public:
  93:../../DaisyExamples/DaisySP//Source/Drums/hihat.h ****     float operator()(float s, float gain) { return s * gain; }
  94:../../DaisyExamples/DaisySP//Source/Drums/hihat.h **** };
  95:../../DaisyExamples/DaisySP//Source/Drums/hihat.h **** 
  96:../../DaisyExamples/DaisySP//Source/Drums/hihat.h **** /**  
  97:../../DaisyExamples/DaisySP//Source/Drums/hihat.h ****        @brief 808 HH, with a few extra parameters to push things to the CY territory...
  98:../../DaisyExamples/DaisySP//Source/Drums/hihat.h ****        @author Ben Sergentanis
  99:../../DaisyExamples/DaisySP//Source/Drums/hihat.h ****        @date Jan 2021
 100:../../DaisyExamples/DaisySP//Source/Drums/hihat.h ****        The template parameter MetallicNoiseSource allows another kind of "metallic \n
 101:../../DaisyExamples/DaisySP//Source/Drums/hihat.h ****        noise" to be used, for results which are more similar to KR-55 or FM hi-hats. \n \n 
 102:../../DaisyExamples/DaisySP//Source/Drums/hihat.h ****        Ported from pichenettes/eurorack/plaits/dsp/drums/hihat.h \n
 103:../../DaisyExamples/DaisySP//Source/Drums/hihat.h ****        to an independent module. \n
 104:../../DaisyExamples/DaisySP//Source/Drums/hihat.h ****        Original code written by Emilie Gillet in 2016. \n
 105:../../DaisyExamples/DaisySP//Source/Drums/hihat.h **** */
 106:../../DaisyExamples/DaisySP//Source/Drums/hihat.h **** template <typename MetallicNoiseSource = SquareNoise,
 107:../../DaisyExamples/DaisySP//Source/Drums/hihat.h ****           typename VCA                 = LinearVCA,
 108:../../DaisyExamples/DaisySP//Source/Drums/hihat.h ****           bool resonance               = true>
 109:../../DaisyExamples/DaisySP//Source/Drums/hihat.h **** class HiHat
 110:../../DaisyExamples/DaisySP//Source/Drums/hihat.h **** {
 111:../../DaisyExamples/DaisySP//Source/Drums/hihat.h ****   public:
 112:../../DaisyExamples/DaisySP//Source/Drums/hihat.h ****     HiHat() {}
 113:../../DaisyExamples/DaisySP//Source/Drums/hihat.h ****     ~HiHat() {}
 280              		.loc 13 113 5 is_stmt 1 view -0
 281              		.cfi_startproc
 282              		@ args = 0, pretend = 0, frame = 0
 283              		@ frame_needed = 0, uses_anonymous_args = 0
 284              		@ link register save eliminated.
 285              	.LBB400:
ARM GAS  /var/folders/b5/3l92j93d5t1__l78tfntmwyr0000gn/T//ccd9zsAq.s 			page 18


 286              	.LBI400:
 287              		.loc 9 22 5 view .LVU38
 288              		.loc 9 22 5 is_stmt 0 view .LVU39
 289              	.LBE400:
 290              	.LBB401:
 291              	.LBI401:
 292              		.loc 9 22 5 is_stmt 1 view .LVU40
 293              		.loc 9 22 5 is_stmt 0 view .LVU41
 294              	.LBE401:
 295              	.LBB402:
 296              	.LBI402:
  28:../../DaisyExamples/DaisySP//Source/Drums/hihat.h **** 
 297              		.loc 13 28 5 is_stmt 1 view .LVU42
  28:../../DaisyExamples/DaisySP//Source/Drums/hihat.h **** 
 298              		.loc 13 28 5 is_stmt 0 view .LVU43
 299              	.LBE402:
 300              		.loc 13 113 15 view .LVU44
 301 0000 7047     		bx	lr
 302              		.cfi_endproc
 303              	.LFE5442:
 305              		.weak	_ZN7daisysp5HiHatINS_11SquareNoiseENS_9LinearVCAELb1EED1Ev
 306              		.thumb_set _ZN7daisysp5HiHatINS_11SquareNoiseENS_9LinearVCAELb1EED1Ev,_ZN7daisysp5HiHatINS_11Squar
 307 0002 00BF     		.section	.text._ZN6EZ_DSP7bpmToMsEf,"ax",%progbits
 308              		.align	1
 309              		.p2align 2,,3
 310              		.global	_ZN6EZ_DSP7bpmToMsEf
 311              		.syntax unified
 312              		.thumb
 313              		.thumb_func
 315              	_ZN6EZ_DSP7bpmToMsEf:
 316              	.LVL9:
 317              	.LFB4797:
 318              		.file 14 "../EZ_DSP/dsp.h"
   1:../EZ_DSP/dsp.h **** #pragma once
   2:../EZ_DSP/dsp.h **** #ifndef EZ_DSP_UTIL
   3:../EZ_DSP/dsp.h **** #define EZ_DSP_UTIL
   4:../EZ_DSP/dsp.h **** #include <cassert>
   5:../EZ_DSP/dsp.h **** #include <cstdint>
   6:../EZ_DSP/dsp.h **** #include <random>
   7:../EZ_DSP/dsp.h **** #include <cmath>
   8:../EZ_DSP/dsp.h **** 
   9:../EZ_DSP/dsp.h **** #define PI_F 3.1415927410125732421875f
  10:../EZ_DSP/dsp.h **** #define TWOPI_F (2.0f * PI_F)
  11:../EZ_DSP/dsp.h **** #define HALFPI_F (PI_F * 0.5f)
  12:../EZ_DSP/dsp.h **** namespace EZ_DSP 
  13:../EZ_DSP/dsp.h **** {
  14:../EZ_DSP/dsp.h ****     // fast maximum and minimum for floats, uses assembly if arm architecture
  15:../EZ_DSP/dsp.h ****     inline float fmax(float a, float b)
  16:../EZ_DSP/dsp.h ****     {
  17:../EZ_DSP/dsp.h ****         float max;
  18:../EZ_DSP/dsp.h ****         #ifdef __arm__
  19:../EZ_DSP/dsp.h ****             asm("vmaxnm.f32 %[d], %[n], %[m]" : [d] "=t"(max) : [n] "t"(a), [m] "t"(b) :);
  20:../EZ_DSP/dsp.h ****         #else
  21:../EZ_DSP/dsp.h ****             max = (a > b) ? a : b;
  22:../EZ_DSP/dsp.h ****         #endif // __arm__
  23:../EZ_DSP/dsp.h ****             return max;
  24:../EZ_DSP/dsp.h ****     }
ARM GAS  /var/folders/b5/3l92j93d5t1__l78tfntmwyr0000gn/T//ccd9zsAq.s 			page 19


  25:../EZ_DSP/dsp.h **** 
  26:../EZ_DSP/dsp.h ****     inline float fmin(float a, float b)
  27:../EZ_DSP/dsp.h ****     {
  28:../EZ_DSP/dsp.h ****         float min;
  29:../EZ_DSP/dsp.h ****         #ifdef __arm__
  30:../EZ_DSP/dsp.h ****             asm("vminnm.f32 %[d], %[n], %[m]" : [d] "=t"(min) : [n] "t"(a), [m] "t"(b) :);
  31:../EZ_DSP/dsp.h ****         #else 
  32:../EZ_DSP/dsp.h ****             min = a < b ? a : b;
  33:../EZ_DSP/dsp.h ****         #endif //__arm__
  34:../EZ_DSP/dsp.h ****             return min;
  35:../EZ_DSP/dsp.h ****     }
  36:../EZ_DSP/dsp.h ****     // clamp for floats
  37:../EZ_DSP/dsp.h ****     inline float fclamp(float in, float min, float max)
  38:../EZ_DSP/dsp.h ****     {
  39:../EZ_DSP/dsp.h ****         return fmin(fmax(in,min),max);
  40:../EZ_DSP/dsp.h ****     }    
  41:../EZ_DSP/dsp.h ****     // max, min and clamp for integers
  42:../EZ_DSP/dsp.h ****    inline int maxInt(int a, int b)
  43:../EZ_DSP/dsp.h ****     {
  44:../EZ_DSP/dsp.h ****         int max;
  45:../EZ_DSP/dsp.h ****         #ifdef __arm__
  46:../EZ_DSP/dsp.h ****             asm("smax %[d], %[n], %[m]" : [d] "=r"(max) : [n] "r"(a), [m] "r"(b));
  47:../EZ_DSP/dsp.h ****         #else
  48:../EZ_DSP/dsp.h ****             max = (a > b) ? a : b;
  49:../EZ_DSP/dsp.h ****         #endif // __arm__
  50:../EZ_DSP/dsp.h ****         return max;
  51:../EZ_DSP/dsp.h ****     }
  52:../EZ_DSP/dsp.h ****     inline int minInt(int a, int b)
  53:../EZ_DSP/dsp.h ****     {
  54:../EZ_DSP/dsp.h ****         int min;
  55:../EZ_DSP/dsp.h ****         #ifdef __arm__
  56:../EZ_DSP/dsp.h ****             asm("smin %[d], %[n], %[m]" : [d] "=r"(min) : [n] "r"(a), [m] "r"(b));
  57:../EZ_DSP/dsp.h ****         #else
  58:../EZ_DSP/dsp.h ****             min = (a < b) ? a : b;
  59:../EZ_DSP/dsp.h ****         #endif // __arm__
  60:../EZ_DSP/dsp.h ****         return min;
  61:../EZ_DSP/dsp.h ****     }
  62:../EZ_DSP/dsp.h ****     inline int clampInt(int in, int min, int max)
  63:../EZ_DSP/dsp.h ****     {
  64:../EZ_DSP/dsp.h ****         return minInt(maxInt(in,min), max);
  65:../EZ_DSP/dsp.h ****     }
  66:../EZ_DSP/dsp.h ****     // maps a float input to values between float mininmum and maximum
  67:../EZ_DSP/dsp.h ****     // assumes 0-1 input
  68:../EZ_DSP/dsp.h ****     inline float fmap(float in, float min, float max)
  69:../EZ_DSP/dsp.h ****     {
  70:../EZ_DSP/dsp.h **** 	    return fclamp(min + in * (max - min), min, max);
  71:../EZ_DSP/dsp.h ****     }
  72:../EZ_DSP/dsp.h **** 
  73:../EZ_DSP/dsp.h **** 
  74:../EZ_DSP/dsp.h ****     /*
  75:../EZ_DSP/dsp.h ****     One Pole LOWPASS filter
  76:../EZ_DSP/dsp.h ****     out is passed by reference
  77:../EZ_DSP/dsp.h ****     coeff can be calculated with:
  78:../EZ_DSP/dsp.h ****     coeff = 1.0 / (time * sample_rate) ; where time is in seconds
  79:../EZ_DSP/dsp.h ****     FOR EXAMPLE:
  80:../EZ_DSP/dsp.h ****     float output = 0, input = 1, delay = 40ms;
  81:../EZ_DSP/dsp.h ****     fonepole(output, input, 1/(delay *.001 * 44100) )
ARM GAS  /var/folders/b5/3l92j93d5t1__l78tfntmwyr0000gn/T//ccd9zsAq.s 			page 20


  82:../EZ_DSP/dsp.h ****     cout<<output;     yields "0.000566893"
  83:../EZ_DSP/dsp.h ****     */
  84:../EZ_DSP/dsp.h ****    inline void fonepole(float &out, float in, float coeff)
  85:../EZ_DSP/dsp.h ****    {
  86:../EZ_DSP/dsp.h ****         out += coeff * (in - out);
  87:../EZ_DSP/dsp.h ****    }
  88:../EZ_DSP/dsp.h **** 
  89:../EZ_DSP/dsp.h ****    float bpmToMs(float bpm)
  90:../EZ_DSP/dsp.h ****    {
 319              		.loc 14 90 4 is_stmt 1 view -0
 320              		.cfi_startproc
 321              		@ args = 0, pretend = 0, frame = 0
 322              		@ frame_needed = 0, uses_anonymous_args = 0
 323              		@ link register save eliminated.
  91:../EZ_DSP/dsp.h ****         bpm = fclamp(bpm, 30.f, 250.f);
 324              		.loc 14 91 9 view .LVU46
  92:../EZ_DSP/dsp.h ****         float milliseconds = 60000.0 / (bpm);
 325              		.loc 14 92 15 is_stmt 0 view .LVU47
 326 0000 DFED067A 		vldr.32	s15, .L12
 327              	.LVL10:
 328              	.LBB403:
 329              	.LBI403:
  37:../EZ_DSP/dsp.h ****     {
 330              		.loc 14 37 18 is_stmt 1 view .LVU48
 331              	.LBE403:
  39:../EZ_DSP/dsp.h ****     }    
 332              		.loc 14 39 9 view .LVU49
 333              	.LBB412:
 334              	.LBB404:
 335              	.LBI404:
  15:../EZ_DSP/dsp.h ****     {
 336              		.loc 14 15 18 view .LVU50
 337              	.LBB405:
  17:../EZ_DSP/dsp.h ****         #ifdef __arm__
 338              		.loc 14 17 9 view .LVU51
  19:../EZ_DSP/dsp.h ****         #else
 339              		.loc 14 19 13 view .LVU52
 340 0004 F3EE0E6A 		vmov.f32	s13, #3.0e+1
 341              	.LBE405:
 342              	.LBE404:
 343              	.LBB407:
 344              	.LBB408:
  30:../EZ_DSP/dsp.h ****         #else 
 345              		.loc 14 30 13 is_stmt 0 view .LVU53
 346 0008 9FED057A 		vldr.32	s14, .L12+4
 347              	.LBE408:
 348              	.LBE407:
 349              	.LBB410:
 350              	.LBB406:
  19:../EZ_DSP/dsp.h ****         #else
 351              		.loc 14 19 13 view .LVU54
 352              		.syntax unified
 353              	@ 19 "../EZ_DSP/dsp.h" 1
 354 000c 80FE260A 		vmaxnm.f32 s0, s0, s13
 355              	@ 0 "" 2
 356              	.LVL11:
  23:../EZ_DSP/dsp.h ****     }
ARM GAS  /var/folders/b5/3l92j93d5t1__l78tfntmwyr0000gn/T//ccd9zsAq.s 			page 21


 357              		.loc 14 23 13 is_stmt 1 view .LVU55
  23:../EZ_DSP/dsp.h ****     }
 358              		.loc 14 23 13 is_stmt 0 view .LVU56
 359              		.thumb
 360              		.syntax unified
 361              	.LBE406:
 362              	.LBE410:
 363              	.LBB411:
 364              	.LBI407:
  26:../EZ_DSP/dsp.h ****     {
 365              		.loc 14 26 18 is_stmt 1 view .LVU57
 366              	.LBB409:
  28:../EZ_DSP/dsp.h ****         #ifdef __arm__
 367              		.loc 14 28 9 view .LVU58
  30:../EZ_DSP/dsp.h ****         #else 
 368              		.loc 14 30 13 view .LVU59
 369              		.syntax unified
 370              	@ 30 "../EZ_DSP/dsp.h" 1
 371 0010 80FE470A 		vminnm.f32 s0, s0, s14
 372              	@ 0 "" 2
 373              	.LVL12:
  34:../EZ_DSP/dsp.h ****     }
 374              		.loc 14 34 13 view .LVU60
  34:../EZ_DSP/dsp.h ****     }
 375              		.loc 14 34 13 is_stmt 0 view .LVU61
 376              		.thumb
 377              		.syntax unified
 378              	.LBE409:
 379              	.LBE411:
 380              	.LBE412:
 381              		.loc 14 92 9 is_stmt 1 view .LVU62
  93:../EZ_DSP/dsp.h ****         return milliseconds;
 382              		.loc 14 93 9 view .LVU63
  94:../EZ_DSP/dsp.h ****    }
 383              		.loc 14 94 4 is_stmt 0 view .LVU64
 384 0014 87EE800A 		vdiv.f32	s0, s15, s0
 385              	.LVL13:
 386              		.loc 14 94 4 view .LVU65
 387 0018 7047     		bx	lr
 388              	.L13:
 389 001a 00BF     		.align	2
 390              	.L12:
 391 001c 00606A47 		.word	1198153728
 392 0020 00007A43 		.word	1132068864
 393              		.cfi_endproc
 394              	.LFE4797:
 396              		.section	.text._ZN6EZ_DSP7bpmToHzEfi,"ax",%progbits
 397              		.align	1
 398              		.p2align 2,,3
 399              		.global	_ZN6EZ_DSP7bpmToHzEfi
 400              		.syntax unified
 401              		.thumb
 402              		.thumb_func
 404              	_ZN6EZ_DSP7bpmToHzEfi:
 405              	.LVL14:
 406              	.LFB4798:
  95:../EZ_DSP/dsp.h **** 
ARM GAS  /var/folders/b5/3l92j93d5t1__l78tfntmwyr0000gn/T//ccd9zsAq.s 			page 22


  96:../EZ_DSP/dsp.h ****    float bpmToHz(float bpm, int numSteps)
  97:../EZ_DSP/dsp.h ****    {
 407              		.loc 14 97 4 is_stmt 1 view -0
 408              		.cfi_startproc
 409              		@ args = 0, pretend = 0, frame = 0
 410              		@ frame_needed = 0, uses_anonymous_args = 0
 411              		@ link register save eliminated.
  98:../EZ_DSP/dsp.h ****     float Hz = bpm / 60.f;
 412              		.loc 14 98 5 view .LVU67
 413              		.loc 14 98 11 is_stmt 0 view .LVU68
 414 0000 DFED077A 		vldr.32	s15, .L16
  99:../EZ_DSP/dsp.h ****     Hz *= (numSteps/4);
 415              		.loc 14 99 20 view .LVU69
 416 0004 0028     		cmp	r0, #0
  98:../EZ_DSP/dsp.h ****     float Hz = bpm / 60.f;
 417              		.loc 14 98 11 view .LVU70
 418 0006 80EE277A 		vdiv.f32	s14, s0, s15
 419              	.LVL15:
 420              		.loc 14 99 5 is_stmt 1 view .LVU71
 100:../EZ_DSP/dsp.h ****     return Hz;
 421              		.loc 14 100 5 view .LVU72
  99:../EZ_DSP/dsp.h ****     Hz *= (numSteps/4);
 422              		.loc 14 99 20 is_stmt 0 view .LVU73
 423 000a B8BF     		it	lt
 424 000c 0330     		addlt	r0, r0, #3
 425              	.LVL16:
  99:../EZ_DSP/dsp.h ****     Hz *= (numSteps/4);
 426              		.loc 14 99 20 view .LVU74
 427 000e 8010     		asrs	r0, r0, #2
  99:../EZ_DSP/dsp.h ****     Hz *= (numSteps/4);
 428              		.loc 14 99 8 view .LVU75
 429 0010 07EE900A 		vmov	s15, r0	@ int
 430 0014 B8EEE70A 		vcvt.f32.s32	s0, s15
 431              	.LVL17:
 101:../EZ_DSP/dsp.h ****    }
 432              		.loc 14 101 4 view .LVU76
 433 0018 20EE070A 		vmul.f32	s0, s0, s14
 434 001c 7047     		bx	lr
 435              	.L17:
 436 001e 00BF     		.align	2
 437              	.L16:
 438 0020 00007042 		.word	1114636288
 439              		.cfi_endproc
 440              	.LFE4798:
 442              		.section	.text._Z16generateSineWavePfi,"ax",%progbits
 443              		.align	1
 444              		.p2align 2,,3
 445              		.global	_Z16generateSineWavePfi
 446              		.syntax unified
 447              		.thumb
 448              		.thumb_func
 450              	_Z16generateSineWavePfi:
 451              	.LVL18:
 452              	.LFB4851:
 453              		.file 15 "../EZ_DSP/JOEoscillator.h"
   1:../EZ_DSP/JOEoscillator.h **** #include <cmath>
   2:../EZ_DSP/JOEoscillator.h **** 
ARM GAS  /var/folders/b5/3l92j93d5t1__l78tfntmwyr0000gn/T//ccd9zsAq.s 			page 23


   3:../EZ_DSP/JOEoscillator.h **** void generateSineWave(float* waveform, int waveformSize) 
   4:../EZ_DSP/JOEoscillator.h **** {
 454              		.loc 15 4 1 is_stmt 1 view -0
 455              		.cfi_startproc
 456              		@ args = 0, pretend = 0, frame = 0
 457              		@ frame_needed = 0, uses_anonymous_args = 0
   5:../EZ_DSP/JOEoscillator.h ****     for (int i = 0; i < waveformSize; ++i) 
 458              		.loc 15 5 5 view .LVU78
 459              	.LBB413:
 460              		.loc 15 5 23 view .LVU79
 461              	.LBE413:
   4:../EZ_DSP/JOEoscillator.h ****     for (int i = 0; i < waveformSize; ++i) 
 462              		.loc 15 4 1 is_stmt 0 view .LVU80
 463 0000 70B5     		push	{r4, r5, r6, lr}
 464              		.cfi_def_cfa_offset 16
 465              		.cfi_offset 4, -16
 466              		.cfi_offset 5, -12
 467              		.cfi_offset 6, -8
 468              		.cfi_offset 14, -4
 469              	.LBB418:
 470              		.loc 15 5 23 view .LVU81
 471 0002 0E1E     		subs	r6, r1, #0
 472              	.LBE418:
   4:../EZ_DSP/JOEoscillator.h ****     for (int i = 0; i < waveformSize; ++i) 
 473              		.loc 15 4 1 view .LVU82
 474 0004 2DED028B 		vpush.64	{d8}
 475              		.cfi_def_cfa_offset 24
 476              		.cfi_offset 80, -24
 477              		.cfi_offset 81, -20
 478              	.LBB419:
 479              		.loc 15 5 23 view .LVU83
 480 0008 18DD     		ble	.L18
 481              	.LBB414:
   6:../EZ_DSP/JOEoscillator.h ****     {
   7:../EZ_DSP/JOEoscillator.h ****         float phase = 2.0 * M_PI * i / waveformSize;
 482              		.loc 15 7 38 view .LVU84
 483 000a 07EE906A 		vmov	s15, r6	@ int
 484 000e 0546     		mov	r5, r0
 485              	.LBE414:
   5:../EZ_DSP/JOEoscillator.h ****     {
 486              		.loc 15 5 14 view .LVU85
 487 0010 0024     		movs	r4, #0
 488              	.LBB415:
 489              		.loc 15 7 38 view .LVU86
 490 0012 B8EEE78B 		vcvt.f64.s32	d8, s15
 491              	.LVL19:
 492              	.L21:
 493              		.loc 15 7 9 is_stmt 1 discriminator 2 view .LVU87
   8:../EZ_DSP/JOEoscillator.h ****         waveform[i] = sinf(phase);
 494              		.loc 15 8 9 discriminator 2 view .LVU88
   7:../EZ_DSP/JOEoscillator.h ****         waveform[i] = sinf(phase);
 495              		.loc 15 7 34 is_stmt 0 discriminator 2 view .LVU89
 496 0016 07EE904A 		vmov	s15, r4	@ int
 497              	.LBE415:
   5:../EZ_DSP/JOEoscillator.h ****     {
 498              		.loc 15 5 5 discriminator 2 view .LVU90
 499 001a 0134     		adds	r4, r4, #1
ARM GAS  /var/folders/b5/3l92j93d5t1__l78tfntmwyr0000gn/T//ccd9zsAq.s 			page 24


 500              	.LVL20:
 501              	.LBB416:
   7:../EZ_DSP/JOEoscillator.h ****         waveform[i] = sinf(phase);
 502              		.loc 15 7 34 discriminator 2 view .LVU91
 503 001c 9FED0A6B 		vldr.64	d6, .L23
 504 0020 B8EEE77B 		vcvt.f64.s32	d7, s15
 505 0024 27EE067B 		vmul.f64	d7, d7, d6
   7:../EZ_DSP/JOEoscillator.h ****         waveform[i] = sinf(phase);
 506              		.loc 15 7 38 discriminator 2 view .LVU92
 507 0028 87EE080B 		vdiv.f64	d0, d7, d8
 508              		.loc 15 8 27 discriminator 2 view .LVU93
 509 002c B7EEC00B 		vcvt.f32.f64	s0, d0
 510              	.LVL21:
 511              		.loc 15 8 27 discriminator 2 view .LVU94
 512 0030 FFF7FEFF 		bl	sinf
 513              	.LVL22:
 514              		.loc 15 8 27 discriminator 2 view .LVU95
 515              	.LBE416:
   5:../EZ_DSP/JOEoscillator.h ****     {
 516              		.loc 15 5 23 discriminator 2 view .LVU96
 517 0034 A642     		cmp	r6, r4
 518              	.LBB417:
 519              		.loc 15 8 21 discriminator 2 view .LVU97
 520 0036 A5EC010A 		vstmia.32	r5!, {s0}
 521              	.LBE417:
   5:../EZ_DSP/JOEoscillator.h ****     {
 522              		.loc 15 5 5 is_stmt 1 discriminator 2 view .LVU98
 523              	.LVL23:
   5:../EZ_DSP/JOEoscillator.h ****     {
 524              		.loc 15 5 23 discriminator 2 view .LVU99
 525 003a ECD1     		bne	.L21
 526              	.LVL24:
 527              	.L18:
   5:../EZ_DSP/JOEoscillator.h ****     {
 528              		.loc 15 5 23 is_stmt 0 discriminator 2 view .LVU100
 529              	.LBE419:
   9:../EZ_DSP/JOEoscillator.h ****     }
  10:../EZ_DSP/JOEoscillator.h **** }
 530              		.loc 15 10 1 view .LVU101
 531 003c BDEC028B 		vldm	sp!, {d8}
 532              		.cfi_restore 80
 533              		.cfi_restore 81
 534              		.cfi_def_cfa_offset 16
 535 0040 70BD     		pop	{r4, r5, r6, pc}
 536              	.LVL25:
 537              	.L24:
 538              		.loc 15 10 1 view .LVU102
 539 0042 00BFAFF3 		.align	3
 539      0080
 540              	.L23:
 541 0048 182D4454 		.word	1413754136
 542 004c FB211940 		.word	1075388923
 543              		.cfi_endproc
 544              	.LFE4851:
 546              		.section	.text._Z18generateSquareWavePfi,"ax",%progbits
 547              		.align	1
 548              		.p2align 2,,3
ARM GAS  /var/folders/b5/3l92j93d5t1__l78tfntmwyr0000gn/T//ccd9zsAq.s 			page 25


 549              		.global	_Z18generateSquareWavePfi
 550              		.syntax unified
 551              		.thumb
 552              		.thumb_func
 554              	_Z18generateSquareWavePfi:
 555              	.LVL26:
 556              	.LFB4852:
  11:../EZ_DSP/JOEoscillator.h **** 
  12:../EZ_DSP/JOEoscillator.h **** void generateSquareWave(float* waveform, int waveformSize) 
  13:../EZ_DSP/JOEoscillator.h **** {
 557              		.loc 15 13 1 is_stmt 1 view -0
 558              		.cfi_startproc
 559              		@ args = 0, pretend = 0, frame = 0
 560              		@ frame_needed = 0, uses_anonymous_args = 0
  14:../EZ_DSP/JOEoscillator.h ****     for (int i = 0; i < waveformSize; ++i) 
 561              		.loc 15 14 5 view .LVU104
 562              	.LBB420:
 563              		.loc 15 14 23 view .LVU105
 564 0000 0029     		cmp	r1, #0
 565              		.loc 15 14 23 is_stmt 0 view .LVU106
 566 0002 15DD     		ble	.L32
 567              		.loc 15 14 14 view .LVU107
 568 0004 0023     		movs	r3, #0
 569              	.LBE420:
  13:../EZ_DSP/JOEoscillator.h ****     for (int i = 0; i < waveformSize; ++i) 
 570              		.loc 15 13 1 view .LVU108
 571 0006 00B5     		push	{lr}
 572              		.cfi_def_cfa_offset 4
 573              		.cfi_offset 14, -4
 574              	.LBB421:
  15:../EZ_DSP/JOEoscillator.h ****     {
  16:../EZ_DSP/JOEoscillator.h ****         if (i < waveformSize / 2) 
 575              		.loc 15 16 30 view .LVU109
 576 0008 4FEA610E 		asr	lr, r1, #1
 577              	.LVL27:
 578              	.L29:
 579              		.loc 15 16 9 is_stmt 1 view .LVU110
  17:../EZ_DSP/JOEoscillator.h ****             waveform[i] = 1.0;
 580              		.loc 15 17 13 view .LVU111
  18:../EZ_DSP/JOEoscillator.h ****         else 
  19:../EZ_DSP/JOEoscillator.h ****             waveform[i] = -1.0;
 581              		.loc 15 19 13 view .LVU112
  16:../EZ_DSP/JOEoscillator.h ****             waveform[i] = 1.0;
 582              		.loc 15 16 9 is_stmt 0 view .LVU113
 583 000c 9E45     		cmp	lr, r3
  17:../EZ_DSP/JOEoscillator.h ****             waveform[i] = 1.0;
 584              		.loc 15 17 25 view .LVU114
 585 000e 4FF07E5C 		mov	ip, #1065353216
 586              		.loc 15 19 25 view .LVU115
 587 0012 084A     		ldr	r2, .L35
  14:../EZ_DSP/JOEoscillator.h ****     {
 588              		.loc 15 14 5 view .LVU116
 589 0014 03F10103 		add	r3, r3, #1
 590              	.LVL28:
  17:../EZ_DSP/JOEoscillator.h ****         else 
 591              		.loc 15 17 25 view .LVU117
 592 0018 C8BF     		it	gt
ARM GAS  /var/folders/b5/3l92j93d5t1__l78tfntmwyr0000gn/T//ccd9zsAq.s 			page 26


 593 001a C0F800C0 		strgt	ip, [r0]	@ float
  14:../EZ_DSP/JOEoscillator.h ****     {
 594              		.loc 15 14 23 view .LVU118
 595 001e 00F10400 		add	r0, r0, #4
 596              		.loc 15 19 25 view .LVU119
 597 0022 D8BF     		it	le
 598 0024 40F8042C 		strle	r2, [r0, #-4]	@ float
  14:../EZ_DSP/JOEoscillator.h ****     {
 599              		.loc 15 14 5 is_stmt 1 view .LVU120
 600              	.LVL29:
  14:../EZ_DSP/JOEoscillator.h ****     {
 601              		.loc 15 14 23 view .LVU121
 602 0028 9942     		cmp	r1, r3
 603 002a EFD1     		bne	.L29
 604              	.LBE421:
  20:../EZ_DSP/JOEoscillator.h ****     }
  21:../EZ_DSP/JOEoscillator.h **** }
 605              		.loc 15 21 1 is_stmt 0 view .LVU122
 606 002c 5DF804FB 		ldr	pc, [sp], #4
 607              	.LVL30:
 608              	.L32:
 609              		.cfi_def_cfa_offset 0
 610              		.cfi_restore 14
 611              		.loc 15 21 1 view .LVU123
 612 0030 7047     		bx	lr
 613              	.L36:
 614 0032 00BF     		.align	2
 615              	.L35:
 616 0034 000080BF 		.word	-1082130432
 617              		.cfi_endproc
 618              	.LFE4852:
 620              		.section	.text._Z12clearPatternv,"ax",%progbits
 621              		.align	1
 622              		.p2align 2,,3
 623              		.global	_Z12clearPatternv
 624              		.syntax unified
 625              		.thumb
 626              		.thumb_func
 628              	_Z12clearPatternv:
 629              	.LFB4853:
 630              		.file 16 "MachineDaisyFile.cpp"
   1:MachineDaisyFile.cpp **** #include "daisy_seed.h"
   2:MachineDaisyFile.cpp **** #include "daisysp.h"
   3:MachineDaisyFile.cpp **** #include "../EZ_DSP/EZ_DSP.h"
   4:MachineDaisyFile.cpp **** 
   5:MachineDaisyFile.cpp **** #define MAX_DELAY 96000
   6:MachineDaisyFile.cpp **** #define NUM_STEPS 8
   7:MachineDaisyFile.cpp **** 
   8:MachineDaisyFile.cpp **** using namespace daisy;
   9:MachineDaisyFile.cpp **** using namespace daisysp;
  10:MachineDaisyFile.cpp **** 
  11:MachineDaisyFile.cpp **** constexpr Pin BUTTONS     = seed::D15;
  12:MachineDaisyFile.cpp **** constexpr Pin SELECTOR    = seed::D16;
  13:MachineDaisyFile.cpp **** constexpr Pin STEP_MODE   = seed::D17;
  14:MachineDaisyFile.cpp **** constexpr Pin TEMPO       = seed::D18;
  15:MachineDaisyFile.cpp **** constexpr Pin TAP_TEMPO   = seed::D19;
  16:MachineDaisyFile.cpp **** 
ARM GAS  /var/folders/b5/3l92j93d5t1__l78tfntmwyr0000gn/T//ccd9zsAq.s 			page 27


  17:MachineDaisyFile.cpp **** static DaisySeed hw;
  18:MachineDaisyFile.cpp **** static AdcHandle adc;
  19:MachineDaisyFile.cpp **** 
  20:MachineDaisyFile.cpp **** 
  21:MachineDaisyFile.cpp **** enum drumModes
  22:MachineDaisyFile.cpp **** {
  23:MachineDaisyFile.cpp **** 	KICK, SNARE, HAT, SYNTH_KICK
  24:MachineDaisyFile.cpp **** };
  25:MachineDaisyFile.cpp **** 
  26:MachineDaisyFile.cpp **** int drumMode = 0;
  27:MachineDaisyFile.cpp **** Switch selector, tapTempo;
  28:MachineDaisyFile.cpp **** float buttonValue;
  29:MachineDaisyFile.cpp **** 
  30:MachineDaisyFile.cpp **** //====================================================================================
  31:MachineDaisyFile.cpp **** Metro tick;
  32:MachineDaisyFile.cpp **** AnalogBassDrum kick;
  33:MachineDaisyFile.cpp **** HiHat<SquareNoise, LinearVCA, true> hat;
  34:MachineDaisyFile.cpp **** SyntheticBassDrum synthKick;
  35:MachineDaisyFile.cpp **** SyntheticSnareDrum snare;
  36:MachineDaisyFile.cpp **** AdEnv kickEnv, snareEnv, hatEnv, synthEnv;
  37:MachineDaisyFile.cpp **** //EZ_DSP::DelayLine<float, MAX_DELAY> DSY_SDRAM_BSS del;
  38:MachineDaisyFile.cpp **** 
  39:MachineDaisyFile.cpp **** //EZ_DSP::kickDrum ourKick;
  40:MachineDaisyFile.cpp **** 
  41:MachineDaisyFile.cpp **** bool snares[8] = {false, false, false, false, false, false, false, false};
  42:MachineDaisyFile.cpp **** bool kicks[8] = {false, false, false, false, false, false, false, false};
  43:MachineDaisyFile.cpp **** bool hats[8] = {false, false, false, false, false, false, false, false};
  44:MachineDaisyFile.cpp **** bool synths[8] = {false, false, false, false, false, false, false, false};
  45:MachineDaisyFile.cpp **** 
  46:MachineDaisyFile.cpp **** int step=0;
  47:MachineDaisyFile.cpp **** bool patternIn = false;
  48:MachineDaisyFile.cpp **** bool stepMode = true; //true = sequencer, false = use tap
  49:MachineDaisyFile.cpp **** float tempoKnobValue, onSwitchValue;
  50:MachineDaisyFile.cpp **** uint32_t debounceDelay = 100000; // 100000us 100ms
  51:MachineDaisyFile.cpp **** uint32_t lastDebounceTime = 0;
  52:MachineDaisyFile.cpp **** 
  53:MachineDaisyFile.cpp **** float delFeedback = .5f, delTime = .25f*48000, delWet = .5f;
  54:MachineDaisyFile.cpp **** //====================================================================================
  55:MachineDaisyFile.cpp **** // clears drum pattern 
  56:MachineDaisyFile.cpp **** void clearPattern()
  57:MachineDaisyFile.cpp **** {
 631              		.loc 16 57 1 is_stmt 1 view -0
 632              		.cfi_startproc
 633              		@ args = 0, pretend = 0, frame = 0
 634              		@ frame_needed = 0, uses_anonymous_args = 0
 635              		@ link register save eliminated.
  58:MachineDaisyFile.cpp **** 	for (int i=0; i < NUM_STEPS; i++)
 636              		.loc 16 58 2 view .LVU125
 637              	.LVL31:
 638              	.LBB423:
 639              		.loc 16 58 18 view .LVU126
  59:MachineDaisyFile.cpp **** 	{
  60:MachineDaisyFile.cpp **** 		snares[i] = kicks[i] = hats[i] = synths[i] = false;
 640              		.loc 16 60 46 is_stmt 0 view .LVU127
 641 0000 0023     		movs	r3, #0
 642              		.loc 16 60 34 view .LVU128
 643 0002 0948     		ldr	r0, .L39
ARM GAS  /var/folders/b5/3l92j93d5t1__l78tfntmwyr0000gn/T//ccd9zsAq.s 			page 28


 644              		.loc 16 60 24 view .LVU129
 645 0004 0949     		ldr	r1, .L39+4
 646              		.loc 16 60 13 view .LVU130
 647 0006 0A4A     		ldr	r2, .L39+8
 648              	.LBE423:
  57:MachineDaisyFile.cpp **** 	for (int i=0; i < NUM_STEPS; i++)
 649              		.loc 16 57 1 view .LVU131
 650 0008 10B4     		push	{r4}
 651              		.cfi_def_cfa_offset 4
 652              		.cfi_offset 4, -4
 653              	.LBB424:
 654              		.loc 16 60 34 view .LVU132
 655 000a C0E90033 		strd	r3, r3, [r0]
 656              		.loc 16 60 46 view .LVU133
 657 000e 094C     		ldr	r4, .L39+12
 658              	.LBE424:
  61:MachineDaisyFile.cpp **** 	}
  62:MachineDaisyFile.cpp **** 	patternIn = false;
 659              		.loc 16 62 12 view .LVU134
 660 0010 0948     		ldr	r0, .L39+16
 661              	.LBB425:
  60:MachineDaisyFile.cpp **** 	}
 662              		.loc 16 60 46 view .LVU135
 663 0012 C4E90033 		strd	r3, r3, [r4]
  60:MachineDaisyFile.cpp **** 	}
 664              		.loc 16 60 24 view .LVU136
 665 0016 C1E90033 		strd	r3, r3, [r1]
  60:MachineDaisyFile.cpp **** 	}
 666              		.loc 16 60 13 view .LVU137
 667 001a C2E90033 		strd	r3, r3, [r2]
 668              	.LVL32:
  60:MachineDaisyFile.cpp **** 	}
 669              		.loc 16 60 13 view .LVU138
 670              	.LBE425:
 671              		.loc 16 62 2 is_stmt 1 view .LVU139
 672              		.loc 16 62 12 is_stmt 0 view .LVU140
 673 001e 0370     		strb	r3, [r0]
  63:MachineDaisyFile.cpp **** }
 674              		.loc 16 63 1 view .LVU141
 675 0020 5DF8044B 		ldr	r4, [sp], #4
 676              		.cfi_restore 4
 677              		.cfi_def_cfa_offset 0
 678 0024 7047     		bx	lr
 679              	.L40:
 680 0026 00BF     		.align	2
 681              	.L39:
 682 0028 00000000 		.word	.LANCHOR1
 683 002c 00000000 		.word	.LANCHOR2
 684 0030 00000000 		.word	.LANCHOR3
 685 0034 00000000 		.word	.LANCHOR0
 686 0038 00000000 		.word	.LANCHOR4
 687              		.cfi_endproc
 688              	.LFE4853:
 690              		.section	.text._Z15isButtonPressedi,"ax",%progbits
 691              		.align	1
 692              		.p2align 2,,3
 693              		.global	_Z15isButtonPressedi
ARM GAS  /var/folders/b5/3l92j93d5t1__l78tfntmwyr0000gn/T//ccd9zsAq.s 			page 29


 694              		.syntax unified
 695              		.thumb
 696              		.thumb_func
 698              	_Z15isButtonPressedi:
 699              	.LVL33:
 700              	.LFB4854:
  64:MachineDaisyFile.cpp **** //====================================================================================
  65:MachineDaisyFile.cpp **** // gets button press for a specific button in the ladder
  66:MachineDaisyFile.cpp **** bool isButtonPressed(int buttonIdx)
  67:MachineDaisyFile.cpp **** {
 701              		.loc 16 67 1 is_stmt 1 view -0
 702              		.cfi_startproc
 703              		@ args = 0, pretend = 0, frame = 0
 704              		@ frame_needed = 0, uses_anonymous_args = 0
  68:MachineDaisyFile.cpp **** 	buttonValue = hw.adc.GetFloat(0);
 705              		.loc 16 68 2 view .LVU143
  67:MachineDaisyFile.cpp **** 	buttonValue = hw.adc.GetFloat(0);
 706              		.loc 16 67 1 is_stmt 0 view .LVU144
 707 0000 10B5     		push	{r4, lr}
 708              		.cfi_def_cfa_offset 8
 709              		.cfi_offset 4, -8
 710              		.cfi_offset 14, -4
 711              		.loc 16 68 31 view .LVU145
 712 0002 0021     		movs	r1, #0
  67:MachineDaisyFile.cpp **** 	buttonValue = hw.adc.GetFloat(0);
 713              		.loc 16 67 1 view .LVU146
 714 0004 0446     		mov	r4, r0
 715              		.loc 16 68 31 view .LVU147
 716 0006 6248     		ldr	r0, .L70
 717              	.LVL34:
 718              		.loc 16 68 31 view .LVU148
 719 0008 FFF7FEFF 		bl	_ZNK5daisy9AdcHandle8GetFloatEh
 720              	.LVL35:
  69:MachineDaisyFile.cpp **** 	buttonValue = EZ_DSP::fmap(buttonValue, 0, 3300); // maps 0-1 value to milliamp values
 721              		.loc 16 69 2 is_stmt 1 view .LVU149
 722              	.LBB426:
 723              	.LBI426:
  68:../EZ_DSP/dsp.h ****     {
 724              		.loc 14 68 18 view .LVU150
 725              	.LBB427:
  70:../EZ_DSP/dsp.h ****     }
 726              		.loc 14 70 6 view .LVU151
  70:../EZ_DSP/dsp.h ****     }
 727              		.loc 14 70 19 is_stmt 0 view .LVU152
 728 000c DFED617A 		vldr.32	s15, .L70+4
 729 0010 DFED616A 		vldr.32	s13, .L70+8
 730 0014 B0EE677A 		vmov.f32	s14, s15
 731              	.LBE427:
 732              	.LBE426:
  70:MachineDaisyFile.cpp **** 	if (buttonValue < 100 && buttonIdx == 0)
 733              		.loc 16 70 2 view .LVU153
 734 0018 9FED606A 		vldr.32	s12, .L70+12
  69:MachineDaisyFile.cpp **** 	if (buttonValue < 100 && buttonIdx == 0)
 735              		.loc 16 69 14 view .LVU154
 736 001c 604B     		ldr	r3, .L70+16
 737              	.LBB436:
 738              	.LBB434:
ARM GAS  /var/folders/b5/3l92j93d5t1__l78tfntmwyr0000gn/T//ccd9zsAq.s 			page 30


  70:../EZ_DSP/dsp.h ****     }
 739              		.loc 14 70 19 view .LVU155
 740 001e A0EE267A 		vfma.f32	s14, s0, s13
 741              	.LVL36:
 742              	.LBB428:
 743              	.LBI428:
  37:../EZ_DSP/dsp.h ****     {
 744              		.loc 14 37 18 is_stmt 1 view .LVU156
 745              	.LBE428:
 746              	.LBE434:
 747              	.LBE436:
  39:../EZ_DSP/dsp.h ****     }    
 748              		.loc 14 39 9 view .LVU157
 749              	.LBB437:
 750              	.LBB435:
 751              	.LBB433:
 752              	.LBB429:
 753              	.LBI429:
  15:../EZ_DSP/dsp.h ****     {
 754              		.loc 14 15 18 view .LVU158
 755              	.LBB430:
  17:../EZ_DSP/dsp.h ****         #ifdef __arm__
 756              		.loc 14 17 9 view .LVU159
  19:../EZ_DSP/dsp.h ****         #else
 757              		.loc 14 19 13 view .LVU160
 758              		.syntax unified
 759              	@ 19 "../EZ_DSP/dsp.h" 1
 760 0022 C7FE277A 		vmaxnm.f32 s15, s14, s15
 761              	@ 0 "" 2
 762              	.LVL37:
  23:../EZ_DSP/dsp.h ****     }
 763              		.loc 14 23 13 view .LVU161
  23:../EZ_DSP/dsp.h ****     }
 764              		.loc 14 23 13 is_stmt 0 view .LVU162
 765              		.thumb
 766              		.syntax unified
 767              	.LBE430:
 768              	.LBE429:
 769              	.LBB431:
 770              	.LBI431:
  26:../EZ_DSP/dsp.h ****     {
 771              		.loc 14 26 18 is_stmt 1 view .LVU163
 772              	.LBB432:
  28:../EZ_DSP/dsp.h ****         #ifdef __arm__
 773              		.loc 14 28 9 view .LVU164
  30:../EZ_DSP/dsp.h ****         #else 
 774              		.loc 14 30 13 view .LVU165
 775              		.syntax unified
 776              	@ 30 "../EZ_DSP/dsp.h" 1
 777 0026 C7FEE67A 		vminnm.f32 s15, s15, s13
 778              	@ 0 "" 2
 779              	.LVL38:
  34:../EZ_DSP/dsp.h ****     }
 780              		.loc 14 34 13 view .LVU166
  34:../EZ_DSP/dsp.h ****     }
 781              		.loc 14 34 13 is_stmt 0 view .LVU167
 782              		.thumb
ARM GAS  /var/folders/b5/3l92j93d5t1__l78tfntmwyr0000gn/T//ccd9zsAq.s 			page 31


 783              		.syntax unified
 784              	.LBE432:
 785              	.LBE431:
 786              	.LBE433:
 787              	.LBE435:
 788              	.LBE437:
 789              		.loc 16 70 2 view .LVU168
 790 002a F4EEC67A 		vcmpe.f32	s15, s12
  69:MachineDaisyFile.cpp **** 	if (buttonValue < 100 && buttonIdx == 0)
 791              		.loc 16 69 14 view .LVU169
 792 002e C3ED007A 		vstr.32	s15, [r3]
 793              		.loc 16 70 2 is_stmt 1 view .LVU170
 794 0032 F1EE10FA 		vmrs	APSR_nzcv, FPSCR
 795 0036 4CBF     		ite	mi
 796 0038 0120     		movmi	r0, #1
 797 003a 0020     		movpl	r0, #0
 798              		.loc 16 70 24 is_stmt 0 view .LVU171
 799 003c 002C     		cmp	r4, #0
 800 003e 14BF     		ite	ne
 801 0040 0020     		movne	r0, #0
 802 0042 00F00100 		andeq	r0, r0, #1
 803 0046 0028     		cmp	r0, #0
 804 0048 40F09E80 		bne	.L42
  71:MachineDaisyFile.cpp **** 		return true;
  72:MachineDaisyFile.cpp **** 	if (buttonValue > 200 && buttonValue < 600 && buttonIdx == 1)
 805              		.loc 16 72 2 is_stmt 1 view .LVU172
 806 004c 9FED557A 		vldr.32	s14, .L70+20
 807 0050 F4EEC77A 		vcmpe.f32	s15, s14
 808 0054 F1EE10FA 		vmrs	APSR_nzcv, FPSCR
 809 0058 10DD     		ble	.L43
 810              		.loc 16 72 24 is_stmt 0 discriminator 2 view .LVU173
 811 005a 9FED537A 		vldr.32	s14, .L70+24
 812 005e F4EEC77A 		vcmpe.f32	s15, s14
 813 0062 F1EE10FA 		vmrs	APSR_nzcv, FPSCR
 814 0066 4CBF     		ite	mi
 815 0068 0123     		movmi	r3, #1
 816 006a 0023     		movpl	r3, #0
 817              		.loc 16 72 45 discriminator 2 view .LVU174
 818 006c 012C     		cmp	r4, #1
 819 006e 14BF     		ite	ne
 820 0070 0023     		movne	r3, #0
 821 0072 03F00103 		andeq	r3, r3, #1
 822 0076 002B     		cmp	r3, #0
 823 0078 40F08780 		bne	.L61
 824              	.L43:
  73:MachineDaisyFile.cpp **** 		return true;
  74:MachineDaisyFile.cpp **** 	if (buttonValue > 600 && buttonValue < 1000 && buttonIdx == 2)
 825              		.loc 16 74 2 is_stmt 1 view .LVU175
 826 007c 9FED4A7A 		vldr.32	s14, .L70+24
 827 0080 F4EEC77A 		vcmpe.f32	s15, s14
 828 0084 F1EE10FA 		vmrs	APSR_nzcv, FPSCR
 829 0088 0FDD     		ble	.L45
 830              		.loc 16 74 24 is_stmt 0 discriminator 2 view .LVU176
 831 008a 9FED487A 		vldr.32	s14, .L70+28
 832 008e F4EEC77A 		vcmpe.f32	s15, s14
 833 0092 F1EE10FA 		vmrs	APSR_nzcv, FPSCR
 834 0096 4CBF     		ite	mi
ARM GAS  /var/folders/b5/3l92j93d5t1__l78tfntmwyr0000gn/T//ccd9zsAq.s 			page 32


 835 0098 0123     		movmi	r3, #1
 836 009a 0023     		movpl	r3, #0
 837              		.loc 16 74 46 discriminator 2 view .LVU177
 838 009c 022C     		cmp	r4, #2
 839 009e 14BF     		ite	ne
 840 00a0 0023     		movne	r3, #0
 841 00a2 03F00103 		andeq	r3, r3, #1
 842 00a6 002B     		cmp	r3, #0
 843 00a8 6FD1     		bne	.L61
 844              	.L45:
  75:MachineDaisyFile.cpp **** 		return true;
  76:MachineDaisyFile.cpp **** 	if (buttonValue > 1000 && buttonValue < 1400 && buttonIdx == 3)
 845              		.loc 16 76 2 is_stmt 1 view .LVU178
 846 00aa 9FED407A 		vldr.32	s14, .L70+28
 847 00ae F4EEC77A 		vcmpe.f32	s15, s14
 848 00b2 F1EE10FA 		vmrs	APSR_nzcv, FPSCR
 849 00b6 0FDD     		ble	.L47
 850              		.loc 16 76 25 is_stmt 0 discriminator 2 view .LVU179
 851 00b8 9FED3D7A 		vldr.32	s14, .L70+32
 852 00bc F4EEC77A 		vcmpe.f32	s15, s14
 853 00c0 F1EE10FA 		vmrs	APSR_nzcv, FPSCR
 854 00c4 4CBF     		ite	mi
 855 00c6 0123     		movmi	r3, #1
 856 00c8 0023     		movpl	r3, #0
 857              		.loc 16 76 47 discriminator 2 view .LVU180
 858 00ca 032C     		cmp	r4, #3
 859 00cc 14BF     		ite	ne
 860 00ce 0023     		movne	r3, #0
 861 00d0 03F00103 		andeq	r3, r3, #1
 862 00d4 002B     		cmp	r3, #0
 863 00d6 58D1     		bne	.L61
 864              	.L47:
  77:MachineDaisyFile.cpp **** 		return true;
  78:MachineDaisyFile.cpp **** 	if (buttonValue > 1400 && buttonValue < 1800 && buttonIdx == 4)
 865              		.loc 16 78 2 is_stmt 1 view .LVU181
 866 00d8 9FED357A 		vldr.32	s14, .L70+32
 867 00dc F4EEC77A 		vcmpe.f32	s15, s14
 868 00e0 F1EE10FA 		vmrs	APSR_nzcv, FPSCR
 869 00e4 0FDD     		ble	.L49
 870              		.loc 16 78 25 is_stmt 0 discriminator 2 view .LVU182
 871 00e6 9FED337A 		vldr.32	s14, .L70+36
 872 00ea F4EEC77A 		vcmpe.f32	s15, s14
 873 00ee F1EE10FA 		vmrs	APSR_nzcv, FPSCR
 874 00f2 4CBF     		ite	mi
 875 00f4 0123     		movmi	r3, #1
 876 00f6 0023     		movpl	r3, #0
 877              		.loc 16 78 47 discriminator 2 view .LVU183
 878 00f8 042C     		cmp	r4, #4
 879 00fa 14BF     		ite	ne
 880 00fc 0023     		movne	r3, #0
 881 00fe 03F00103 		andeq	r3, r3, #1
 882 0102 002B     		cmp	r3, #0
 883 0104 41D1     		bne	.L61
 884              	.L49:
  79:MachineDaisyFile.cpp **** 		return true;
  80:MachineDaisyFile.cpp **** 	if (buttonValue > 1800 && buttonValue < 2200 && buttonIdx == 5)
 885              		.loc 16 80 2 is_stmt 1 view .LVU184
ARM GAS  /var/folders/b5/3l92j93d5t1__l78tfntmwyr0000gn/T//ccd9zsAq.s 			page 33


 886 0106 9FED2B7A 		vldr.32	s14, .L70+36
 887 010a F4EEC77A 		vcmpe.f32	s15, s14
 888 010e F1EE10FA 		vmrs	APSR_nzcv, FPSCR
 889 0112 0EDD     		ble	.L51
 890              		.loc 16 80 25 is_stmt 0 discriminator 2 view .LVU185
 891 0114 9FED287A 		vldr.32	s14, .L70+40
 892 0118 F4EEC77A 		vcmpe.f32	s15, s14
 893 011c F1EE10FA 		vmrs	APSR_nzcv, FPSCR
 894 0120 4CBF     		ite	mi
 895 0122 0123     		movmi	r3, #1
 896 0124 0023     		movpl	r3, #0
 897              		.loc 16 80 47 discriminator 2 view .LVU186
 898 0126 052C     		cmp	r4, #5
 899 0128 14BF     		ite	ne
 900 012a 0023     		movne	r3, #0
 901 012c 03F00103 		andeq	r3, r3, #1
 902 0130 5BBB     		cbnz	r3, .L61
 903              	.L51:
  81:MachineDaisyFile.cpp **** 		return true;
  82:MachineDaisyFile.cpp **** 	if (buttonValue > 2200 && buttonValue < 2600 && buttonIdx == 6)
 904              		.loc 16 82 2 is_stmt 1 view .LVU187
 905 0132 9FED217A 		vldr.32	s14, .L70+40
 906 0136 F4EEC77A 		vcmpe.f32	s15, s14
 907 013a F1EE10FA 		vmrs	APSR_nzcv, FPSCR
 908 013e 0EDD     		ble	.L53
 909              		.loc 16 82 25 is_stmt 0 discriminator 2 view .LVU188
 910 0140 9FED1E7A 		vldr.32	s14, .L70+44
 911 0144 F4EEC77A 		vcmpe.f32	s15, s14
 912 0148 F1EE10FA 		vmrs	APSR_nzcv, FPSCR
 913 014c 4CBF     		ite	mi
 914 014e 0123     		movmi	r3, #1
 915 0150 0023     		movpl	r3, #0
 916              		.loc 16 82 47 discriminator 2 view .LVU189
 917 0152 062C     		cmp	r4, #6
 918 0154 14BF     		ite	ne
 919 0156 0023     		movne	r3, #0
 920 0158 03F00103 		andeq	r3, r3, #1
 921 015c ABB9     		cbnz	r3, .L61
 922              	.L53:
  83:MachineDaisyFile.cpp **** 		return true;
  84:MachineDaisyFile.cpp **** 	if (buttonValue > 2600 && buttonValue < 3000 && buttonIdx == 7)
 923              		.loc 16 84 2 is_stmt 1 view .LVU190
 924 015e 9FED177A 		vldr.32	s14, .L70+44
 925 0162 F4EEC77A 		vcmpe.f32	s15, s14
 926 0166 F1EE10FA 		vmrs	APSR_nzcv, FPSCR
 927 016a 0DDD     		ble	.L42
 928              		.loc 16 84 25 is_stmt 0 discriminator 2 view .LVU191
 929 016c 9FED147A 		vldr.32	s14, .L70+48
 930 0170 F4EEC77A 		vcmpe.f32	s15, s14
 931 0174 F1EE10FA 		vmrs	APSR_nzcv, FPSCR
 932 0178 4CBF     		ite	mi
 933 017a 0120     		movmi	r0, #1
 934 017c 0020     		movpl	r0, #0
 935              		.loc 16 84 47 discriminator 2 view .LVU192
 936 017e 072C     		cmp	r4, #7
 937 0180 14BF     		ite	ne
 938 0182 0020     		movne	r0, #0
ARM GAS  /var/folders/b5/3l92j93d5t1__l78tfntmwyr0000gn/T//ccd9zsAq.s 			page 34


 939 0184 00F00100 		andeq	r0, r0, #1
 940              	.L42:
  85:MachineDaisyFile.cpp **** 		return true;
  86:MachineDaisyFile.cpp **** 	else return false;
  87:MachineDaisyFile.cpp **** }
 941              		.loc 16 87 1 view .LVU193
 942 0188 10BD     		pop	{r4, pc}
 943              	.LVL39:
 944              	.L61:
  71:MachineDaisyFile.cpp **** 	if (buttonValue > 200 && buttonValue < 600 && buttonIdx == 1)
 945              		.loc 16 71 10 view .LVU194
 946 018a 1846     		mov	r0, r3
 947              		.loc 16 87 1 view .LVU195
 948 018c 10BD     		pop	{r4, pc}
 949              	.LVL40:
 950              	.L71:
 951              		.loc 16 87 1 view .LVU196
 952 018e 00BF     		.align	2
 953              	.L70:
 954 0190 18000000 		.word	.LANCHOR5+24
 955 0194 00000000 		.word	0
 956 0198 00404E45 		.word	1162756096
 957 019c 0000C842 		.word	1120403456
 958 01a0 00000000 		.word	.LANCHOR6
 959 01a4 00004843 		.word	1128792064
 960 01a8 00001644 		.word	1142292480
 961 01ac 00007A44 		.word	1148846080
 962 01b0 0000AF44 		.word	1152319488
 963 01b4 0000E144 		.word	1155596288
 964 01b8 00800945 		.word	1158250496
 965 01bc 00802245 		.word	1159888896
 966 01c0 00803B45 		.word	1161527296
 967              		.cfi_endproc
 968              	.LFE4854:
 970              		.section	.text._Z14processButtonsv.part.0,"ax",%progbits
 971              		.align	1
 972              		.p2align 2,,3
 973              		.syntax unified
 974              		.thumb
 975              		.thumb_func
 977              	_Z14processButtonsv.part.0:
 978              	.LFB5446:
  88:MachineDaisyFile.cpp **** //====================================================================================
  89:MachineDaisyFile.cpp **** // gets button ladder presses and assigns them to boolean arrays 
  90:MachineDaisyFile.cpp **** void processButtons()
 979              		.loc 16 90 6 is_stmt 1 view -0
 980              		.cfi_startproc
 981              		@ args = 0, pretend = 0, frame = 0
 982              		@ frame_needed = 0, uses_anonymous_args = 0
 983              	.LVL41:
 984              	.LBB438:
 985              	.LBB439:
  91:MachineDaisyFile.cpp **** {
  92:MachineDaisyFile.cpp **** 	if (System::GetUs() - lastDebounceTime > debounceDelay)
  93:MachineDaisyFile.cpp **** 	{
  94:MachineDaisyFile.cpp **** 		for (int i = 0; i < NUM_STEPS; i++)
 986              		.loc 16 94 21 view .LVU198
ARM GAS  /var/folders/b5/3l92j93d5t1__l78tfntmwyr0000gn/T//ccd9zsAq.s 			page 35


 987              	.LBE439:
 988              	.LBE438:
  90:MachineDaisyFile.cpp **** {
 989              		.loc 16 90 6 is_stmt 0 view .LVU199
 990 0000 2DE9F843 		push	{r3, r4, r5, r6, r7, r8, r9, lr}
 991              		.cfi_def_cfa_offset 32
 992              		.cfi_offset 3, -32
 993              		.cfi_offset 4, -28
 994              		.cfi_offset 5, -24
 995              		.cfi_offset 6, -20
 996              		.cfi_offset 7, -16
 997              		.cfi_offset 8, -12
 998              		.cfi_offset 9, -8
 999              		.cfi_offset 14, -4
 1000 0004 DFF88480 		ldr	r8, .L86+24
 1001 0008 1A4F     		ldr	r7, .L86
 1002 000a 1B4E     		ldr	r6, .L86+4
 1003 000c 08F10809 		add	r9, r8, #8
 1004 0010 1A4D     		ldr	r5, .L86+8
  90:MachineDaisyFile.cpp **** {
 1005              		.loc 16 90 6 view .LVU200
 1006 0012 4446     		mov	r4, r8
 1007              	.LVL42:
 1008              	.L80:
 1009              	.LBB442:
 1010              	.LBB440:
  95:MachineDaisyFile.cpp **** 	    {
  96:MachineDaisyFile.cpp **** 			if (isButtonPressed(i))
 1011              		.loc 16 96 4 is_stmt 1 view .LVU201
 1012              		.loc 16 96 23 is_stmt 0 view .LVU202
 1013 0014 A4EB0800 		sub	r0, r4, r8
 1014              	.LVL43:
 1015              		.loc 16 96 23 view .LVU203
 1016 0018 FFF7FEFF 		bl	_Z15isButtonPressedi
 1017              	.LVL44:
  97:MachineDaisyFile.cpp **** 	    	{
  98:MachineDaisyFile.cpp **** 	    	    switch (drumMode)
 1018              		.loc 16 98 11 is_stmt 1 view .LVU204
 1019 001c 184B     		ldr	r3, .L86+12
  96:MachineDaisyFile.cpp **** 	    	{
 1020              		.loc 16 96 4 is_stmt 0 view .LVU205
 1021 001e 68B1     		cbz	r0, .L73
 1022              		.loc 16 98 11 view .LVU206
 1023 0020 1B68     		ldr	r3, [r3]
 1024 0022 032B     		cmp	r3, #3
 1025 0024 07D8     		bhi	.L74
 1026 0026 DFE803F0 		tbb	[pc, r3]
 1027              	.L76:
 1028 002a 1F       		.byte	(.L79-.L76)/2
 1029 002b 1A       		.byte	(.L78-.L76)/2
 1030 002c 15       		.byte	(.L77-.L76)/2
 1031 002d 02       		.byte	(.L75-.L76)/2
 1032              		.p2align 1
 1033              	.L75:
  99:MachineDaisyFile.cpp **** 	    	    {
 100:MachineDaisyFile.cpp **** 	    	        case KICK:
 101:MachineDaisyFile.cpp **** 	    	            // Activate the kick drum note in the sequence
ARM GAS  /var/folders/b5/3l92j93d5t1__l78tfntmwyr0000gn/T//ccd9zsAq.s 			page 36


 102:MachineDaisyFile.cpp **** 	    	            kicks[i] = !kicks[i];
 103:MachineDaisyFile.cpp **** 	    	            break;
 104:MachineDaisyFile.cpp **** 	    	        case SNARE:
 105:MachineDaisyFile.cpp **** 	    	            // Activate the snare drum note in the sequence
 106:MachineDaisyFile.cpp **** 	    	            snares[i] = !snares[i];
 107:MachineDaisyFile.cpp **** 	    	            break;
 108:MachineDaisyFile.cpp **** 	    	        case HAT:
 109:MachineDaisyFile.cpp **** 	    	            // Activate the hi-hat note in the sequence
 110:MachineDaisyFile.cpp **** 	    	            hats[i] = !hats[i];
 111:MachineDaisyFile.cpp **** 	    	            break;
 112:MachineDaisyFile.cpp **** 	    	        case SYNTH_KICK:
 1034              		.loc 16 112 15 is_stmt 1 view .LVU207
 113:MachineDaisyFile.cpp **** 	    	            // Activate the synthetic kick drum note in the sequence
 114:MachineDaisyFile.cpp **** 	    	            synths[i] = !synths[i];
 1035              		.loc 16 114 19 view .LVU208
 1036              		.loc 16 114 31 is_stmt 0 view .LVU209
 1037 002e 3B78     		ldrb	r3, [r7]	@ zero_extendqisi2
 1038 0030 83F00103 		eor	r3, r3, #1
 1039              		.loc 16 114 29 view .LVU210
 1040 0034 3B70     		strb	r3, [r7]
 115:MachineDaisyFile.cpp **** 	    	            break;
 1041              		.loc 16 115 19 is_stmt 1 view .LVU211
 1042              	.L74:
 116:MachineDaisyFile.cpp **** 	    	        // Add more cases for other drum modes if needed
 117:MachineDaisyFile.cpp **** 	    	    }
 118:MachineDaisyFile.cpp **** 				patternIn = true;
 1043              		.loc 16 118 5 view .LVU212
 1044              		.loc 16 118 15 is_stmt 0 view .LVU213
 1045 0036 134B     		ldr	r3, .L86+16
 1046 0038 0122     		movs	r2, #1
 1047 003a 1A70     		strb	r2, [r3]
 1048              	.L73:
  94:MachineDaisyFile.cpp **** 	    {
 1049              		.loc 16 94 3 is_stmt 1 view .LVU214
 1050              	.LVL45:
  94:MachineDaisyFile.cpp **** 	    {
 1051              		.loc 16 94 21 view .LVU215
 1052 003c 0134     		adds	r4, r4, #1
 1053              	.LVL46:
  94:MachineDaisyFile.cpp **** 	    {
 1054              		.loc 16 94 21 is_stmt 0 view .LVU216
 1055 003e 0137     		adds	r7, r7, #1
 1056 0040 0136     		adds	r6, r6, #1
 1057 0042 0135     		adds	r5, r5, #1
 1058 0044 4C45     		cmp	r4, r9
 1059 0046 E5D1     		bne	.L80
 1060              	.LBE440:
 119:MachineDaisyFile.cpp **** 	    	}
 120:MachineDaisyFile.cpp **** 	    }
 121:MachineDaisyFile.cpp **** 		lastDebounceTime = System::GetUs();	
 1061              		.loc 16 121 3 is_stmt 1 view .LVU217
 1062              		.loc 16 121 35 is_stmt 0 view .LVU218
 1063 0048 FFF7FEFF 		bl	_ZN5daisy6System5GetUsEv
 1064              	.LVL47:
 1065              		.loc 16 121 20 view .LVU219
 1066 004c 0E4B     		ldr	r3, .L86+20
 1067 004e 1860     		str	r0, [r3]
ARM GAS  /var/folders/b5/3l92j93d5t1__l78tfntmwyr0000gn/T//ccd9zsAq.s 			page 37


 1068              	.LBE442:
 122:MachineDaisyFile.cpp **** 	}
 123:MachineDaisyFile.cpp **** }
 1069              		.loc 16 123 1 view .LVU220
 1070 0050 BDE8F883 		pop	{r3, r4, r5, r6, r7, r8, r9, pc}
 1071              	.LVL48:
 1072              	.L77:
 1073              	.LBB443:
 1074              	.LBB441:
 108:MachineDaisyFile.cpp **** 	    	            // Activate the hi-hat note in the sequence
 1075              		.loc 16 108 15 is_stmt 1 view .LVU221
 110:MachineDaisyFile.cpp **** 	    	            break;
 1076              		.loc 16 110 19 view .LVU222
 110:MachineDaisyFile.cpp **** 	    	            break;
 1077              		.loc 16 110 29 is_stmt 0 view .LVU223
 1078 0054 2378     		ldrb	r3, [r4]	@ zero_extendqisi2
 1079 0056 83F00103 		eor	r3, r3, #1
 110:MachineDaisyFile.cpp **** 	    	            break;
 1080              		.loc 16 110 27 view .LVU224
 1081 005a 2370     		strb	r3, [r4]
 111:MachineDaisyFile.cpp **** 	    	        case SYNTH_KICK:
 1082              		.loc 16 111 19 is_stmt 1 view .LVU225
 1083 005c EBE7     		b	.L74
 1084              	.L78:
 104:MachineDaisyFile.cpp **** 	    	            // Activate the snare drum note in the sequence
 1085              		.loc 16 104 15 view .LVU226
 106:MachineDaisyFile.cpp **** 	    	            break;
 1086              		.loc 16 106 19 view .LVU227
 106:MachineDaisyFile.cpp **** 	    	            break;
 1087              		.loc 16 106 31 is_stmt 0 view .LVU228
 1088 005e 2B78     		ldrb	r3, [r5]	@ zero_extendqisi2
 1089 0060 83F00103 		eor	r3, r3, #1
 106:MachineDaisyFile.cpp **** 	    	            break;
 1090              		.loc 16 106 29 view .LVU229
 1091 0064 2B70     		strb	r3, [r5]
 107:MachineDaisyFile.cpp **** 	    	        case HAT:
 1092              		.loc 16 107 19 is_stmt 1 view .LVU230
 1093 0066 E6E7     		b	.L74
 1094              	.L79:
 100:MachineDaisyFile.cpp **** 	    	            // Activate the kick drum note in the sequence
 1095              		.loc 16 100 15 view .LVU231
 102:MachineDaisyFile.cpp **** 	    	            break;
 1096              		.loc 16 102 19 view .LVU232
 102:MachineDaisyFile.cpp **** 	    	            break;
 1097              		.loc 16 102 30 is_stmt 0 view .LVU233
 1098 0068 3378     		ldrb	r3, [r6]	@ zero_extendqisi2
 1099 006a 83F00103 		eor	r3, r3, #1
 102:MachineDaisyFile.cpp **** 	    	            break;
 1100              		.loc 16 102 28 view .LVU234
 1101 006e 3370     		strb	r3, [r6]
 103:MachineDaisyFile.cpp **** 	    	        case SNARE:
 1102              		.loc 16 103 19 is_stmt 1 view .LVU235
 1103 0070 E1E7     		b	.L74
 1104              	.L87:
 1105 0072 00BF     		.align	2
 1106              	.L86:
 1107 0074 00000000 		.word	.LANCHOR0
ARM GAS  /var/folders/b5/3l92j93d5t1__l78tfntmwyr0000gn/T//ccd9zsAq.s 			page 38


 1108 0078 00000000 		.word	.LANCHOR2
 1109 007c 00000000 		.word	.LANCHOR3
 1110 0080 00000000 		.word	.LANCHOR7
 1111 0084 00000000 		.word	.LANCHOR4
 1112 0088 00000000 		.word	.LANCHOR8
 1113 008c 00000000 		.word	.LANCHOR1
 1114              	.LBE441:
 1115              	.LBE443:
 1116              		.cfi_endproc
 1117              	.LFE5446:
 1119              		.section	.text._Z14processButtonsv,"ax",%progbits
 1120              		.align	1
 1121              		.p2align 2,,3
 1122              		.global	_Z14processButtonsv
 1123              		.syntax unified
 1124              		.thumb
 1125              		.thumb_func
 1127              	_Z14processButtonsv:
 1128              	.LFB4855:
  91:MachineDaisyFile.cpp **** 	if (System::GetUs() - lastDebounceTime > debounceDelay)
 1129              		.loc 16 91 1 view -0
 1130              		.cfi_startproc
 1131              		@ args = 0, pretend = 0, frame = 0
 1132              		@ frame_needed = 0, uses_anonymous_args = 0
  92:MachineDaisyFile.cpp **** 	{
 1133              		.loc 16 92 2 view .LVU237
  91:MachineDaisyFile.cpp **** 	if (System::GetUs() - lastDebounceTime > debounceDelay)
 1134              		.loc 16 91 1 is_stmt 0 view .LVU238
 1135 0000 08B5     		push	{r3, lr}
 1136              		.cfi_def_cfa_offset 8
 1137              		.cfi_offset 3, -8
 1138              		.cfi_offset 14, -4
 1139              	.LBB446:
  92:MachineDaisyFile.cpp **** 	{
 1140              		.loc 16 92 19 view .LVU239
 1141 0002 FFF7FEFF 		bl	_ZN5daisy6System5GetUsEv
 1142              	.LVL49:
  92:MachineDaisyFile.cpp **** 	{
 1143              		.loc 16 92 22 view .LVU240
 1144 0006 064A     		ldr	r2, .L91
  92:MachineDaisyFile.cpp **** 	{
 1145              		.loc 16 92 41 view .LVU241
 1146 0008 064B     		ldr	r3, .L91+4
  92:MachineDaisyFile.cpp **** 	{
 1147              		.loc 16 92 22 view .LVU242
 1148 000a 1268     		ldr	r2, [r2]
  92:MachineDaisyFile.cpp **** 	{
 1149              		.loc 16 92 2 view .LVU243
 1150 000c 1B68     		ldr	r3, [r3]
  92:MachineDaisyFile.cpp **** 	{
 1151              		.loc 16 92 22 view .LVU244
 1152 000e 801A     		subs	r0, r0, r2
  92:MachineDaisyFile.cpp **** 	{
 1153              		.loc 16 92 2 view .LVU245
 1154 0010 9842     		cmp	r0, r3
 1155 0012 03D9     		bls	.L88
 1156              	.LBE446:
ARM GAS  /var/folders/b5/3l92j93d5t1__l78tfntmwyr0000gn/T//ccd9zsAq.s 			page 39


 1157              		.loc 16 123 1 discriminator 1 view .LVU246
 1158 0014 BDE80840 		pop	{r3, lr}
 1159              		.cfi_remember_state
 1160              		.cfi_restore 14
 1161              		.cfi_restore 3
 1162              		.cfi_def_cfa_offset 0
 1163 0018 FFF7FEBF 		b	_Z14processButtonsv.part.0
 1164              	.LVL50:
 1165              	.L88:
 1166              		.cfi_restore_state
 1167              		.loc 16 123 1 view .LVU247
 1168 001c 08BD     		pop	{r3, pc}
 1169              	.L92:
 1170 001e 00BF     		.align	2
 1171              	.L91:
 1172 0020 00000000 		.word	.LANCHOR8
 1173 0024 00000000 		.word	.LANCHOR9
 1174              		.cfi_endproc
 1175              	.LFE4855:
 1177              		.section	.text._Z13setDrumParamsv,"ax",%progbits
 1178              		.align	1
 1179              		.p2align 2,,3
 1180              		.global	_Z13setDrumParamsv
 1181              		.syntax unified
 1182              		.thumb
 1183              		.thumb_func
 1185              	_Z13setDrumParamsv:
 1186              	.LFB4856:
 124:MachineDaisyFile.cpp **** //====================================================================================
 125:MachineDaisyFile.cpp **** // sets drum parameters
 126:MachineDaisyFile.cpp **** void setDrumParams()
 127:MachineDaisyFile.cpp **** {
 1187              		.loc 16 127 1 is_stmt 1 view -0
 1188              		.cfi_startproc
 1189              		@ args = 0, pretend = 0, frame = 0
 1190              		@ frame_needed = 0, uses_anonymous_args = 0
 128:MachineDaisyFile.cpp **** 	kick.SetFreq(100.f);
 1191              		.loc 16 128 2 view .LVU249
 127:MachineDaisyFile.cpp **** 	kick.SetFreq(100.f);
 1192              		.loc 16 127 1 is_stmt 0 view .LVU250
 1193 0000 08B5     		push	{r3, lr}
 1194              		.cfi_def_cfa_offset 8
 1195              		.cfi_offset 3, -8
 1196              		.cfi_offset 14, -4
 1197              		.loc 16 128 14 view .LVU251
 1198 0002 9FED230A 		vldr.32	s0, .L95+16
 1199 0006 2348     		ldr	r0, .L95+20
 1200 0008 FFF7FEFF 		bl	_ZN7daisysp14AnalogBassDrum7SetFreqEf
 1201              	.LVL51:
 129:MachineDaisyFile.cpp **** 
 130:MachineDaisyFile.cpp **** 
 131:MachineDaisyFile.cpp **** 	hat.SetAccent(.5f);
 1202              		.loc 16 131 2 is_stmt 1 view .LVU252
 1203              	.LBB447:
 1204              	.LBI447:
 114:../../DaisyExamples/DaisySP//Source/Drums/hihat.h **** 
 115:../../DaisyExamples/DaisySP//Source/Drums/hihat.h ****     /** Initialize the module
ARM GAS  /var/folders/b5/3l92j93d5t1__l78tfntmwyr0000gn/T//ccd9zsAq.s 			page 40


 116:../../DaisyExamples/DaisySP//Source/Drums/hihat.h ****         \param sample_rate Audio engine sample rate
 117:../../DaisyExamples/DaisySP//Source/Drums/hihat.h ****     */
 118:../../DaisyExamples/DaisySP//Source/Drums/hihat.h ****     void Init(float sample_rate)
 119:../../DaisyExamples/DaisySP//Source/Drums/hihat.h ****     {
 120:../../DaisyExamples/DaisySP//Source/Drums/hihat.h ****         sample_rate_ = sample_rate;
 121:../../DaisyExamples/DaisySP//Source/Drums/hihat.h **** 
 122:../../DaisyExamples/DaisySP//Source/Drums/hihat.h ****         trig_ = false;
 123:../../DaisyExamples/DaisySP//Source/Drums/hihat.h **** 
 124:../../DaisyExamples/DaisySP//Source/Drums/hihat.h ****         envelope_     = 0.0f;
 125:../../DaisyExamples/DaisySP//Source/Drums/hihat.h ****         noise_clock_  = 0.0f;
 126:../../DaisyExamples/DaisySP//Source/Drums/hihat.h ****         noise_sample_ = 0.0f;
 127:../../DaisyExamples/DaisySP//Source/Drums/hihat.h ****         sustain_gain_ = 0.0f;
 128:../../DaisyExamples/DaisySP//Source/Drums/hihat.h **** 
 129:../../DaisyExamples/DaisySP//Source/Drums/hihat.h ****         SetFreq(3000.f);
 130:../../DaisyExamples/DaisySP//Source/Drums/hihat.h ****         SetTone(.5f);
 131:../../DaisyExamples/DaisySP//Source/Drums/hihat.h ****         SetDecay(.2f);
 132:../../DaisyExamples/DaisySP//Source/Drums/hihat.h ****         SetNoisiness(.8f);
 133:../../DaisyExamples/DaisySP//Source/Drums/hihat.h ****         SetAccent(.8f);
 134:../../DaisyExamples/DaisySP//Source/Drums/hihat.h ****         SetSustain(false);
 135:../../DaisyExamples/DaisySP//Source/Drums/hihat.h **** 
 136:../../DaisyExamples/DaisySP//Source/Drums/hihat.h ****         metallic_noise_.Init(sample_rate_);
 137:../../DaisyExamples/DaisySP//Source/Drums/hihat.h ****         noise_coloration_svf_.Init(sample_rate_);
 138:../../DaisyExamples/DaisySP//Source/Drums/hihat.h ****         hpf_.Init(sample_rate_);
 139:../../DaisyExamples/DaisySP//Source/Drums/hihat.h ****     }
 140:../../DaisyExamples/DaisySP//Source/Drums/hihat.h **** 
 141:../../DaisyExamples/DaisySP//Source/Drums/hihat.h ****     /** Get the next sample
 142:../../DaisyExamples/DaisySP//Source/Drums/hihat.h ****         \param trigger Hit the hihat with true. Defaults to false.
 143:../../DaisyExamples/DaisySP//Source/Drums/hihat.h ****     */
 144:../../DaisyExamples/DaisySP//Source/Drums/hihat.h ****     float Process(bool trigger = false)
 145:../../DaisyExamples/DaisySP//Source/Drums/hihat.h ****     {
 146:../../DaisyExamples/DaisySP//Source/Drums/hihat.h ****         const float envelope_decay
 147:../../DaisyExamples/DaisySP//Source/Drums/hihat.h ****             = 1.0f - 0.003f * SemitonesToRatio(-decay_ * 84.0f);
 148:../../DaisyExamples/DaisySP//Source/Drums/hihat.h ****         const float cut_decay
 149:../../DaisyExamples/DaisySP//Source/Drums/hihat.h ****             = 1.0f - 0.0025f * SemitonesToRatio(-decay_ * 36.0f);
 150:../../DaisyExamples/DaisySP//Source/Drums/hihat.h **** 
 151:../../DaisyExamples/DaisySP//Source/Drums/hihat.h ****         if(trigger || trig_)
 152:../../DaisyExamples/DaisySP//Source/Drums/hihat.h ****         {
 153:../../DaisyExamples/DaisySP//Source/Drums/hihat.h ****             trig_ = false;
 154:../../DaisyExamples/DaisySP//Source/Drums/hihat.h **** 
 155:../../DaisyExamples/DaisySP//Source/Drums/hihat.h ****             envelope_
 156:../../DaisyExamples/DaisySP//Source/Drums/hihat.h ****                 = (1.5f + 0.5f * (1.0f - decay_)) * (0.3f + 0.7f * accent_);
 157:../../DaisyExamples/DaisySP//Source/Drums/hihat.h ****         }
 158:../../DaisyExamples/DaisySP//Source/Drums/hihat.h **** 
 159:../../DaisyExamples/DaisySP//Source/Drums/hihat.h ****         // Process the metallic noise.
 160:../../DaisyExamples/DaisySP//Source/Drums/hihat.h ****         float out = metallic_noise_.Process(2.0f * f0_);
 161:../../DaisyExamples/DaisySP//Source/Drums/hihat.h **** 
 162:../../DaisyExamples/DaisySP//Source/Drums/hihat.h ****         // Apply BPF on the metallic noise.
 163:../../DaisyExamples/DaisySP//Source/Drums/hihat.h ****         float cutoff = 150.0f / sample_rate_ * SemitonesToRatio(tone_ * 72.0f);
 164:../../DaisyExamples/DaisySP//Source/Drums/hihat.h **** 
 165:../../DaisyExamples/DaisySP//Source/Drums/hihat.h ****         cutoff = fclamp(cutoff, 0.0f, 16000.0f / sample_rate_);
 166:../../DaisyExamples/DaisySP//Source/Drums/hihat.h **** 
 167:../../DaisyExamples/DaisySP//Source/Drums/hihat.h **** 
 168:../../DaisyExamples/DaisySP//Source/Drums/hihat.h ****         noise_coloration_svf_.SetFreq(cutoff * sample_rate_);
 169:../../DaisyExamples/DaisySP//Source/Drums/hihat.h ****         noise_coloration_svf_.SetRes(resonance ? 3.0f + 6.0f * tone_ : 1.0f);
 170:../../DaisyExamples/DaisySP//Source/Drums/hihat.h **** 
 171:../../DaisyExamples/DaisySP//Source/Drums/hihat.h ****         noise_coloration_svf_.Process(out);
 172:../../DaisyExamples/DaisySP//Source/Drums/hihat.h ****         out = noise_coloration_svf_.Band();
ARM GAS  /var/folders/b5/3l92j93d5t1__l78tfntmwyr0000gn/T//ccd9zsAq.s 			page 41


 173:../../DaisyExamples/DaisySP//Source/Drums/hihat.h **** 
 174:../../DaisyExamples/DaisySP//Source/Drums/hihat.h ****         // This is not at all part of the 808 circuit! But to add more variety, we
 175:../../DaisyExamples/DaisySP//Source/Drums/hihat.h ****         // add a variable amount of clocked noise to the output of the 6 schmitt
 176:../../DaisyExamples/DaisySP//Source/Drums/hihat.h ****         // trigger oscillators.
 177:../../DaisyExamples/DaisySP//Source/Drums/hihat.h ****         float noise_f = f0_ * (16.0f + 16.0f * (1.0f - noisiness_));
 178:../../DaisyExamples/DaisySP//Source/Drums/hihat.h ****         noise_f       = fclamp(noise_f, 0.0f, 0.5f);
 179:../../DaisyExamples/DaisySP//Source/Drums/hihat.h **** 
 180:../../DaisyExamples/DaisySP//Source/Drums/hihat.h ****         noise_clock_ += noise_f;
 181:../../DaisyExamples/DaisySP//Source/Drums/hihat.h ****         if(noise_clock_ >= 1.0f)
 182:../../DaisyExamples/DaisySP//Source/Drums/hihat.h ****         {
 183:../../DaisyExamples/DaisySP//Source/Drums/hihat.h ****             noise_clock_ -= 1.0f;
 184:../../DaisyExamples/DaisySP//Source/Drums/hihat.h ****             noise_sample_ = rand() * kRandFrac - 0.5f;
 185:../../DaisyExamples/DaisySP//Source/Drums/hihat.h ****         }
 186:../../DaisyExamples/DaisySP//Source/Drums/hihat.h ****         out += noisiness_ * (noise_sample_ - out);
 187:../../DaisyExamples/DaisySP//Source/Drums/hihat.h **** 
 188:../../DaisyExamples/DaisySP//Source/Drums/hihat.h ****         // Apply VCA.
 189:../../DaisyExamples/DaisySP//Source/Drums/hihat.h ****         sustain_gain_ = accent_ * decay_;
 190:../../DaisyExamples/DaisySP//Source/Drums/hihat.h ****         VCA vca;
 191:../../DaisyExamples/DaisySP//Source/Drums/hihat.h ****         envelope_ *= envelope_ > 0.5f ? envelope_decay : cut_decay;
 192:../../DaisyExamples/DaisySP//Source/Drums/hihat.h ****         out = vca(out, sustain_ ? sustain_gain_ : envelope_);
 193:../../DaisyExamples/DaisySP//Source/Drums/hihat.h **** 
 194:../../DaisyExamples/DaisySP//Source/Drums/hihat.h ****         hpf_.SetFreq(cutoff * sample_rate_);
 195:../../DaisyExamples/DaisySP//Source/Drums/hihat.h ****         hpf_.SetRes(.5f);
 196:../../DaisyExamples/DaisySP//Source/Drums/hihat.h ****         hpf_.Process(out);
 197:../../DaisyExamples/DaisySP//Source/Drums/hihat.h ****         out = hpf_.High();
 198:../../DaisyExamples/DaisySP//Source/Drums/hihat.h **** 
 199:../../DaisyExamples/DaisySP//Source/Drums/hihat.h ****         return out;
 200:../../DaisyExamples/DaisySP//Source/Drums/hihat.h ****     }
 201:../../DaisyExamples/DaisySP//Source/Drums/hihat.h **** 
 202:../../DaisyExamples/DaisySP//Source/Drums/hihat.h ****     /** Trigger the hihat */
 203:../../DaisyExamples/DaisySP//Source/Drums/hihat.h ****     void Trig() { trig_ = true; }
 204:../../DaisyExamples/DaisySP//Source/Drums/hihat.h **** 
 205:../../DaisyExamples/DaisySP//Source/Drums/hihat.h ****     /** Make the hihat ring out infinitely.
 206:../../DaisyExamples/DaisySP//Source/Drums/hihat.h ****         \param sustain True = infinite sustain.
 207:../../DaisyExamples/DaisySP//Source/Drums/hihat.h ****     */
 208:../../DaisyExamples/DaisySP//Source/Drums/hihat.h ****     void SetSustain(bool sustain) { sustain_ = sustain; }
 209:../../DaisyExamples/DaisySP//Source/Drums/hihat.h **** 
 210:../../DaisyExamples/DaisySP//Source/Drums/hihat.h ****     /** Set how much accent to use
 211:../../DaisyExamples/DaisySP//Source/Drums/hihat.h ****         \param accent Works 0-1.
 212:../../DaisyExamples/DaisySP//Source/Drums/hihat.h ****     */
 213:../../DaisyExamples/DaisySP//Source/Drums/hihat.h ****     void SetAccent(float accent) { accent_ = fclamp(accent, 0.f, 1.f); }
 1205              		.loc 13 213 10 view .LVU253
 1206              	.LBB448:
 1207              	.LBB449:
 1208              	.LBI449:
 1209              		.file 17 "../../DaisyExamples/DaisySP//Source/Utility/dsp.h"
   1:../../DaisyExamples/DaisySP//Source/Utility/dsp.h **** /** Helpful defines, functions, and other utilities for use in/with daisysp modules.
   2:../../DaisyExamples/DaisySP//Source/Utility/dsp.h **** */
   3:../../DaisyExamples/DaisySP//Source/Utility/dsp.h **** #pragma once
   4:../../DaisyExamples/DaisySP//Source/Utility/dsp.h **** #ifndef DSY_CORE_DSP
   5:../../DaisyExamples/DaisySP//Source/Utility/dsp.h **** #define DSY_CORE_DSP
   6:../../DaisyExamples/DaisySP//Source/Utility/dsp.h **** #include <cassert>
   7:../../DaisyExamples/DaisySP//Source/Utility/dsp.h **** #include <cstdint>
   8:../../DaisyExamples/DaisySP//Source/Utility/dsp.h **** #include <random>
   9:../../DaisyExamples/DaisySP//Source/Utility/dsp.h **** #include <cmath>
  10:../../DaisyExamples/DaisySP//Source/Utility/dsp.h **** 
  11:../../DaisyExamples/DaisySP//Source/Utility/dsp.h **** /** PIs
ARM GAS  /var/folders/b5/3l92j93d5t1__l78tfntmwyr0000gn/T//ccd9zsAq.s 			page 42


  12:../../DaisyExamples/DaisySP//Source/Utility/dsp.h **** */
  13:../../DaisyExamples/DaisySP//Source/Utility/dsp.h **** #define PI_F 3.1415927410125732421875f
  14:../../DaisyExamples/DaisySP//Source/Utility/dsp.h **** #define TWOPI_F (2.0f * PI_F)
  15:../../DaisyExamples/DaisySP//Source/Utility/dsp.h **** #define HALFPI_F (PI_F * 0.5f)
  16:../../DaisyExamples/DaisySP//Source/Utility/dsp.h **** #define DSY_MIN(in, mn) (in < mn ? in : mn)
  17:../../DaisyExamples/DaisySP//Source/Utility/dsp.h **** #define DSY_MAX(in, mx) (in > mx ? in : mx)
  18:../../DaisyExamples/DaisySP//Source/Utility/dsp.h **** #define DSY_CLAMP(in, mn, mx) (DSY_MIN(DSY_MAX(in, mn), mx))
  19:../../DaisyExamples/DaisySP//Source/Utility/dsp.h **** #define DSY_COUNTOF(_arr) (sizeof(_arr) / sizeof(_arr[0]))
  20:../../DaisyExamples/DaisySP//Source/Utility/dsp.h **** 
  21:../../DaisyExamples/DaisySP//Source/Utility/dsp.h **** namespace daisysp
  22:../../DaisyExamples/DaisySP//Source/Utility/dsp.h **** {
  23:../../DaisyExamples/DaisySP//Source/Utility/dsp.h **** //Avoids division for random floats. e.g. rand() * kRandFrac
  24:../../DaisyExamples/DaisySP//Source/Utility/dsp.h **** static constexpr float kRandFrac = 1.f / (float)RAND_MAX;
  25:../../DaisyExamples/DaisySP//Source/Utility/dsp.h **** 
  26:../../DaisyExamples/DaisySP//Source/Utility/dsp.h **** //Convert from semitones to other units. e.g. 2 ^ (kOneTwelfth * x)
  27:../../DaisyExamples/DaisySP//Source/Utility/dsp.h **** static constexpr float kOneTwelfth = 1.f / 12.f;
  28:../../DaisyExamples/DaisySP//Source/Utility/dsp.h **** 
  29:../../DaisyExamples/DaisySP//Source/Utility/dsp.h **** /** efficient floating point min/max
  30:../../DaisyExamples/DaisySP//Source/Utility/dsp.h **** c/o stephen mccaul
  31:../../DaisyExamples/DaisySP//Source/Utility/dsp.h **** */
  32:../../DaisyExamples/DaisySP//Source/Utility/dsp.h **** inline float fmax(float a, float b)
  33:../../DaisyExamples/DaisySP//Source/Utility/dsp.h **** {
  34:../../DaisyExamples/DaisySP//Source/Utility/dsp.h ****     float r;
  35:../../DaisyExamples/DaisySP//Source/Utility/dsp.h **** #ifdef __arm__
  36:../../DaisyExamples/DaisySP//Source/Utility/dsp.h ****     asm("vmaxnm.f32 %[d], %[n], %[m]" : [d] "=t"(r) : [n] "t"(a), [m] "t"(b) :);
  37:../../DaisyExamples/DaisySP//Source/Utility/dsp.h **** #else
  38:../../DaisyExamples/DaisySP//Source/Utility/dsp.h ****     r = (a > b) ? a : b;
  39:../../DaisyExamples/DaisySP//Source/Utility/dsp.h **** #endif // __arm__
  40:../../DaisyExamples/DaisySP//Source/Utility/dsp.h ****     return r;
  41:../../DaisyExamples/DaisySP//Source/Utility/dsp.h **** }
  42:../../DaisyExamples/DaisySP//Source/Utility/dsp.h **** 
  43:../../DaisyExamples/DaisySP//Source/Utility/dsp.h **** inline float fmin(float a, float b)
  44:../../DaisyExamples/DaisySP//Source/Utility/dsp.h **** {
  45:../../DaisyExamples/DaisySP//Source/Utility/dsp.h ****     float r;
  46:../../DaisyExamples/DaisySP//Source/Utility/dsp.h **** #ifdef __arm__
  47:../../DaisyExamples/DaisySP//Source/Utility/dsp.h ****     asm("vminnm.f32 %[d], %[n], %[m]" : [d] "=t"(r) : [n] "t"(a), [m] "t"(b) :);
  48:../../DaisyExamples/DaisySP//Source/Utility/dsp.h **** #else
  49:../../DaisyExamples/DaisySP//Source/Utility/dsp.h ****     r = (a < b) ? a : b;
  50:../../DaisyExamples/DaisySP//Source/Utility/dsp.h **** #endif // __arm__
  51:../../DaisyExamples/DaisySP//Source/Utility/dsp.h ****     return r;
  52:../../DaisyExamples/DaisySP//Source/Utility/dsp.h **** }
  53:../../DaisyExamples/DaisySP//Source/Utility/dsp.h **** 
  54:../../DaisyExamples/DaisySP//Source/Utility/dsp.h **** /** quick fp clamp
  55:../../DaisyExamples/DaisySP//Source/Utility/dsp.h **** */
  56:../../DaisyExamples/DaisySP//Source/Utility/dsp.h **** inline float fclamp(float in, float min, float max)
 1210              		.loc 17 56 14 view .LVU254
 1211              	.LBE449:
 1212              	.LBE448:
 1213              	.LBE447:
  57:../../DaisyExamples/DaisySP//Source/Utility/dsp.h **** {
  58:../../DaisyExamples/DaisySP//Source/Utility/dsp.h ****     return fmin(fmax(in, min), max);
 1214              		.loc 17 58 5 view .LVU255
 1215              	.LBB471:
 1216              	.LBB466:
 1217              	.LBB462:
 1218              	.LBB450:
 1219              	.LBI450:
ARM GAS  /var/folders/b5/3l92j93d5t1__l78tfntmwyr0000gn/T//ccd9zsAq.s 			page 43


  32:../../DaisyExamples/DaisySP//Source/Utility/dsp.h **** {
 1220              		.loc 17 32 14 view .LVU256
 1221              	.LBB451:
  34:../../DaisyExamples/DaisySP//Source/Utility/dsp.h **** #ifdef __arm__
 1222              		.loc 17 34 5 view .LVU257
  36:../../DaisyExamples/DaisySP//Source/Utility/dsp.h **** #else
 1223              		.loc 17 36 5 view .LVU258
 1224 000c DFED226A 		vldr.32	s13, .L95+24
 1225              	.LBE451:
 1226              	.LBE450:
 1227              	.LBE462:
 1228              	.LBE466:
 1229              	.LBE471:
 1230              	.LBB472:
 1231              	.LBB473:
 1232              	.LBB474:
 1233              	.LBB475:
 1234 0010 9FED227A 		vldr.32	s14, .L95+28
 1235              	.LBE475:
 1236              	.LBE474:
 1237              	.LBE473:
 1238              	.LBE472:
 1239              	.LBB484:
 1240              	.LBB467:
 1241              	.LBB463:
 1242              	.LBB454:
 1243              	.LBB452:
 1244 0014 B6EE000A 		vmov.f32	s0, #5.0e-1
 1245              	.LBE452:
 1246              	.LBE454:
 1247              	.LBE463:
 1248              	.LBE467:
 1249              	.LBE484:
 1250              	.LBB485:
 1251              	.LBB480:
 1252              	.LBB478:
 1253              	.LBB476:
 1254              		.syntax unified
 1255              	@ 36 "../../DaisyExamples/DaisySP//Source/Utility/dsp.h" 1
 1256 0018 87FE267A 		vmaxnm.f32 s14, s14, s13
 1257              	@ 0 "" 2
 1258              		.thumb
 1259              		.syntax unified
 1260              	.LBE476:
 1261              	.LBE478:
 214:../../DaisyExamples/DaisySP//Source/Drums/hihat.h **** 
 215:../../DaisyExamples/DaisySP//Source/Drums/hihat.h ****     /** Set the hihat tone's root frequency
 216:../../DaisyExamples/DaisySP//Source/Drums/hihat.h ****         \param f0 Freq in Hz
 217:../../DaisyExamples/DaisySP//Source/Drums/hihat.h ****     */
 218:../../DaisyExamples/DaisySP//Source/Drums/hihat.h ****     void SetFreq(float f0)
 219:../../DaisyExamples/DaisySP//Source/Drums/hihat.h ****     {
 220:../../DaisyExamples/DaisySP//Source/Drums/hihat.h ****         f0 /= sample_rate_;
 221:../../DaisyExamples/DaisySP//Source/Drums/hihat.h ****         f0_ = fclamp(f0, 0.f, 1.f);
 222:../../DaisyExamples/DaisySP//Source/Drums/hihat.h ****     }
 223:../../DaisyExamples/DaisySP//Source/Drums/hihat.h **** 
 224:../../DaisyExamples/DaisySP//Source/Drums/hihat.h ****     /** Set the overall brightness / darkness of the hihat.
 225:../../DaisyExamples/DaisySP//Source/Drums/hihat.h ****         \param tone Works from 0-1.
ARM GAS  /var/folders/b5/3l92j93d5t1__l78tfntmwyr0000gn/T//ccd9zsAq.s 			page 44


 226:../../DaisyExamples/DaisySP//Source/Drums/hihat.h ****     */
 227:../../DaisyExamples/DaisySP//Source/Drums/hihat.h ****     void SetTone(float tone) { tone_ = fclamp(tone, 0.f, 1.f); }
 228:../../DaisyExamples/DaisySP//Source/Drums/hihat.h **** 
 229:../../DaisyExamples/DaisySP//Source/Drums/hihat.h ****     /** Set the length of the hihat decay
 230:../../DaisyExamples/DaisySP//Source/Drums/hihat.h ****         \param decay Works > 0. Tuned for 0-1.
 231:../../DaisyExamples/DaisySP//Source/Drums/hihat.h ****     */
 232:../../DaisyExamples/DaisySP//Source/Drums/hihat.h ****     void SetDecay(float decay)
 233:../../DaisyExamples/DaisySP//Source/Drums/hihat.h ****     {
 234:../../DaisyExamples/DaisySP//Source/Drums/hihat.h ****         decay_ = fmax(decay, 0.f);
 235:../../DaisyExamples/DaisySP//Source/Drums/hihat.h ****         decay_ *= 1.7;
 1262              		.loc 13 235 16 is_stmt 0 view .LVU259
 1263 001c 9FED184B 		vldr.64	d4, .L95
 1264 0020 B7EEC77A 		vcvt.f64.f32	d7, s14
 1265              	.LBE480:
 1266              	.LBE485:
 1267              	.LBB486:
 1268              	.LBB468:
 213:../../DaisyExamples/DaisySP//Source/Drums/hihat.h **** 
 1269              		.loc 13 213 44 view .LVU260
 1270 0024 1E4B     		ldr	r3, .L95+32
 1271              	.LBE468:
 1272              	.LBE486:
 132:MachineDaisyFile.cpp **** 	hat.SetDecay(.4f);
 133:MachineDaisyFile.cpp **** 	hat.SetTone(.5f);
 134:MachineDaisyFile.cpp **** 
 135:MachineDaisyFile.cpp **** 	synthKick.SetAccent(.5f);
 1273              		.loc 16 135 21 view .LVU261
 1274 0026 1F48     		ldr	r0, .L95+36
 1275              	.LBB487:
 1276              	.LBB469:
 1277              	.LBB464:
 1278              	.LBB455:
 1279              	.LBB456:
  47:../../DaisyExamples/DaisySP//Source/Utility/dsp.h **** #else
 1280              		.loc 17 47 5 view .LVU262
 1281 0028 B7EE006A 		vmov.f32	s12, #1.0e+0
 1282              	.LBE456:
 1283              	.LBE455:
 1284              	.LBB459:
 1285              	.LBB453:
  36:../../DaisyExamples/DaisySP//Source/Utility/dsp.h **** #else
 1286              		.loc 17 36 5 view .LVU263
 1287              		.syntax unified
 1288              	@ 36 "../../DaisyExamples/DaisySP//Source/Utility/dsp.h" 1
 1289 002c C0FE266A 		vmaxnm.f32 s13, s0, s13
 1290              	@ 0 "" 2
 1291              	.LVL52:
  40:../../DaisyExamples/DaisySP//Source/Utility/dsp.h **** }
 1292              		.loc 17 40 5 is_stmt 1 view .LVU264
  40:../../DaisyExamples/DaisySP//Source/Utility/dsp.h **** }
 1293              		.loc 17 40 5 is_stmt 0 view .LVU265
 1294              		.thumb
 1295              		.syntax unified
 1296              	.LBE453:
 1297              	.LBE459:
 1298              	.LBB460:
 1299              	.LBI455:
ARM GAS  /var/folders/b5/3l92j93d5t1__l78tfntmwyr0000gn/T//ccd9zsAq.s 			page 45


  43:../../DaisyExamples/DaisySP//Source/Utility/dsp.h **** {
 1300              		.loc 17 43 14 is_stmt 1 view .LVU266
 1301              	.LBB457:
  45:../../DaisyExamples/DaisySP//Source/Utility/dsp.h **** #ifdef __arm__
 1302              		.loc 17 45 5 view .LVU267
  47:../../DaisyExamples/DaisySP//Source/Utility/dsp.h **** #else
 1303              		.loc 17 47 5 view .LVU268
 1304              	.LBE457:
 1305              	.LBE460:
 1306              	.LBE464:
 1307              	.LBE469:
 1308              	.LBE487:
 1309              	.LBB488:
 1310              	.LBB481:
 1311              		.loc 13 235 16 is_stmt 0 view .LVU269
 1312 0030 27EE047B 		vmul.f64	d7, d7, d4
 1313              	.LBE481:
 1314              	.LBE488:
 1315              	.LBB489:
 1316              	.LBB470:
 1317              	.LBB465:
 1318              	.LBB461:
 1319              	.LBB458:
  47:../../DaisyExamples/DaisySP//Source/Utility/dsp.h **** #else
 1320              		.loc 17 47 5 view .LVU270
 1321              		.syntax unified
 1322              	@ 47 "../../DaisyExamples/DaisySP//Source/Utility/dsp.h" 1
 1323 0034 C6FEC66A 		vminnm.f32 s13, s13, s12
 1324              	@ 0 "" 2
 1325              	.LVL53:
  51:../../DaisyExamples/DaisySP//Source/Utility/dsp.h **** }
 1326              		.loc 17 51 5 is_stmt 1 view .LVU271
  51:../../DaisyExamples/DaisySP//Source/Utility/dsp.h **** }
 1327              		.loc 17 51 5 is_stmt 0 view .LVU272
 1328              		.thumb
 1329              		.syntax unified
 1330              	.LBE458:
 1331              	.LBE461:
 1332              	.LBE465:
 213:../../DaisyExamples/DaisySP//Source/Drums/hihat.h **** 
 1333              		.loc 13 213 44 view .LVU273
 1334 0038 C3ED016A 		vstr.32	s13, [r3, #4]
 1335              	.LVL54:
 213:../../DaisyExamples/DaisySP//Source/Drums/hihat.h **** 
 1336              		.loc 13 213 44 view .LVU274
 1337              	.LBE470:
 1338              	.LBE489:
 132:MachineDaisyFile.cpp **** 	hat.SetTone(.5f);
 1339              		.loc 16 132 2 is_stmt 1 view .LVU275
 1340              	.LBB490:
 1341              	.LBI472:
 232:../../DaisyExamples/DaisySP//Source/Drums/hihat.h ****     {
 1342              		.loc 13 232 10 view .LVU276
 1343              	.LBB482:
 1344              	.LBB479:
 1345              	.LBI474:
  32:../../DaisyExamples/DaisySP//Source/Utility/dsp.h **** {
ARM GAS  /var/folders/b5/3l92j93d5t1__l78tfntmwyr0000gn/T//ccd9zsAq.s 			page 46


 1346              		.loc 17 32 14 view .LVU277
 1347              	.LBB477:
  34:../../DaisyExamples/DaisySP//Source/Utility/dsp.h **** #ifdef __arm__
 1348              		.loc 17 34 5 view .LVU278
  36:../../DaisyExamples/DaisySP//Source/Utility/dsp.h **** #else
 1349              		.loc 17 36 5 view .LVU279
  40:../../DaisyExamples/DaisySP//Source/Utility/dsp.h **** }
 1350              		.loc 17 40 5 view .LVU280
  40:../../DaisyExamples/DaisySP//Source/Utility/dsp.h **** }
 1351              		.loc 17 40 5 is_stmt 0 view .LVU281
 1352              	.LBE477:
 1353              	.LBE479:
 1354              	.LBE482:
 1355              	.LBE490:
 1356              	.LBB491:
 1357              	.LBB492:
 227:../../DaisyExamples/DaisySP//Source/Drums/hihat.h **** 
 1358              		.loc 13 227 38 view .LVU282
 1359 003c C3ED036A 		vstr.32	s13, [r3, #12]
 1360              	.LBE492:
 1361              	.LBE491:
 1362              	.LBB501:
 1363              	.LBB483:
 236:../../DaisyExamples/DaisySP//Source/Drums/hihat.h ****         decay_ -= 1.2;
 1364              		.loc 13 236 16 view .LVU283
 1365 0040 9FED115B 		vldr.64	d5, .L95+8
 235:../../DaisyExamples/DaisySP//Source/Drums/hihat.h ****         decay_ -= 1.2;
 1366              		.loc 13 235 16 view .LVU284
 1367 0044 B7EEC77B 		vcvt.f32.f64	s14, d7
 1368              		.loc 13 236 16 view .LVU285
 1369 0048 B7EEC77A 		vcvt.f64.f32	d7, s14
 1370 004c 37EE457B 		vsub.f64	d7, d7, d5
 1371 0050 B7EEC77B 		vcvt.f32.f64	s14, d7
 1372 0054 83ED047A 		vstr.32	s14, [r3, #16]
 1373              	.LVL55:
 1374              		.loc 13 236 16 view .LVU286
 1375              	.LBE483:
 1376              	.LBE501:
 133:MachineDaisyFile.cpp **** 
 1377              		.loc 16 133 2 is_stmt 1 view .LVU287
 1378              	.LBB502:
 1379              	.LBI491:
 227:../../DaisyExamples/DaisySP//Source/Drums/hihat.h **** 
 1380              		.loc 13 227 10 view .LVU288
 1381              	.LBB499:
 1382              	.LBB493:
 1383              	.LBI493:
  56:../../DaisyExamples/DaisySP//Source/Utility/dsp.h **** {
 1384              		.loc 17 56 14 view .LVU289
 1385              	.LBE493:
 1386              	.LBE499:
 1387              	.LBE502:
 1388              		.loc 17 58 5 view .LVU290
 1389              	.LBB503:
 1390              	.LBB500:
 1391              	.LBB498:
 1392              	.LBB494:
ARM GAS  /var/folders/b5/3l92j93d5t1__l78tfntmwyr0000gn/T//ccd9zsAq.s 			page 47


 1393              	.LBI494:
  32:../../DaisyExamples/DaisySP//Source/Utility/dsp.h **** {
 1394              		.loc 17 32 14 view .LVU291
 1395              	.LBB495:
  34:../../DaisyExamples/DaisySP//Source/Utility/dsp.h **** #ifdef __arm__
 1396              		.loc 17 34 5 view .LVU292
  36:../../DaisyExamples/DaisySP//Source/Utility/dsp.h **** #else
 1397              		.loc 17 36 5 view .LVU293
  40:../../DaisyExamples/DaisySP//Source/Utility/dsp.h **** }
 1398              		.loc 17 40 5 view .LVU294
  40:../../DaisyExamples/DaisySP//Source/Utility/dsp.h **** }
 1399              		.loc 17 40 5 is_stmt 0 view .LVU295
 1400              	.LBE495:
 1401              	.LBE494:
 1402              	.LBB496:
 1403              	.LBI496:
  43:../../DaisyExamples/DaisySP//Source/Utility/dsp.h **** {
 1404              		.loc 17 43 14 is_stmt 1 view .LVU296
 1405              	.LBB497:
  45:../../DaisyExamples/DaisySP//Source/Utility/dsp.h **** #ifdef __arm__
 1406              		.loc 17 45 5 view .LVU297
  47:../../DaisyExamples/DaisySP//Source/Utility/dsp.h **** #else
 1407              		.loc 17 47 5 view .LVU298
  51:../../DaisyExamples/DaisySP//Source/Utility/dsp.h **** }
 1408              		.loc 17 51 5 view .LVU299
  51:../../DaisyExamples/DaisySP//Source/Utility/dsp.h **** }
 1409              		.loc 17 51 5 is_stmt 0 view .LVU300
 1410              	.LBE497:
 1411              	.LBE496:
 1412              	.LBE498:
 1413              	.LBE500:
 1414              	.LBE503:
 1415              		.loc 16 135 2 is_stmt 1 view .LVU301
 1416              		.loc 16 135 21 is_stmt 0 view .LVU302
 1417 0058 FFF7FEFF 		bl	_ZN7daisysp17SyntheticBassDrum9SetAccentEf
 1418              	.LVL56:
 136:MachineDaisyFile.cpp ****     synthKick.SetDirtiness(.1f);
 1419              		.loc 16 136 5 is_stmt 1 view .LVU303
 1420              		.loc 16 136 27 is_stmt 0 view .LVU304
 1421 005c 9FED120A 		vldr.32	s0, .L95+40
 1422 0060 1048     		ldr	r0, .L95+36
 1423 0062 FFF7FEFF 		bl	_ZN7daisysp17SyntheticBassDrum12SetDirtinessEf
 1424              	.LVL57:
 137:MachineDaisyFile.cpp ****     synthKick.SetDecay(.7f);
 1425              		.loc 16 137 5 is_stmt 1 view .LVU305
 1426              		.loc 16 137 23 is_stmt 0 view .LVU306
 1427 0066 9FED110A 		vldr.32	s0, .L95+44
 1428 006a 0E48     		ldr	r0, .L95+36
 1429 006c FFF7FEFF 		bl	_ZN7daisysp17SyntheticBassDrum8SetDecayEf
 1430              	.LVL58:
 138:MachineDaisyFile.cpp **** 	synthKick.SetFreq(150.f);
 1431              		.loc 16 138 2 is_stmt 1 view .LVU307
 1432              		.loc 16 138 19 is_stmt 0 view .LVU308
 1433 0070 9FED0F0A 		vldr.32	s0, .L95+48
 1434 0074 0B48     		ldr	r0, .L95+36
 139:MachineDaisyFile.cpp **** }
 1435              		.loc 16 139 1 view .LVU309
ARM GAS  /var/folders/b5/3l92j93d5t1__l78tfntmwyr0000gn/T//ccd9zsAq.s 			page 48


 1436 0076 BDE80840 		pop	{r3, lr}
 1437              		.cfi_restore 14
 1438              		.cfi_restore 3
 1439              		.cfi_def_cfa_offset 0
 138:MachineDaisyFile.cpp **** 	synthKick.SetFreq(150.f);
 1440              		.loc 16 138 19 view .LVU310
 1441 007a FFF7FEBF 		b	_ZN7daisysp17SyntheticBassDrum7SetFreqEf
 1442              	.LVL59:
 1443              	.L96:
 1444 007e 00BF     		.align	3
 1445              	.L95:
 1446 0080 33333333 		.word	858993459
 1447 0084 3333FB3F 		.word	1073427251
 1448 0088 33333333 		.word	858993459
 1449 008c 3333F33F 		.word	1072902963
 1450 0090 0000C842 		.word	1120403456
 1451 0094 00000000 		.word	.LANCHOR10
 1452 0098 00000000 		.word	0
 1453 009c CDCCCC3E 		.word	1053609165
 1454 00a0 00000000 		.word	.LANCHOR11
 1455 00a4 00000000 		.word	.LANCHOR12
 1456 00a8 CDCCCC3D 		.word	1036831949
 1457 00ac 3333333F 		.word	1060320051
 1458 00b0 00001643 		.word	1125515264
 1459              		.cfi_endproc
 1460              	.LFE4856:
 1462              		.section	.text._Z14digitalButtonsv,"ax",%progbits
 1463              		.align	1
 1464              		.p2align 2,,3
 1465              		.global	_Z14digitalButtonsv
 1466              		.syntax unified
 1467              		.thumb
 1468              		.thumb_func
 1470              	_Z14digitalButtonsv:
 1471              	.LFB4857:
 140:MachineDaisyFile.cpp **** //====================================================================================
 141:MachineDaisyFile.cpp **** // processes selector button
 142:MachineDaisyFile.cpp **** void digitalButtons()
 143:MachineDaisyFile.cpp **** {
 1472              		.loc 16 143 1 is_stmt 1 view -0
 1473              		.cfi_startproc
 1474              		@ args = 0, pretend = 0, frame = 0
 1475              		@ frame_needed = 0, uses_anonymous_args = 0
 144:MachineDaisyFile.cpp **** 	selector.Debounce();
 1476              		.loc 16 144 2 view .LVU312
 143:MachineDaisyFile.cpp **** 	selector.Debounce();
 1477              		.loc 16 143 1 is_stmt 0 view .LVU313
 1478 0000 38B5     		push	{r3, r4, r5, lr}
 1479              		.cfi_def_cfa_offset 16
 1480              		.cfi_offset 3, -16
 1481              		.cfi_offset 4, -12
 1482              		.cfi_offset 5, -8
 1483              		.cfi_offset 14, -4
 1484              		.loc 16 144 19 view .LVU314
 1485 0002 364C     		ldr	r4, .L117
 145:MachineDaisyFile.cpp **** 	tapTempo.Debounce();
 1486              		.loc 16 145 19 view .LVU315
ARM GAS  /var/folders/b5/3l92j93d5t1__l78tfntmwyr0000gn/T//ccd9zsAq.s 			page 49


 1487 0004 364D     		ldr	r5, .L117+4
 144:MachineDaisyFile.cpp **** 	selector.Debounce();
 1488              		.loc 16 144 19 view .LVU316
 1489 0006 2046     		mov	r0, r4
 143:MachineDaisyFile.cpp **** 	selector.Debounce();
 1490              		.loc 16 143 1 view .LVU317
 1491 0008 2DED028B 		vpush.64	{d8}
 1492              		.cfi_def_cfa_offset 24
 1493              		.cfi_offset 80, -24
 1494              		.cfi_offset 81, -20
 144:MachineDaisyFile.cpp **** 	selector.Debounce();
 1495              		.loc 16 144 19 view .LVU318
 1496 000c FFF7FEFF 		bl	_ZN5daisy6Switch8DebounceEv
 1497              	.LVL60:
 1498              		.loc 16 145 2 is_stmt 1 view .LVU319
 1499              		.loc 16 145 19 is_stmt 0 view .LVU320
 1500 0010 2846     		mov	r0, r5
 1501 0012 FFF7FEFF 		bl	_ZN5daisy6Switch8DebounceEv
 1502              	.LVL61:
 146:MachineDaisyFile.cpp **** 	if (selector.RisingEdge())
 1503              		.loc 16 146 2 is_stmt 1 view .LVU321
 1504              	.LBB527:
 1505              	.LBI527:
  43:../../DaisyExamples/libDaisy//src/hid/switch.h **** 
  44:../../DaisyExamples/libDaisy//src/hid/switch.h ****     /** 
  45:../../DaisyExamples/libDaisy//src/hid/switch.h ****     Initializes the switch object with a given port/pin combo.
  46:../../DaisyExamples/libDaisy//src/hid/switch.h ****     \param pin port/pin object to tell the switch which hardware pin to use.
  47:../../DaisyExamples/libDaisy//src/hid/switch.h ****     \param update_rate Does nothing. Backwards compatibility until next breaking update.
  48:../../DaisyExamples/libDaisy//src/hid/switch.h ****     \param t switch type -- Default: TYPE_MOMENTARY
  49:../../DaisyExamples/libDaisy//src/hid/switch.h ****     \param pol switch polarity -- Default: POLARITY_INVERTED
  50:../../DaisyExamples/libDaisy//src/hid/switch.h ****     \param pu switch pull up/down -- Default: PULL_UP
  51:../../DaisyExamples/libDaisy//src/hid/switch.h ****     */
  52:../../DaisyExamples/libDaisy//src/hid/switch.h ****     void
  53:../../DaisyExamples/libDaisy//src/hid/switch.h ****     Init(dsy_gpio_pin pin, float update_rate, Type t, Polarity pol, Pull pu);
  54:../../DaisyExamples/libDaisy//src/hid/switch.h **** 
  55:../../DaisyExamples/libDaisy//src/hid/switch.h ****     /**
  56:../../DaisyExamples/libDaisy//src/hid/switch.h ****        Simplified Init.
  57:../../DaisyExamples/libDaisy//src/hid/switch.h ****        \param pin port/pin object to tell the switch which hardware pin to use.
  58:../../DaisyExamples/libDaisy//src/hid/switch.h ****        \param update_rate Left for backwards compatibility until next breaking change.
  59:../../DaisyExamples/libDaisy//src/hid/switch.h ****     */
  60:../../DaisyExamples/libDaisy//src/hid/switch.h ****     void Init(dsy_gpio_pin pin, float update_rate = 0.f);
  61:../../DaisyExamples/libDaisy//src/hid/switch.h **** 
  62:../../DaisyExamples/libDaisy//src/hid/switch.h ****     /** 
  63:../../DaisyExamples/libDaisy//src/hid/switch.h ****     Called at update_rate to debounce and handle timing for the switch.
  64:../../DaisyExamples/libDaisy//src/hid/switch.h ****     In order for events not to be missed, its important that the Edge/Pressed checks
  65:../../DaisyExamples/libDaisy//src/hid/switch.h ****     be made at the same rate as the debounce function is being called.
  66:../../DaisyExamples/libDaisy//src/hid/switch.h ****     */
  67:../../DaisyExamples/libDaisy//src/hid/switch.h ****     void Debounce();
  68:../../DaisyExamples/libDaisy//src/hid/switch.h **** 
  69:../../DaisyExamples/libDaisy//src/hid/switch.h ****     /** \return true if a button was just pressed. */
  70:../../DaisyExamples/libDaisy//src/hid/switch.h ****     inline bool RisingEdge() const { return updated_ ? state_ == 0x7f : false; }
 1506              		.loc 2 70 17 view .LVU322
 1507              	.LBB528:
 1508              		.loc 2 70 38 view .LVU323
 1509              		.loc 2 70 54 is_stmt 0 view .LVU324
 1510 0016 2379     		ldrb	r3, [r4, #4]	@ zero_extendqisi2
 1511 0018 13B3     		cbz	r3, .L98
ARM GAS  /var/folders/b5/3l92j93d5t1__l78tfntmwyr0000gn/T//ccd9zsAq.s 			page 50


 1512              		.loc 2 70 56 view .LVU325
 1513 001a A37A     		ldrb	r3, [r4, #10]	@ zero_extendqisi2
 1514              	.LVL62:
 1515              		.loc 2 70 56 view .LVU326
 1516              	.LBE528:
 1517              	.LBE527:
 1518              		.loc 16 146 2 view .LVU327
 1519 001c 7F2B     		cmp	r3, #127
 1520 001e 20D1     		bne	.L99
 147:MachineDaisyFile.cpp **** 	{
 148:MachineDaisyFile.cpp **** 		drumMode++;
 1521              		.loc 16 148 3 is_stmt 1 view .LVU328
 149:MachineDaisyFile.cpp **** 		drumMode = drumMode % 4;
 1522              		.loc 16 149 3 view .LVU329
 1523              		.loc 16 149 12 is_stmt 0 view .LVU330
 1524 0020 3049     		ldr	r1, .L117+8
 148:MachineDaisyFile.cpp **** 		drumMode = drumMode % 4;
 1525              		.loc 16 148 11 view .LVU331
 1526 0022 0B68     		ldr	r3, [r1]
 1527 0024 0133     		adds	r3, r3, #1
 1528              		.loc 16 149 23 view .LVU332
 1529 0026 5A42     		rsbs	r2, r3, #0
 1530 0028 03F00303 		and	r3, r3, #3
 1531 002c 02F00302 		and	r2, r2, #3
 1532 0030 58BF     		it	pl
 1533 0032 5342     		rsbpl	r3, r2, #0
 1534              	.LBB530:
 1535              	.LBB531:
 1536              		.loc 2 70 54 view .LVU333
 1537 0034 2A79     		ldrb	r2, [r5, #4]	@ zero_extendqisi2
 1538              	.LBE531:
 1539              	.LBE530:
 1540              		.loc 16 149 12 view .LVU334
 1541 0036 0B60     		str	r3, [r1]
 150:MachineDaisyFile.cpp **** 	}
 151:MachineDaisyFile.cpp **** 	if (tapTempo.RisingEdge())
 1542              		.loc 16 151 2 is_stmt 1 view .LVU335
 1543              	.LVL63:
 1544              	.LBB534:
 1545              	.LBI530:
 1546              		.loc 2 70 17 view .LVU336
 1547              	.LBB532:
 1548              		.loc 2 70 38 view .LVU337
 1549              		.loc 2 70 54 is_stmt 0 view .LVU338
 1550 0038 7AB1     		cbz	r2, .L97
 1551              		.loc 2 70 56 view .LVU339
 1552 003a AB7A     		ldrb	r3, [r5, #10]	@ zero_extendqisi2
 1553              	.LVL64:
 1554              		.loc 2 70 56 view .LVU340
 1555              	.LBE532:
 1556              	.LBE534:
 1557              		.loc 16 151 2 view .LVU341
 1558 003c 7F2B     		cmp	r3, #127
 1559 003e 0CD1     		bne	.L97
 1560              	.L106:
 152:MachineDaisyFile.cpp **** 	{
 153:MachineDaisyFile.cpp **** 		step++;
ARM GAS  /var/folders/b5/3l92j93d5t1__l78tfntmwyr0000gn/T//ccd9zsAq.s 			page 51


 1561              		.loc 16 153 3 is_stmt 1 view .LVU342
 154:MachineDaisyFile.cpp **** 		step = step % NUM_STEPS;
 1562              		.loc 16 154 3 view .LVU343
 1563              		.loc 16 154 8 is_stmt 0 view .LVU344
 1564 0040 2948     		ldr	r0, .L117+12
 153:MachineDaisyFile.cpp **** 		step = step % NUM_STEPS;
 1565              		.loc 16 153 7 view .LVU345
 1566 0042 0268     		ldr	r2, [r0]
 1567 0044 0132     		adds	r2, r2, #1
 1568              		.loc 16 154 15 view .LVU346
 1569 0046 5142     		rsbs	r1, r2, #0
 1570 0048 02F00702 		and	r2, r2, #7
 1571 004c 01F00701 		and	r1, r1, #7
 1572 0050 58BF     		it	pl
 1573 0052 4A42     		rsbpl	r2, r1, #0
 1574              		.loc 16 154 8 view .LVU347
 1575 0054 0260     		str	r2, [r0]
 1576              	.L102:
 155:MachineDaisyFile.cpp **** 	}
 156:MachineDaisyFile.cpp **** 	if (selector.TimeHeldMs() > 2000.f && tapTempo.TimeHeldMs() > 2000)
 1577              		.loc 16 156 2 is_stmt 1 view .LVU348
 1578              	.LVL65:
 1579              	.LBB535:
 1580              	.LBI535:
  71:../../DaisyExamples/libDaisy//src/hid/switch.h **** 
  72:../../DaisyExamples/libDaisy//src/hid/switch.h ****     /** \return true if the button was just released */
  73:../../DaisyExamples/libDaisy//src/hid/switch.h ****     inline bool FallingEdge() const
  74:../../DaisyExamples/libDaisy//src/hid/switch.h ****     {
  75:../../DaisyExamples/libDaisy//src/hid/switch.h ****         return updated_ ? state_ == 0x80 : false;
  76:../../DaisyExamples/libDaisy//src/hid/switch.h ****     }
  77:../../DaisyExamples/libDaisy//src/hid/switch.h **** 
  78:../../DaisyExamples/libDaisy//src/hid/switch.h ****     /** \return true if the button is held down (or if the toggle is on) */
  79:../../DaisyExamples/libDaisy//src/hid/switch.h ****     inline bool Pressed() const { return state_ == 0xff; }
  80:../../DaisyExamples/libDaisy//src/hid/switch.h **** 
  81:../../DaisyExamples/libDaisy//src/hid/switch.h ****     /** \return true if the button is held down, without debouncing */
  82:../../DaisyExamples/libDaisy//src/hid/switch.h ****     inline bool RawState()
  83:../../DaisyExamples/libDaisy//src/hid/switch.h ****     {
  84:../../DaisyExamples/libDaisy//src/hid/switch.h ****         return flip_ ? !dsy_gpio_read(&hw_gpio_) : dsy_gpio_read(&hw_gpio_);
  85:../../DaisyExamples/libDaisy//src/hid/switch.h ****     }
  86:../../DaisyExamples/libDaisy//src/hid/switch.h **** 
  87:../../DaisyExamples/libDaisy//src/hid/switch.h ****     /** \return the time in milliseconds that the button has been held (or toggle has been on) */
  88:../../DaisyExamples/libDaisy//src/hid/switch.h ****     inline float TimeHeldMs() const
 1581              		.loc 2 88 18 view .LVU349
 1582              	.LBB536:
  89:../../DaisyExamples/libDaisy//src/hid/switch.h ****     {
  90:../../DaisyExamples/libDaisy//src/hid/switch.h ****         return Pressed() ? System::GetNow() - rising_edge_time_ : 0;
 1583              		.loc 2 90 9 view .LVU350
 1584              		.loc 2 90 9 is_stmt 0 view .LVU351
 1585              	.LBE536:
 1586              	.LBE535:
  79:../../DaisyExamples/libDaisy//src/hid/switch.h **** 
 1587              		.loc 2 79 35 is_stmt 1 view .LVU352
 1588              	.LBB544:
 1589              	.LBB541:
 1590              		.loc 2 90 26 is_stmt 0 view .LVU353
 1591 0056 FF2B     		cmp	r3, #255
 1592 0058 0AD0     		beq	.L116
ARM GAS  /var/folders/b5/3l92j93d5t1__l78tfntmwyr0000gn/T//ccd9zsAq.s 			page 52


 1593              	.LVL66:
 1594              	.L97:
 1595              		.loc 2 90 26 view .LVU354
 1596              	.LBE541:
 1597              	.LBE544:
 157:MachineDaisyFile.cpp **** 		clearPattern();
 158:MachineDaisyFile.cpp **** 
 159:MachineDaisyFile.cpp **** }
 1598              		.loc 16 159 1 view .LVU355
 1599 005a BDEC028B 		vldm	sp!, {d8}
 1600              		.cfi_remember_state
 1601              		.cfi_restore 80
 1602              		.cfi_restore 81
 1603              		.cfi_def_cfa_offset 16
 1604 005e 38BD     		pop	{r3, r4, r5, pc}
 1605              	.LVL67:
 1606              	.L98:
 1607              		.cfi_restore_state
 1608              	.LBB545:
 1609              	.LBB529:
  70:../../DaisyExamples/libDaisy//src/hid/switch.h **** 
 1610              		.loc 2 70 56 view .LVU356
 1611 0060 A37A     		ldrb	r3, [r4, #10]	@ zero_extendqisi2
 1612              	.LVL68:
 1613              	.L99:
  70:../../DaisyExamples/libDaisy//src/hid/switch.h **** 
 1614              		.loc 2 70 56 view .LVU357
 1615              	.LBE529:
 1616              	.LBE545:
 151:MachineDaisyFile.cpp **** 	{
 1617              		.loc 16 151 2 is_stmt 1 view .LVU358
 1618              	.LBB546:
  70:../../DaisyExamples/libDaisy//src/hid/switch.h **** 
 1619              		.loc 2 70 17 view .LVU359
 1620              	.LBB533:
  70:../../DaisyExamples/libDaisy//src/hid/switch.h **** 
 1621              		.loc 2 70 38 view .LVU360
  70:../../DaisyExamples/libDaisy//src/hid/switch.h **** 
 1622              		.loc 2 70 54 is_stmt 0 view .LVU361
 1623 0062 2A79     		ldrb	r2, [r5, #4]	@ zero_extendqisi2
 1624 0064 002A     		cmp	r2, #0
 1625 0066 F6D0     		beq	.L102
 1626              	.LVL69:
  70:../../DaisyExamples/libDaisy//src/hid/switch.h **** 
 1627              		.loc 2 70 54 view .LVU362
 1628              	.LBE533:
 1629              	.LBE546:
 151:MachineDaisyFile.cpp **** 	{
 1630              		.loc 16 151 2 view .LVU363
 1631 0068 AA7A     		ldrb	r2, [r5, #10]	@ zero_extendqisi2
 1632 006a 7F2A     		cmp	r2, #127
 1633 006c F3D1     		bne	.L102
 1634 006e E7E7     		b	.L106
 1635              	.LVL70:
 1636              	.L116:
 1637              	.LBB547:
 1638              	.LBB542:
ARM GAS  /var/folders/b5/3l92j93d5t1__l78tfntmwyr0000gn/T//ccd9zsAq.s 			page 53


 1639              	.LBB537:
 1640              	.LBI537:
  88:../../DaisyExamples/libDaisy//src/hid/switch.h ****     {
 1641              		.loc 2 88 18 is_stmt 1 view .LVU364
 1642              	.LBB538:
 1643              		.loc 2 90 42 is_stmt 0 view .LVU365
 1644 0070 FFF7FEFF 		bl	_ZN5daisy6System6GetNowEv
 1645              	.LVL71:
 1646              		.loc 2 90 45 view .LVU366
 1647 0074 07EE900A 		vmov	s15, r0	@ int
 1648              		.loc 2 90 26 view .LVU367
 1649 0078 94ED037A 		vldr.32	s14, [r4, #12]
 1650              		.loc 2 90 45 view .LVU368
 1651 007c F8EE677A 		vcvt.f32.u32	s15, s15
 1652              	.LBE538:
 1653              	.LBE537:
 1654              	.LBE542:
 1655              	.LBE547:
 156:MachineDaisyFile.cpp **** 		clearPattern();
 1656              		.loc 16 156 37 view .LVU369
 1657 0080 9FED1A8A 		vldr.32	s16, .L117+16
 1658              	.LBB548:
 1659              	.LBB543:
 1660              	.LBB540:
 1661              	.LBB539:
 1662              		.loc 2 90 26 view .LVU370
 1663 0084 77EEC77A 		vsub.f32	s15, s15, s14
 1664              	.LBE539:
 1665              	.LBE540:
 1666              	.LBE543:
 1667              	.LBE548:
 156:MachineDaisyFile.cpp **** 		clearPattern();
 1668              		.loc 16 156 37 view .LVU371
 1669 0088 F4EEC87A 		vcmpe.f32	s15, s16
 1670 008c F1EE10FA 		vmrs	APSR_nzcv, FPSCR
 1671 0090 E3DD     		ble	.L97
 1672              	.LVL72:
 1673              	.LBB549:
 1674              	.LBI549:
  88:../../DaisyExamples/libDaisy//src/hid/switch.h ****     {
 1675              		.loc 2 88 18 is_stmt 1 view .LVU372
 1676              	.LBB550:
 1677              		.loc 2 90 9 view .LVU373
 1678              	.LBB551:
 1679              	.LBI551:
  79:../../DaisyExamples/libDaisy//src/hid/switch.h **** 
 1680              		.loc 2 79 17 view .LVU374
 1681              	.LBB552:
  79:../../DaisyExamples/libDaisy//src/hid/switch.h **** 
 1682              		.loc 2 79 35 view .LVU375
  79:../../DaisyExamples/libDaisy//src/hid/switch.h **** 
 1683              		.loc 2 79 35 is_stmt 0 view .LVU376
 1684              	.LBE552:
 1685              	.LBE551:
 1686              		.loc 2 90 26 view .LVU377
 1687 0092 AB7A     		ldrb	r3, [r5, #10]	@ zero_extendqisi2
 1688 0094 FF2B     		cmp	r3, #255
ARM GAS  /var/folders/b5/3l92j93d5t1__l78tfntmwyr0000gn/T//ccd9zsAq.s 			page 54


 1689 0096 E0D1     		bne	.L97
 1690              	.LVL73:
 1691              	.LBB553:
 1692              	.LBI553:
  88:../../DaisyExamples/libDaisy//src/hid/switch.h ****     {
 1693              		.loc 2 88 18 is_stmt 1 view .LVU378
 1694              	.LBB554:
 1695              		.loc 2 90 42 is_stmt 0 view .LVU379
 1696 0098 FFF7FEFF 		bl	_ZN5daisy6System6GetNowEv
 1697              	.LVL74:
 1698              		.loc 2 90 45 view .LVU380
 1699 009c 07EE900A 		vmov	s15, r0	@ int
 1700              		.loc 2 90 26 view .LVU381
 1701 00a0 95ED037A 		vldr.32	s14, [r5, #12]
 1702              		.loc 2 90 45 view .LVU382
 1703 00a4 F8EE677A 		vcvt.f32.u32	s15, s15
 1704              		.loc 2 90 26 view .LVU383
 1705 00a8 77EEC77A 		vsub.f32	s15, s15, s14
 1706              	.LBE554:
 1707              	.LBE553:
 1708              	.LBE550:
 1709              	.LBE549:
 156:MachineDaisyFile.cpp **** 		clearPattern();
 1710              		.loc 16 156 37 view .LVU384
 1711 00ac F4EEC87A 		vcmpe.f32	s15, s16
 1712 00b0 F1EE10FA 		vmrs	APSR_nzcv, FPSCR
 1713 00b4 D1DD     		ble	.L97
 1714              	.LBB555:
 1715              	.LBB556:
 1716              	.LBB557:
  60:MachineDaisyFile.cpp **** 	}
 1717              		.loc 16 60 46 view .LVU385
 1718 00b6 0023     		movs	r3, #0
  60:MachineDaisyFile.cpp **** 	}
 1719              		.loc 16 60 34 view .LVU386
 1720 00b8 0D48     		ldr	r0, .L117+20
  60:MachineDaisyFile.cpp **** 	}
 1721              		.loc 16 60 46 view .LVU387
 1722 00ba 0E4C     		ldr	r4, .L117+24
  60:MachineDaisyFile.cpp **** 	}
 1723              		.loc 16 60 24 view .LVU388
 1724 00bc 0E49     		ldr	r1, .L117+28
  60:MachineDaisyFile.cpp **** 	}
 1725              		.loc 16 60 13 view .LVU389
 1726 00be 0F4A     		ldr	r2, .L117+32
  60:MachineDaisyFile.cpp **** 	}
 1727              		.loc 16 60 34 view .LVU390
 1728 00c0 C0E90033 		strd	r3, r3, [r0]
  60:MachineDaisyFile.cpp **** 	}
 1729              		.loc 16 60 46 view .LVU391
 1730 00c4 C4E90033 		strd	r3, r3, [r4]
 1731              	.LBE557:
  62:MachineDaisyFile.cpp **** }
 1732              		.loc 16 62 12 view .LVU392
 1733 00c8 0D48     		ldr	r0, .L117+36
 1734              	.LBB558:
  60:MachineDaisyFile.cpp **** 	}
ARM GAS  /var/folders/b5/3l92j93d5t1__l78tfntmwyr0000gn/T//ccd9zsAq.s 			page 55


 1735              		.loc 16 60 24 view .LVU393
 1736 00ca C1E90033 		strd	r3, r3, [r1]
  60:MachineDaisyFile.cpp **** 	}
 1737              		.loc 16 60 13 view .LVU394
 1738 00ce C2E90033 		strd	r3, r3, [r2]
 1739              	.LBE558:
  62:MachineDaisyFile.cpp **** }
 1740              		.loc 16 62 2 is_stmt 1 view .LVU395
 1741              	.LBE556:
 1742              	.LBE555:
 1743              		.loc 16 159 1 is_stmt 0 view .LVU396
 1744 00d2 BDEC028B 		vldm	sp!, {d8}
 1745              		.cfi_restore 80
 1746              		.cfi_restore 81
 1747              		.cfi_def_cfa_offset 16
 1748              	.LBB560:
 1749              	.LBB559:
  62:MachineDaisyFile.cpp **** }
 1750              		.loc 16 62 12 view .LVU397
 1751 00d6 0370     		strb	r3, [r0]
 1752              	.LBE559:
 1753              	.LBE560:
 1754              		.loc 16 159 1 view .LVU398
 1755 00d8 38BD     		pop	{r3, r4, r5, pc}
 1756              	.L118:
 1757 00da 00BF     		.align	2
 1758              	.L117:
 1759 00dc 00000000 		.word	.LANCHOR13
 1760 00e0 00000000 		.word	.LANCHOR14
 1761 00e4 00000000 		.word	.LANCHOR7
 1762 00e8 00000000 		.word	.LANCHOR15
 1763 00ec 0000FA44 		.word	1157234688
 1764 00f0 00000000 		.word	.LANCHOR1
 1765 00f4 00000000 		.word	.LANCHOR0
 1766 00f8 00000000 		.word	.LANCHOR2
 1767 00fc 00000000 		.word	.LANCHOR3
 1768 0100 00000000 		.word	.LANCHOR4
 1769              		.cfi_endproc
 1770              	.LFE4857:
 1772              		.section	.text._Z20processKnobAndSwitchv,"ax",%progbits
 1773              		.align	1
 1774              		.p2align 2,,3
 1775              		.global	_Z20processKnobAndSwitchv
 1776              		.syntax unified
 1777              		.thumb
 1778              		.thumb_func
 1780              	_Z20processKnobAndSwitchv:
 1781              	.LFB4858:
 160:MachineDaisyFile.cpp **** //====================================================================================
 161:MachineDaisyFile.cpp **** void processKnobAndSwitch()
 162:MachineDaisyFile.cpp **** {
 1782              		.loc 16 162 1 is_stmt 1 view -0
 1783              		.cfi_startproc
 1784              		@ args = 0, pretend = 0, frame = 0
 1785              		@ frame_needed = 0, uses_anonymous_args = 0
 163:MachineDaisyFile.cpp **** 	tempoKnobValue = hw.adc.GetFloat(1);
 1786              		.loc 16 163 2 view .LVU400
ARM GAS  /var/folders/b5/3l92j93d5t1__l78tfntmwyr0000gn/T//ccd9zsAq.s 			page 56


 162:MachineDaisyFile.cpp **** 	tempoKnobValue = hw.adc.GetFloat(1);
 1787              		.loc 16 162 1 is_stmt 0 view .LVU401
 1788 0000 10B5     		push	{r4, lr}
 1789              		.cfi_def_cfa_offset 8
 1790              		.cfi_offset 4, -8
 1791              		.cfi_offset 14, -4
 1792              		.loc 16 163 34 view .LVU402
 1793 0002 1A48     		ldr	r0, .L121
 1794 0004 0121     		movs	r1, #1
 1795              		.loc 16 163 17 view .LVU403
 1796 0006 1A4C     		ldr	r4, .L121+4
 1797              		.loc 16 163 34 view .LVU404
 1798 0008 FFF7FEFF 		bl	_ZNK5daisy9AdcHandle8GetFloatEh
 1799              	.LVL75:
 164:MachineDaisyFile.cpp **** 	onSwitchValue = hw.adc.GetFloat(2);
 1800              		.loc 16 164 33 view .LVU405
 1801 000c 1748     		ldr	r0, .L121
 1802 000e 0221     		movs	r1, #2
 163:MachineDaisyFile.cpp **** 	tempoKnobValue = hw.adc.GetFloat(1);
 1803              		.loc 16 163 17 view .LVU406
 1804 0010 84ED000A 		vstr.32	s0, [r4]
 1805              		.loc 16 164 2 is_stmt 1 view .LVU407
 1806              		.loc 16 164 33 is_stmt 0 view .LVU408
 1807 0014 FFF7FEFF 		bl	_ZNK5daisy9AdcHandle8GetFloatEh
 1808              	.LVL76:
 1809              	.LBB561:
 1810              	.LBB562:
  70:../EZ_DSP/dsp.h ****     }
 1811              		.loc 14 70 19 view .LVU409
 1812 0018 B3EE0E7A 		vmov.f32	s14, #3.0e+1
 1813 001c 94ED005A 		vldr.32	s10, [r4]
 1814 0020 DFED146A 		vldr.32	s13, .L121+8
 1815              	.LBE562:
 1816              	.LBE561:
 1817              	.LBB582:
 1818              	.LBB583:
  98:../EZ_DSP/dsp.h ****     Hz *= (numSteps/4);
 1819              		.loc 14 98 11 view .LVU410
 1820 0024 9FED146A 		vldr.32	s12, .L121+12
 1821              	.LBE583:
 1822              	.LBE582:
 1823              	.LBB586:
 1824              	.LBB577:
  70:../EZ_DSP/dsp.h ****     }
 1825              		.loc 14 70 19 view .LVU411
 1826 0028 F0EE477A 		vmov.f32	s15, s14
 1827              	.LBB563:
 1828              	.LBB564:
 1829              	.LBB565:
  30:../EZ_DSP/dsp.h ****         #else 
 1830              		.loc 14 30 13 view .LVU412
 1831 002c DFED135A 		vldr.32	s11, .L121+16
 1832              	.LBE565:
 1833              	.LBE564:
 1834              	.LBE563:
 1835              	.LBE577:
 1836              	.LBE586:
ARM GAS  /var/folders/b5/3l92j93d5t1__l78tfntmwyr0000gn/T//ccd9zsAq.s 			page 57


 1837              		.loc 16 164 16 view .LVU413
 1838 0030 134A     		ldr	r2, .L121+20
 1839 0032 144B     		ldr	r3, .L121+24
 1840              	.LBB587:
 1841              	.LBB578:
  70:../EZ_DSP/dsp.h ****     }
 1842              		.loc 14 70 19 view .LVU414
 1843 0034 E5EE267A 		vfma.f32	s15, s10, s13
 1844              	.LBE578:
 1845              	.LBE587:
 1846              		.loc 16 164 16 view .LVU415
 1847 0038 82ED000A 		vstr.32	s0, [r2]
 1848              	.LBB588:
 1849              	.LBB579:
 1850              	.LBB574:
 1851              	.LBB568:
 1852              	.LBB569:
  19:../EZ_DSP/dsp.h ****         #else
 1853              		.loc 14 19 13 view .LVU416
 1854              		.syntax unified
 1855              	@ 19 "../EZ_DSP/dsp.h" 1
 1856 003c C7FE877A 		vmaxnm.f32 s15, s15, s14
 1857              	@ 0 "" 2
 1858              		.thumb
 1859              		.syntax unified
 1860              	.LBE569:
 1861              	.LBE568:
 1862              	.LBB571:
 1863              	.LBB566:
  30:../EZ_DSP/dsp.h ****         #else 
 1864              		.loc 14 30 13 view .LVU417
 1865              		.syntax unified
 1866              	@ 30 "../EZ_DSP/dsp.h" 1
 1867 0040 C7FEE57A 		vminnm.f32 s15, s15, s11
 1868              	@ 0 "" 2
 1869              		.thumb
 1870              		.syntax unified
 1871              	.LBE566:
 1872              	.LBE571:
 1873              	.LBE574:
 1874              	.LBE579:
 1875              	.LBE588:
 1876              	.LBB589:
 1877              	.LBB584:
  98:../EZ_DSP/dsp.h ****     Hz *= (numSteps/4);
 1878              		.loc 14 98 11 view .LVU418
 1879 0044 87EE867A 		vdiv.f32	s14, s15, s12
 1880              	.LBE584:
 1881              	.LBE589:
 165:MachineDaisyFile.cpp **** 	// changes mode between sequencer and button mash
 166:MachineDaisyFile.cpp **** 	if (onSwitchValue > .5f)
 167:MachineDaisyFile.cpp **** 		stepMode = true;
 168:MachineDaisyFile.cpp **** 	else	
 169:MachineDaisyFile.cpp **** 		stepMode = false;
 170:MachineDaisyFile.cpp **** 
 171:MachineDaisyFile.cpp **** 	//knob stuff
 172:MachineDaisyFile.cpp **** 	float bpmValue = EZ_DSP::fmap(tempoKnobValue, 30.f, 250.f);
ARM GAS  /var/folders/b5/3l92j93d5t1__l78tfntmwyr0000gn/T//ccd9zsAq.s 			page 58


 173:MachineDaisyFile.cpp **** 	float msValue = EZ_DSP::bpmToHz(bpmValue, NUM_STEPS); 
 174:MachineDaisyFile.cpp **** 	tick.SetFreq(msValue);
 1882              		.loc 16 174 14 view .LVU419
 1883 0048 0F48     		ldr	r0, .L121+28
 166:MachineDaisyFile.cpp **** 		stepMode = true;
 1884              		.loc 16 166 2 view .LVU420
 1885 004a F6EE006A 		vmov.f32	s13, #5.0e-1
 166:MachineDaisyFile.cpp **** 		stepMode = true;
 1886              		.loc 16 166 2 is_stmt 1 view .LVU421
 175:MachineDaisyFile.cpp **** }
 1887              		.loc 16 175 1 is_stmt 0 view .LVU422
 1888 004e BDE81040 		pop	{r4, lr}
 1889              		.cfi_restore 14
 1890              		.cfi_restore 4
 1891              		.cfi_def_cfa_offset 0
 166:MachineDaisyFile.cpp **** 		stepMode = true;
 1892              		.loc 16 166 2 view .LVU423
 1893 0052 B4EEE60A 		vcmpe.f32	s0, s13
 1894 0056 F1EE10FA 		vmrs	APSR_nzcv, FPSCR
 1895 005a CCBF     		ite	gt
 1896 005c 0122     		movgt	r2, #1
 1897 005e 0022     		movle	r2, #0
 174:MachineDaisyFile.cpp **** }
 1898              		.loc 16 174 14 view .LVU424
 1899 0060 37EE070A 		vadd.f32	s0, s14, s14
 166:MachineDaisyFile.cpp **** 		stepMode = true;
 1900              		.loc 16 166 2 view .LVU425
 1901 0064 1A70     		strb	r2, [r3]
 172:MachineDaisyFile.cpp **** 	float msValue = EZ_DSP::bpmToHz(bpmValue, NUM_STEPS); 
 1902              		.loc 16 172 2 is_stmt 1 view .LVU426
 1903              	.LVL77:
 1904              	.LBB590:
 1905              	.LBI561:
  68:../EZ_DSP/dsp.h ****     {
 1906              		.loc 14 68 18 view .LVU427
 1907              	.LBB580:
  70:../EZ_DSP/dsp.h ****     }
 1908              		.loc 14 70 6 view .LVU428
 1909              	.LBB575:
 1910              	.LBI563:
  37:../EZ_DSP/dsp.h ****     {
 1911              		.loc 14 37 18 view .LVU429
 1912              	.LBE575:
 1913              	.LBE580:
 1914              	.LBE590:
  39:../EZ_DSP/dsp.h ****     }    
 1915              		.loc 14 39 9 view .LVU430
 1916              	.LBB591:
 1917              	.LBB581:
 1918              	.LBB576:
 1919              	.LBB572:
 1920              	.LBI568:
  15:../EZ_DSP/dsp.h ****     {
 1921              		.loc 14 15 18 view .LVU431
 1922              	.LBB570:
  17:../EZ_DSP/dsp.h ****         #ifdef __arm__
 1923              		.loc 14 17 9 view .LVU432
ARM GAS  /var/folders/b5/3l92j93d5t1__l78tfntmwyr0000gn/T//ccd9zsAq.s 			page 59


  19:../EZ_DSP/dsp.h ****         #else
 1924              		.loc 14 19 13 view .LVU433
  23:../EZ_DSP/dsp.h ****     }
 1925              		.loc 14 23 13 view .LVU434
  23:../EZ_DSP/dsp.h ****     }
 1926              		.loc 14 23 13 is_stmt 0 view .LVU435
 1927              	.LBE570:
 1928              	.LBE572:
 1929              	.LBB573:
 1930              	.LBI564:
  26:../EZ_DSP/dsp.h ****     {
 1931              		.loc 14 26 18 is_stmt 1 view .LVU436
 1932              	.LBB567:
  28:../EZ_DSP/dsp.h ****         #ifdef __arm__
 1933              		.loc 14 28 9 view .LVU437
  30:../EZ_DSP/dsp.h ****         #else 
 1934              		.loc 14 30 13 view .LVU438
  34:../EZ_DSP/dsp.h ****     }
 1935              		.loc 14 34 13 view .LVU439
  34:../EZ_DSP/dsp.h ****     }
 1936              		.loc 14 34 13 is_stmt 0 view .LVU440
 1937              	.LBE567:
 1938              	.LBE573:
 1939              	.LBE576:
 1940              	.LBE581:
 1941              	.LBE591:
 173:MachineDaisyFile.cpp **** 	tick.SetFreq(msValue);
 1942              		.loc 16 173 2 is_stmt 1 view .LVU441
 1943              	.LBB592:
 1944              	.LBI582:
  96:../EZ_DSP/dsp.h ****    {
 1945              		.loc 14 96 10 view .LVU442
 1946              	.LBB585:
  98:../EZ_DSP/dsp.h ****     Hz *= (numSteps/4);
 1947              		.loc 14 98 5 view .LVU443
  99:../EZ_DSP/dsp.h ****     return Hz;
 1948              		.loc 14 99 5 view .LVU444
 100:../EZ_DSP/dsp.h ****    }
 1949              		.loc 14 100 5 view .LVU445
 100:../EZ_DSP/dsp.h ****    }
 1950              		.loc 14 100 5 is_stmt 0 view .LVU446
 1951              	.LBE585:
 1952              	.LBE592:
 174:MachineDaisyFile.cpp **** }
 1953              		.loc 16 174 2 is_stmt 1 view .LVU447
 174:MachineDaisyFile.cpp **** }
 1954              		.loc 16 174 14 is_stmt 0 view .LVU448
 1955 0066 FFF7FEBF 		b	_ZN7daisysp5Metro7SetFreqEf
 1956              	.LVL78:
 1957              	.L122:
 174:MachineDaisyFile.cpp **** }
 1958              		.loc 16 174 14 view .LVU449
 1959 006a 00BF     		.align	2
 1960              	.L121:
 1961 006c 18000000 		.word	.LANCHOR5+24
 1962 0070 00000000 		.word	.LANCHOR16
 1963 0074 00005C43 		.word	1130102784
ARM GAS  /var/folders/b5/3l92j93d5t1__l78tfntmwyr0000gn/T//ccd9zsAq.s 			page 60


 1964 0078 00007042 		.word	1114636288
 1965 007c 00007A43 		.word	1132068864
 1966 0080 00000000 		.word	.LANCHOR17
 1967 0084 00000000 		.word	.LANCHOR18
 1968 0088 00000000 		.word	.LANCHOR19
 1969              		.cfi_endproc
 1970              	.LFE4858:
 1972              		.section	.text._Z9initDrumsv,"ax",%progbits
 1973              		.align	1
 1974              		.p2align 2,,3
 1975              		.global	_Z9initDrumsv
 1976              		.syntax unified
 1977              		.thumb
 1978              		.thumb_func
 1980              	_Z9initDrumsv:
 1981              	.LFB4859:
 176:MachineDaisyFile.cpp **** //====================================================================================
 177:MachineDaisyFile.cpp **** // initializes drums
 178:MachineDaisyFile.cpp **** void initDrums()
 179:MachineDaisyFile.cpp **** {
 1982              		.loc 16 179 1 is_stmt 1 view -0
 1983              		.cfi_startproc
 1984              		@ args = 0, pretend = 0, frame = 0
 1985              		@ frame_needed = 0, uses_anonymous_args = 0
 180:MachineDaisyFile.cpp **** 	float fs = hw.AudioSampleRate();
 1986              		.loc 16 180 2 view .LVU451
 179:MachineDaisyFile.cpp **** 	float fs = hw.AudioSampleRate();
 1987              		.loc 16 179 1 is_stmt 0 view .LVU452
 1988 0000 10B5     		push	{r4, lr}
 1989              		.cfi_def_cfa_offset 8
 1990              		.cfi_offset 4, -8
 1991              		.cfi_offset 14, -4
 1992              		.loc 16 180 31 view .LVU453
 1993 0002 4148     		ldr	r0, .L125+16
 1994              	.LBB629:
 1995              	.LBB630:
 120:../../DaisyExamples/DaisySP//Source/Drums/hihat.h **** 
 1996              		.loc 13 120 22 view .LVU454
 1997 0004 414C     		ldr	r4, .L125+20
 1998              	.LBE630:
 1999              	.LBE629:
 179:MachineDaisyFile.cpp **** 	float fs = hw.AudioSampleRate();
 2000              		.loc 16 179 1 view .LVU455
 2001 0006 2DED028B 		vpush.64	{d8}
 2002              		.cfi_def_cfa_offset 16
 2003              		.cfi_offset 80, -16
 2004              		.cfi_offset 81, -12
 2005              		.loc 16 180 31 view .LVU456
 2006 000a FFF7FEFF 		bl	_ZN5daisy9DaisySeed15AudioSampleRateEv
 2007              	.LVL79:
 2008 000e B0EE408A 		vmov.f32	s16, s0
 181:MachineDaisyFile.cpp **** 	tick.Init(4.f, fs);
 2009              		.loc 16 181 11 view .LVU457
 2010 0012 3F48     		ldr	r0, .L125+24
 2011 0014 B1EE000A 		vmov.f32	s0, #4.0e+0
 2012              	.LVL80:
 2013              		.loc 16 181 2 is_stmt 1 view .LVU458
ARM GAS  /var/folders/b5/3l92j93d5t1__l78tfntmwyr0000gn/T//ccd9zsAq.s 			page 61


 2014              		.loc 16 181 11 is_stmt 0 view .LVU459
 2015 0018 F0EE480A 		vmov.f32	s1, s16
 2016 001c FFF7FEFF 		bl	_ZN7daisysp5Metro4InitEff
 2017              	.LVL81:
 182:MachineDaisyFile.cpp **** 	//ourKick.init(fs, 0);
 183:MachineDaisyFile.cpp **** 	kick.Init(fs);
 2018              		.loc 16 183 2 is_stmt 1 view .LVU460
 2019              		.loc 16 183 11 is_stmt 0 view .LVU461
 2020 0020 B0EE480A 		vmov.f32	s0, s16
 2021 0024 3B48     		ldr	r0, .L125+28
 2022 0026 FFF7FEFF 		bl	_ZN7daisysp14AnalogBassDrum4InitEf
 2023              	.LVL82:
 184:MachineDaisyFile.cpp **** 	snare.Init(fs);
 2024              		.loc 16 184 2 is_stmt 1 view .LVU462
 2025              		.loc 16 184 12 is_stmt 0 view .LVU463
 2026 002a B0EE480A 		vmov.f32	s0, s16
 2027 002e 3A48     		ldr	r0, .L125+32
 2028 0030 FFF7FEFF 		bl	_ZN7daisysp18SyntheticSnareDrum4InitEf
 2029              	.LVL83:
 185:MachineDaisyFile.cpp **** 	hat.Init(fs);
 2030              		.loc 16 185 2 is_stmt 1 view .LVU464
 2031              	.LBB750:
 2032              	.LBI629:
 118:../../DaisyExamples/DaisySP//Source/Drums/hihat.h ****     {
 2033              		.loc 13 118 10 view .LVU465
 2034              	.LBB745:
 124:../../DaisyExamples/DaisySP//Source/Drums/hihat.h ****         noise_clock_  = 0.0f;
 2035              		.loc 13 124 23 is_stmt 0 view .LVU466
 2036 0034 DFED396A 		vldr.32	s13, .L125+36
 2037              	.LBB631:
 2038              	.LBB632:
 2039              	.LBB633:
 2040              	.LBB634:
  36:../../DaisyExamples/DaisySP//Source/Utility/dsp.h **** #else
 2041              		.loc 17 36 5 view .LVU467
 2042 0038 9FED397A 		vldr.32	s14, .L125+40
 2043              	.LBE634:
 2044              	.LBE633:
 2045              	.LBE632:
 2046              	.LBE631:
 2047              	.LBB645:
 2048              	.LBB646:
 2049              	.LBB647:
 2050              	.LBB648:
 2051              	.LBB649:
  47:../../DaisyExamples/DaisySP//Source/Utility/dsp.h **** #else
 2052              		.loc 17 47 5 view .LVU468
 2053 003c F7EE003A 		vmov.f32	s7, #1.0e+0
 2054              	.LBE649:
 2055              	.LBE648:
 2056              	.LBE647:
 2057              	.LBE646:
 2058              	.LBE645:
 2059              	.LBB669:
 2060              	.LBB639:
 2061              	.LBB637:
 2062              	.LBB635:
ARM GAS  /var/folders/b5/3l92j93d5t1__l78tfntmwyr0000gn/T//ccd9zsAq.s 			page 62


  36:../../DaisyExamples/DaisySP//Source/Utility/dsp.h **** #else
 2063              		.loc 17 36 5 view .LVU469
 2064              		.syntax unified
 2065              	@ 36 "../../DaisyExamples/DaisySP//Source/Utility/dsp.h" 1
 2066 0040 87FE267A 		vmaxnm.f32 s14, s14, s13
 2067              	@ 0 "" 2
 2068              		.thumb
 2069              		.syntax unified
 2070              	.LBE635:
 2071              	.LBE637:
 235:../../DaisyExamples/DaisySP//Source/Drums/hihat.h ****         decay_ -= 1.2;
 2072              		.loc 13 235 16 view .LVU470
 2073 0044 9FED2C5B 		vldr.64	d5, .L125
 2074 0048 B7EEC77A 		vcvt.f64.f32	d7, s14
 2075              	.LBE639:
 2076              	.LBE669:
 2077              	.LBB670:
 2078              	.LBB671:
 2079              	.LBB672:
 2080              	.LBB673:
 2081              	.LBB674:
  36:../../DaisyExamples/DaisySP//Source/Utility/dsp.h **** #else
 2082              		.loc 17 36 5 view .LVU471
 2083 004c 9FED356A 		vldr.32	s12, .L125+44
 2084              		.syntax unified
 2085              	@ 36 "../../DaisyExamples/DaisySP//Source/Utility/dsp.h" 1
 2086 0050 86FE266A 		vmaxnm.f32 s12, s12, s13
 2087              	@ 0 "" 2
 2088              		.thumb
 2089              		.syntax unified
 2090              	.LBE674:
 2091              	.LBE673:
 2092              	.LBE672:
 2093              	.LBE671:
 2094              	.LBE670:
 2095              	.LBB689:
 2096              	.LBB640:
 2097              		.loc 13 236 16 view .LVU472
 2098 0054 9FED2A4B 		vldr.64	d4, .L125+8
 235:../../DaisyExamples/DaisySP//Source/Drums/hihat.h ****         decay_ -= 1.2;
 2099              		.loc 13 235 16 view .LVU473
 2100 0058 27EE057B 		vmul.f64	d7, d7, d5
 2101              	.LBE640:
 2102              	.LBE689:
 2103              	.LBB690:
 2104              	.LBB691:
 208:../../DaisyExamples/DaisySP//Source/Drums/hihat.h **** 
 2105              		.loc 13 208 46 view .LVU474
 2106 005c 0023     		movs	r3, #0
 2107              	.LBE691:
 2108              	.LBE690:
 2109              	.LBB693:
 2110              	.LBB684:
 2111              	.LBB681:
 2112              	.LBB676:
 2113              	.LBB677:
  47:../../DaisyExamples/DaisySP//Source/Utility/dsp.h **** #else
ARM GAS  /var/folders/b5/3l92j93d5t1__l78tfntmwyr0000gn/T//ccd9zsAq.s 			page 63


 2114              		.loc 17 47 5 view .LVU475
 2115              		.syntax unified
 2116              	@ 47 "../../DaisyExamples/DaisySP//Source/Utility/dsp.h" 1
 2117 005e 86FE636A 		vminnm.f32 s12, s12, s7
 2118              	@ 0 "" 2
 2119              		.thumb
 2120              		.syntax unified
 2121              	.LBE677:
 2122              	.LBE676:
 2123              	.LBE681:
 2124              	.LBE684:
 2125              	.LBE693:
 2126              	.LBB694:
 2127              	.LBB662:
 220:../../DaisyExamples/DaisySP//Source/Drums/hihat.h ****         f0_ = fclamp(f0, 0.f, 1.f);
 2128              		.loc 13 220 12 view .LVU476
 2129 0062 DFED315A 		vldr.32	s11, .L125+48
 2130              	.LBE662:
 2131              	.LBE694:
 136:../../DaisyExamples/DaisySP//Source/Drums/hihat.h ****         noise_coloration_svf_.Init(sample_rate_);
 2132              		.loc 13 136 29 view .LVU477
 2133 0066 04F12C00 		add	r0, r4, #44
 2134              	.LBB695:
 2135              	.LBB685:
 237:../../DaisyExamples/DaisySP//Source/Drums/hihat.h ****     }
 238:../../DaisyExamples/DaisySP//Source/Drums/hihat.h **** 
 239:../../DaisyExamples/DaisySP//Source/Drums/hihat.h ****     /** Sets the mix between tone and noise
 240:../../DaisyExamples/DaisySP//Source/Drums/hihat.h ****         \param snappy 1 = just noise. 0 = just tone.
 241:../../DaisyExamples/DaisySP//Source/Drums/hihat.h ****     */
 242:../../DaisyExamples/DaisySP//Source/Drums/hihat.h ****     void SetNoisiness(float noisiness)
 243:../../DaisyExamples/DaisySP//Source/Drums/hihat.h ****     {
 244:../../DaisyExamples/DaisySP//Source/Drums/hihat.h ****         noisiness_ = fclamp(noisiness, 0.f, 1.f);
 245:../../DaisyExamples/DaisySP//Source/Drums/hihat.h ****         noisiness_ *= noisiness_;
 2136              		.loc 13 245 20 view .LVU478
 2137 006a 26EE063A 		vmul.f32	s6, s12, s12
 2138              	.LBE685:
 2139              	.LBE695:
 124:../../DaisyExamples/DaisySP//Source/Drums/hihat.h ****         noise_clock_  = 0.0f;
 2140              		.loc 13 124 23 view .LVU479
 2141 006e C4ED076A 		vstr.32	s13, [r4, #28]
 136:../../DaisyExamples/DaisySP//Source/Drums/hihat.h ****         noise_coloration_svf_.Init(sample_rate_);
 2142              		.loc 13 136 29 view .LVU480
 2143 0072 B0EE480A 		vmov.f32	s0, s16
 125:../../DaisyExamples/DaisySP//Source/Drums/hihat.h ****         noise_sample_ = 0.0f;
 2144              		.loc 13 125 23 view .LVU481
 2145 0076 C4ED086A 		vstr.32	s13, [r4, #32]
 126:../../DaisyExamples/DaisySP//Source/Drums/hihat.h ****         sustain_gain_ = 0.0f;
 2146              		.loc 13 126 23 view .LVU482
 2147 007a C4ED096A 		vstr.32	s13, [r4, #36]
 2148              	.LBB696:
 2149              	.LBB663:
 220:../../DaisyExamples/DaisySP//Source/Drums/hihat.h ****         f0_ = fclamp(f0, 0.f, 1.f);
 2150              		.loc 13 220 12 view .LVU483
 2151 007e 85EE885A 		vdiv.f32	s10, s11, s16
 2152              	.LBE663:
 2153              	.LBE696:
 127:../../DaisyExamples/DaisySP//Source/Drums/hihat.h **** 
ARM GAS  /var/folders/b5/3l92j93d5t1__l78tfntmwyr0000gn/T//ccd9zsAq.s 			page 64


 2154              		.loc 13 127 23 view .LVU484
 2155 0082 C4ED0A6A 		vstr.32	s13, [r4, #40]
 2156              	.LBB697:
 2157              	.LBB664:
 2158              	.LBB658:
 2159              	.LBB652:
 2160              	.LBB653:
  36:../../DaisyExamples/DaisySP//Source/Utility/dsp.h **** #else
 2161              		.loc 17 36 5 view .LVU485
 2162              		.syntax unified
 2163              	@ 36 "../../DaisyExamples/DaisySP//Source/Utility/dsp.h" 1
 2164 0086 85FE265A 		vmaxnm.f32 s10, s10, s13
 2165              	@ 0 "" 2
 2166              		.thumb
 2167              		.syntax unified
 2168              	.LBE653:
 2169              	.LBE652:
 2170              	.LBE658:
 2171              	.LBE664:
 2172              	.LBE697:
 2173              	.LBB698:
 2174              	.LBB686:
 2175              		.loc 13 245 20 view .LVU486
 2176 008a 84ED053A 		vstr.32	s6, [r4, #20]
 2177              	.LBE686:
 2178              	.LBE698:
 2179              	.LBB699:
 2180              	.LBB665:
 2181              	.LBB659:
 2182              	.LBB655:
 2183              	.LBB650:
  47:../../DaisyExamples/DaisySP//Source/Utility/dsp.h **** #else
 2184              		.loc 17 47 5 view .LVU487
 2185              		.syntax unified
 2186              	@ 47 "../../DaisyExamples/DaisySP//Source/Utility/dsp.h" 1
 2187 008e 85FE635A 		vminnm.f32 s10, s10, s7
 2188              	@ 0 "" 2
 2189              		.thumb
 2190              		.syntax unified
 2191              	.LBE650:
 2192              	.LBE655:
 2193              	.LBE659:
 2194              	.LBE665:
 2195              	.LBE699:
 2196              	.LBB700:
 2197              	.LBB641:
 235:../../DaisyExamples/DaisySP//Source/Drums/hihat.h ****         decay_ -= 1.2;
 2198              		.loc 13 235 16 view .LVU488
 2199 0092 B7EEC77B 		vcvt.f32.f64	s14, d7
 2200              	.LBE641:
 2201              	.LBE700:
 2202              	.LBB701:
 2203              	.LBB666:
 221:../../DaisyExamples/DaisySP//Source/Drums/hihat.h ****     }
 2204              		.loc 13 221 13 view .LVU489
 2205 0096 84ED025A 		vstr.32	s10, [r4, #8]
 2206              	.LBE666:
ARM GAS  /var/folders/b5/3l92j93d5t1__l78tfntmwyr0000gn/T//ccd9zsAq.s 			page 65


 2207              	.LBE701:
 2208              	.LBB702:
 2209              	.LBB703:
 213:../../DaisyExamples/DaisySP//Source/Drums/hihat.h **** 
 2210              		.loc 13 213 44 view .LVU490
 2211 009a 84ED016A 		vstr.32	s12, [r4, #4]
 2212              	.LBE703:
 2213              	.LBE702:
 2214              	.LBB712:
 2215              	.LBB713:
 2216              	.LBB714:
 2217              	.LBB715:
 2218              	.LBB716:
  36:../../DaisyExamples/DaisySP//Source/Utility/dsp.h **** #else
 2219              		.loc 17 36 5 view .LVU491
 2220 009e F6EE005A 		vmov.f32	s11, #5.0e-1
 2221              	.LBE716:
 2222              	.LBE715:
 2223              	.LBE714:
 2224              	.LBE713:
 2225              	.LBE712:
 2226              	.LBB730:
 2227              	.LBB692:
 208:../../DaisyExamples/DaisySP//Source/Drums/hihat.h **** 
 2228              		.loc 13 208 46 view .LVU492
 2229 00a2 2383     		strh	r3, [r4, #24]	@ movhi
 2230              	.LBE692:
 2231              	.LBE730:
 2232              	.LBB731:
 2233              	.LBB642:
 236:../../DaisyExamples/DaisySP//Source/Drums/hihat.h ****     }
 2234              		.loc 13 236 16 view .LVU493
 2235 00a4 B7EEC77A 		vcvt.f64.f32	d7, s14
 2236              	.LBE642:
 2237              	.LBE731:
 120:../../DaisyExamples/DaisySP//Source/Drums/hihat.h **** 
 2238              		.loc 13 120 22 view .LVU494
 2239 00a8 84ED008A 		vstr.32	s16, [r4]
 2240              	.LBB732:
 2241              	.LBB726:
 2242              	.LBB723:
 2243              	.LBB719:
 2244              	.LBB717:
  36:../../DaisyExamples/DaisySP//Source/Utility/dsp.h **** #else
 2245              		.loc 17 36 5 view .LVU495
 2246              		.syntax unified
 2247              	@ 36 "../../DaisyExamples/DaisySP//Source/Utility/dsp.h" 1
 2248 00ac C5FEA65A 		vmaxnm.f32 s11, s11, s13
 2249              	@ 0 "" 2
 2250              	.LVL84:
  36:../../DaisyExamples/DaisySP//Source/Utility/dsp.h **** #else
 2251              		.loc 17 36 5 view .LVU496
 2252              		.thumb
 2253              		.syntax unified
 2254              	.LBE717:
 2255              	.LBE719:
 2256              	.LBE723:
ARM GAS  /var/folders/b5/3l92j93d5t1__l78tfntmwyr0000gn/T//ccd9zsAq.s 			page 66


 2257              	.LBE726:
 2258              	.LBE732:
 2259              	.LBB733:
 2260              	.LBI645:
 218:../../DaisyExamples/DaisySP//Source/Drums/hihat.h ****     {
 2261              		.loc 13 218 10 is_stmt 1 view .LVU497
 2262              	.LBB667:
 2263              	.LBB660:
 2264              	.LBI647:
  56:../../DaisyExamples/DaisySP//Source/Utility/dsp.h **** {
 2265              		.loc 17 56 14 view .LVU498
 2266              	.LBE660:
 2267              	.LBE667:
 2268              	.LBE733:
 2269              	.LBE745:
 2270              	.LBE750:
 2271              		.loc 17 58 5 view .LVU499
 2272              	.LBB751:
 2273              	.LBB746:
 2274              	.LBB734:
 2275              	.LBB668:
 2276              	.LBB661:
 2277              	.LBB656:
 2278              	.LBI652:
  32:../../DaisyExamples/DaisySP//Source/Utility/dsp.h **** {
 2279              		.loc 17 32 14 view .LVU500
 2280              	.LBB654:
  34:../../DaisyExamples/DaisySP//Source/Utility/dsp.h **** #ifdef __arm__
 2281              		.loc 17 34 5 view .LVU501
  36:../../DaisyExamples/DaisySP//Source/Utility/dsp.h **** #else
 2282              		.loc 17 36 5 view .LVU502
  40:../../DaisyExamples/DaisySP//Source/Utility/dsp.h **** }
 2283              		.loc 17 40 5 view .LVU503
  40:../../DaisyExamples/DaisySP//Source/Utility/dsp.h **** }
 2284              		.loc 17 40 5 is_stmt 0 view .LVU504
 2285              	.LBE654:
 2286              	.LBE656:
 2287              	.LBB657:
 2288              	.LBI648:
  43:../../DaisyExamples/DaisySP//Source/Utility/dsp.h **** {
 2289              		.loc 17 43 14 is_stmt 1 view .LVU505
 2290              	.LBB651:
  45:../../DaisyExamples/DaisySP//Source/Utility/dsp.h **** #ifdef __arm__
 2291              		.loc 17 45 5 view .LVU506
  47:../../DaisyExamples/DaisySP//Source/Utility/dsp.h **** #else
 2292              		.loc 17 47 5 view .LVU507
  51:../../DaisyExamples/DaisySP//Source/Utility/dsp.h **** }
 2293              		.loc 17 51 5 view .LVU508
  51:../../DaisyExamples/DaisySP//Source/Utility/dsp.h **** }
 2294              		.loc 17 51 5 is_stmt 0 view .LVU509
 2295              	.LBE651:
 2296              	.LBE657:
 2297              	.LBE661:
 2298              	.LBE668:
 2299              	.LBE734:
 2300              	.LBB735:
 2301              	.LBI712:
ARM GAS  /var/folders/b5/3l92j93d5t1__l78tfntmwyr0000gn/T//ccd9zsAq.s 			page 67


 227:../../DaisyExamples/DaisySP//Source/Drums/hihat.h **** 
 2302              		.loc 13 227 10 is_stmt 1 view .LVU510
 2303              	.LBB727:
 2304              	.LBB724:
 2305              	.LBI714:
  56:../../DaisyExamples/DaisySP//Source/Utility/dsp.h **** {
 2306              		.loc 17 56 14 view .LVU511
 2307              	.LBE724:
 2308              	.LBE727:
 2309              	.LBE735:
 2310              	.LBE746:
 2311              	.LBE751:
 2312              		.loc 17 58 5 view .LVU512
 2313              	.LBB752:
 2314              	.LBB747:
 2315              	.LBB736:
 2316              	.LBB728:
 2317              	.LBB725:
 2318              	.LBB720:
 2319              	.LBI715:
  32:../../DaisyExamples/DaisySP//Source/Utility/dsp.h **** {
 2320              		.loc 17 32 14 view .LVU513
 2321              	.LBB718:
  34:../../DaisyExamples/DaisySP//Source/Utility/dsp.h **** #ifdef __arm__
 2322              		.loc 17 34 5 view .LVU514
  36:../../DaisyExamples/DaisySP//Source/Utility/dsp.h **** #else
 2323              		.loc 17 36 5 view .LVU515
  40:../../DaisyExamples/DaisySP//Source/Utility/dsp.h **** }
 2324              		.loc 17 40 5 view .LVU516
  40:../../DaisyExamples/DaisySP//Source/Utility/dsp.h **** }
 2325              		.loc 17 40 5 is_stmt 0 view .LVU517
 2326              	.LBE718:
 2327              	.LBE720:
 2328              	.LBB721:
 2329              	.LBI721:
  43:../../DaisyExamples/DaisySP//Source/Utility/dsp.h **** {
 2330              		.loc 17 43 14 is_stmt 1 view .LVU518
 2331              	.LBB722:
  45:../../DaisyExamples/DaisySP//Source/Utility/dsp.h **** #ifdef __arm__
 2332              		.loc 17 45 5 view .LVU519
  47:../../DaisyExamples/DaisySP//Source/Utility/dsp.h **** #else
 2333              		.loc 17 47 5 view .LVU520
 2334              		.syntax unified
 2335              	@ 47 "../../DaisyExamples/DaisySP//Source/Utility/dsp.h" 1
 2336 00b0 C5FEE35A 		vminnm.f32 s11, s11, s7
 2337              	@ 0 "" 2
 2338              	.LVL85:
  51:../../DaisyExamples/DaisySP//Source/Utility/dsp.h **** }
 2339              		.loc 17 51 5 view .LVU521
  51:../../DaisyExamples/DaisySP//Source/Utility/dsp.h **** }
 2340              		.loc 17 51 5 is_stmt 0 view .LVU522
 2341              		.thumb
 2342              		.syntax unified
 2343              	.LBE722:
 2344              	.LBE721:
 2345              	.LBE725:
 2346              	.LBE728:
ARM GAS  /var/folders/b5/3l92j93d5t1__l78tfntmwyr0000gn/T//ccd9zsAq.s 			page 68


 2347              	.LBE736:
 2348              	.LBB737:
 2349              	.LBB643:
 236:../../DaisyExamples/DaisySP//Source/Drums/hihat.h ****     }
 2350              		.loc 13 236 16 view .LVU523
 2351 00b4 37EE447B 		vsub.f64	d7, d7, d4
 2352              	.LBE643:
 2353              	.LBE737:
 2354              	.LBB738:
 2355              	.LBB729:
 227:../../DaisyExamples/DaisySP//Source/Drums/hihat.h **** 
 2356              		.loc 13 227 38 view .LVU524
 2357 00b8 C4ED035A 		vstr.32	s11, [r4, #12]
 2358              	.LVL86:
 227:../../DaisyExamples/DaisySP//Source/Drums/hihat.h **** 
 2359              		.loc 13 227 38 view .LVU525
 2360              	.LBE729:
 2361              	.LBE738:
 2362              	.LBB739:
 2363              	.LBI631:
 232:../../DaisyExamples/DaisySP//Source/Drums/hihat.h ****     {
 2364              		.loc 13 232 10 is_stmt 1 view .LVU526
 2365              	.LBB644:
 2366              	.LBB638:
 2367              	.LBI633:
  32:../../DaisyExamples/DaisySP//Source/Utility/dsp.h **** {
 2368              		.loc 17 32 14 view .LVU527
 2369              	.LBB636:
  34:../../DaisyExamples/DaisySP//Source/Utility/dsp.h **** #ifdef __arm__
 2370              		.loc 17 34 5 view .LVU528
  36:../../DaisyExamples/DaisySP//Source/Utility/dsp.h **** #else
 2371              		.loc 17 36 5 view .LVU529
  40:../../DaisyExamples/DaisySP//Source/Utility/dsp.h **** }
 2372              		.loc 17 40 5 view .LVU530
  40:../../DaisyExamples/DaisySP//Source/Utility/dsp.h **** }
 2373              		.loc 17 40 5 is_stmt 0 view .LVU531
 2374              	.LBE636:
 2375              	.LBE638:
 236:../../DaisyExamples/DaisySP//Source/Drums/hihat.h ****     }
 2376              		.loc 13 236 16 view .LVU532
 2377 00bc B7EEC77B 		vcvt.f32.f64	s14, d7
 2378 00c0 84ED047A 		vstr.32	s14, [r4, #16]
 2379              	.LVL87:
 236:../../DaisyExamples/DaisySP//Source/Drums/hihat.h ****     }
 2380              		.loc 13 236 16 view .LVU533
 2381              	.LBE644:
 2382              	.LBE739:
 2383              	.LBB740:
 2384              	.LBI670:
 242:../../DaisyExamples/DaisySP//Source/Drums/hihat.h ****     {
 2385              		.loc 13 242 10 is_stmt 1 view .LVU534
 2386              	.LBB687:
 2387              	.LBB682:
 2388              	.LBI672:
  56:../../DaisyExamples/DaisySP//Source/Utility/dsp.h **** {
 2389              		.loc 17 56 14 view .LVU535
 2390              	.LBE682:
ARM GAS  /var/folders/b5/3l92j93d5t1__l78tfntmwyr0000gn/T//ccd9zsAq.s 			page 69


 2391              	.LBE687:
 2392              	.LBE740:
 2393              	.LBE747:
 2394              	.LBE752:
 2395              		.loc 17 58 5 view .LVU536
 2396              	.LBB753:
 2397              	.LBB748:
 2398              	.LBB741:
 2399              	.LBB688:
 2400              	.LBB683:
 2401              	.LBB679:
 2402              	.LBI673:
  32:../../DaisyExamples/DaisySP//Source/Utility/dsp.h **** {
 2403              		.loc 17 32 14 view .LVU537
 2404              	.LBB675:
  34:../../DaisyExamples/DaisySP//Source/Utility/dsp.h **** #ifdef __arm__
 2405              		.loc 17 34 5 view .LVU538
  36:../../DaisyExamples/DaisySP//Source/Utility/dsp.h **** #else
 2406              		.loc 17 36 5 view .LVU539
  40:../../DaisyExamples/DaisySP//Source/Utility/dsp.h **** }
 2407              		.loc 17 40 5 view .LVU540
  40:../../DaisyExamples/DaisySP//Source/Utility/dsp.h **** }
 2408              		.loc 17 40 5 is_stmt 0 view .LVU541
 2409              	.LBE675:
 2410              	.LBE679:
 2411              	.LBB680:
 2412              	.LBI676:
  43:../../DaisyExamples/DaisySP//Source/Utility/dsp.h **** {
 2413              		.loc 17 43 14 is_stmt 1 view .LVU542
 2414              	.LBB678:
  45:../../DaisyExamples/DaisySP//Source/Utility/dsp.h **** #ifdef __arm__
 2415              		.loc 17 45 5 view .LVU543
  47:../../DaisyExamples/DaisySP//Source/Utility/dsp.h **** #else
 2416              		.loc 17 47 5 view .LVU544
  51:../../DaisyExamples/DaisySP//Source/Utility/dsp.h **** }
 2417              		.loc 17 51 5 view .LVU545
  51:../../DaisyExamples/DaisySP//Source/Utility/dsp.h **** }
 2418              		.loc 17 51 5 is_stmt 0 view .LVU546
 2419              	.LBE678:
 2420              	.LBE680:
 2421              	.LBE683:
 2422              	.LBE688:
 2423              	.LBE741:
 2424              	.LBB742:
 2425              	.LBI702:
 213:../../DaisyExamples/DaisySP//Source/Drums/hihat.h **** 
 2426              		.loc 13 213 10 is_stmt 1 view .LVU547
 2427              	.LBB710:
 2428              	.LBB704:
 2429              	.LBI704:
  56:../../DaisyExamples/DaisySP//Source/Utility/dsp.h **** {
 2430              		.loc 17 56 14 view .LVU548
 2431              	.LBE704:
 2432              	.LBE710:
 2433              	.LBE742:
 2434              	.LBE748:
 2435              	.LBE753:
ARM GAS  /var/folders/b5/3l92j93d5t1__l78tfntmwyr0000gn/T//ccd9zsAq.s 			page 70


 2436              		.loc 17 58 5 view .LVU549
 2437              	.LBB754:
 2438              	.LBB749:
 2439              	.LBB743:
 2440              	.LBB711:
 2441              	.LBB709:
 2442              	.LBB705:
 2443              	.LBI705:
  32:../../DaisyExamples/DaisySP//Source/Utility/dsp.h **** {
 2444              		.loc 17 32 14 view .LVU550
 2445              	.LBB706:
  34:../../DaisyExamples/DaisySP//Source/Utility/dsp.h **** #ifdef __arm__
 2446              		.loc 17 34 5 view .LVU551
  36:../../DaisyExamples/DaisySP//Source/Utility/dsp.h **** #else
 2447              		.loc 17 36 5 view .LVU552
  40:../../DaisyExamples/DaisySP//Source/Utility/dsp.h **** }
 2448              		.loc 17 40 5 view .LVU553
  40:../../DaisyExamples/DaisySP//Source/Utility/dsp.h **** }
 2449              		.loc 17 40 5 is_stmt 0 view .LVU554
 2450              	.LBE706:
 2451              	.LBE705:
 2452              	.LBB707:
 2453              	.LBI707:
  43:../../DaisyExamples/DaisySP//Source/Utility/dsp.h **** {
 2454              		.loc 17 43 14 is_stmt 1 view .LVU555
 2455              	.LBB708:
  45:../../DaisyExamples/DaisySP//Source/Utility/dsp.h **** #ifdef __arm__
 2456              		.loc 17 45 5 view .LVU556
  47:../../DaisyExamples/DaisySP//Source/Utility/dsp.h **** #else
 2457              		.loc 17 47 5 view .LVU557
  51:../../DaisyExamples/DaisySP//Source/Utility/dsp.h **** }
 2458              		.loc 17 51 5 view .LVU558
  51:../../DaisyExamples/DaisySP//Source/Utility/dsp.h **** }
 2459              		.loc 17 51 5 is_stmt 0 view .LVU559
 2460              	.LBE708:
 2461              	.LBE707:
 2462              	.LBE709:
 2463              	.LBE711:
 2464              	.LBE743:
 2465              	.LBB744:
 2466              	.LBI690:
 208:../../DaisyExamples/DaisySP//Source/Drums/hihat.h **** 
 2467              		.loc 13 208 10 is_stmt 1 view .LVU560
 208:../../DaisyExamples/DaisySP//Source/Drums/hihat.h **** 
 2468              		.loc 13 208 10 is_stmt 0 view .LVU561
 2469              	.LBE744:
 136:../../DaisyExamples/DaisySP//Source/Drums/hihat.h ****         noise_coloration_svf_.Init(sample_rate_);
 2470              		.loc 13 136 29 view .LVU562
 2471 00c4 FFF7FEFF 		bl	_ZN7daisysp11SquareNoise4InitEf
 2472              	.LVL88:
 137:../../DaisyExamples/DaisySP//Source/Drums/hihat.h ****         hpf_.Init(sample_rate_);
 2473              		.loc 13 137 35 view .LVU563
 2474 00c8 2046     		mov	r0, r4
 2475 00ca 94ED000A 		vldr.32	s0, [r4]
 2476 00ce 4430     		adds	r0, r0, #68
 2477 00d0 FFF7FEFF 		bl	_ZN7daisysp3Svf4InitEf
 2478              	.LVL89:
ARM GAS  /var/folders/b5/3l92j93d5t1__l78tfntmwyr0000gn/T//ccd9zsAq.s 			page 71


 138:../../DaisyExamples/DaisySP//Source/Drums/hihat.h ****     }
 2479              		.loc 13 138 18 view .LVU564
 2480 00d4 2046     		mov	r0, r4
 2481 00d6 94ED000A 		vldr.32	s0, [r4]
 2482 00da 9030     		adds	r0, r0, #144
 2483 00dc FFF7FEFF 		bl	_ZN7daisysp3Svf4InitEf
 2484              	.LVL90:
 138:../../DaisyExamples/DaisySP//Source/Drums/hihat.h ****     }
 2485              		.loc 13 138 18 view .LVU565
 2486              	.LBE749:
 2487              	.LBE754:
 186:MachineDaisyFile.cpp **** 	synthKick.Init(fs);
 2488              		.loc 16 186 2 is_stmt 1 view .LVU566
 2489              		.loc 16 186 16 is_stmt 0 view .LVU567
 2490 00e0 B0EE480A 		vmov.f32	s0, s16
 2491 00e4 1148     		ldr	r0, .L125+52
 187:MachineDaisyFile.cpp **** }
 2492              		.loc 16 187 1 view .LVU568
 2493 00e6 BDEC028B 		vldm	sp!, {d8}
 2494              		.cfi_restore 80
 2495              		.cfi_restore 81
 2496              		.cfi_def_cfa_offset 8
 2497              	.LVL91:
 2498              		.loc 16 187 1 view .LVU569
 2499 00ea BDE81040 		pop	{r4, lr}
 2500              		.cfi_restore 14
 2501              		.cfi_restore 4
 2502              		.cfi_def_cfa_offset 0
 186:MachineDaisyFile.cpp **** 	synthKick.Init(fs);
 2503              		.loc 16 186 16 view .LVU570
 2504 00ee FFF7FEBF 		b	_ZN7daisysp17SyntheticBassDrum4InitEf
 2505              	.LVL92:
 2506              	.L126:
 186:MachineDaisyFile.cpp **** 	synthKick.Init(fs);
 2507              		.loc 16 186 16 view .LVU571
 2508 00f2 00BFAFF3 		.align	3
 2508      0080
 2509              	.L125:
 2510 00f8 33333333 		.word	858993459
 2511 00fc 3333FB3F 		.word	1073427251
 2512 0100 33333333 		.word	858993459
 2513 0104 3333F33F 		.word	1072902963
 2514 0108 00000000 		.word	.LANCHOR5
 2515 010c 00000000 		.word	.LANCHOR11
 2516 0110 00000000 		.word	.LANCHOR19
 2517 0114 00000000 		.word	.LANCHOR10
 2518 0118 00000000 		.word	.LANCHOR20
 2519 011c 00000000 		.word	0
 2520 0120 CDCC4C3E 		.word	1045220557
 2521 0124 CDCC4C3F 		.word	1061997773
 2522 0128 00803B45 		.word	1161527296
 2523 012c 00000000 		.word	.LANCHOR12
 2524              		.cfi_endproc
 2525              	.LFE4859:
 2527              		.section	.text._Z12initControlsv,"ax",%progbits
 2528              		.align	1
 2529              		.p2align 2,,3
ARM GAS  /var/folders/b5/3l92j93d5t1__l78tfntmwyr0000gn/T//ccd9zsAq.s 			page 72


 2530              		.global	_Z12initControlsv
 2531              		.syntax unified
 2532              		.thumb
 2533              		.thumb_func
 2535              	_Z12initControlsv:
 2536              	.LFB4860:
 188:MachineDaisyFile.cpp **** //====================================================================================
 189:MachineDaisyFile.cpp **** // initializes all buttons and drum classes
 190:MachineDaisyFile.cpp **** void initControls()
 191:MachineDaisyFile.cpp **** {
 2537              		.loc 16 191 1 is_stmt 1 view -0
 2538              		.cfi_startproc
 2539              		@ args = 0, pretend = 0, frame = 72
 2540              		@ frame_needed = 0, uses_anonymous_args = 0
 192:MachineDaisyFile.cpp **** 	selector.Init(SELECTOR,hw.AudioCallbackRate());
 2541              		.loc 16 192 2 view .LVU573
 2542              	.LVL93:
 2543              	.LBB755:
 2544              	.LBI755:
 2545              		.file 18 "../../DaisyExamples/libDaisy//src/daisy_core.h"
   1:../../DaisyExamples/libDaisy//src/daisy_core.h **** #pragma once
   2:../../DaisyExamples/libDaisy//src/daisy_core.h **** #ifndef DSY_CORE_HW_H
   3:../../DaisyExamples/libDaisy//src/daisy_core.h **** #define DSY_CORE_HW_H /**< & */
   4:../../DaisyExamples/libDaisy//src/daisy_core.h **** #include <stdint.h>
   5:../../DaisyExamples/libDaisy//src/daisy_core.h **** #include <stdlib.h>
   6:../../DaisyExamples/libDaisy//src/daisy_core.h **** 
   7:../../DaisyExamples/libDaisy//src/daisy_core.h **** #if defined(_MSC_VER)
   8:../../DaisyExamples/libDaisy//src/daisy_core.h **** #define FORCE_INLINE __forceinline /**< & */
   9:../../DaisyExamples/libDaisy//src/daisy_core.h **** #elif defined(__clang__)
  10:../../DaisyExamples/libDaisy//src/daisy_core.h **** #define FORCE_INLINE inline __attribute__((always_inline)) /**< & */
  11:../../DaisyExamples/libDaisy//src/daisy_core.h **** #pragma clang diagnostic ignored "-Wduplicate-decl-specifier"
  12:../../DaisyExamples/libDaisy//src/daisy_core.h **** #elif defined(__GNUC__)
  13:../../DaisyExamples/libDaisy//src/daisy_core.h **** #define FORCE_INLINE inline __attribute__((always_inline)) /**< & */
  14:../../DaisyExamples/libDaisy//src/daisy_core.h **** #else
  15:../../DaisyExamples/libDaisy//src/daisy_core.h **** #error unknown compiler
  16:../../DaisyExamples/libDaisy//src/daisy_core.h **** #endif
  17:../../DaisyExamples/libDaisy//src/daisy_core.h **** 
  18:../../DaisyExamples/libDaisy//src/daisy_core.h **** /** @addtogroup utility
  19:../../DaisyExamples/libDaisy//src/daisy_core.h ****     @{
  20:../../DaisyExamples/libDaisy//src/daisy_core.h **** */
  21:../../DaisyExamples/libDaisy//src/daisy_core.h **** 
  22:../../DaisyExamples/libDaisy//src/daisy_core.h **** /** Macro for area of memory that is configured as cacheless
  23:../../DaisyExamples/libDaisy//src/daisy_core.h **** This should be used primarily for DMA buffers, and the like.
  24:../../DaisyExamples/libDaisy//src/daisy_core.h **** */
  25:../../DaisyExamples/libDaisy//src/daisy_core.h **** #define DMA_BUFFER_MEM_SECTION __attribute__((section(".sram1_bss")))
  26:../../DaisyExamples/libDaisy//src/daisy_core.h **** /** 
  27:../../DaisyExamples/libDaisy//src/daisy_core.h **** THE DTCM RAM section is also non-cached. However, is not suitable 
  28:../../DaisyExamples/libDaisy//src/daisy_core.h **** for DMA transfers. Performance is on par with internal SRAM w/ 
  29:../../DaisyExamples/libDaisy//src/daisy_core.h **** cache enabled.
  30:../../DaisyExamples/libDaisy//src/daisy_core.h **** */
  31:../../DaisyExamples/libDaisy//src/daisy_core.h **** #define DTCM_MEM_SECTION __attribute__((section(".dtcmram_bss")))
  32:../../DaisyExamples/libDaisy//src/daisy_core.h **** 
  33:../../DaisyExamples/libDaisy//src/daisy_core.h **** #define FBIPMAX 0.999985f             /**< close to 1.0f-LSB at 16 bit */
  34:../../DaisyExamples/libDaisy//src/daisy_core.h **** #define FBIPMIN (-FBIPMAX)            /**< - (1 - LSB) */
  35:../../DaisyExamples/libDaisy//src/daisy_core.h **** #define U82F_SCALE 0.0078740f         /**< 1 / 127 */
  36:../../DaisyExamples/libDaisy//src/daisy_core.h **** #define F2U8_SCALE 127.0f             /**< 128 - 1 */
  37:../../DaisyExamples/libDaisy//src/daisy_core.h **** #define S82F_SCALE 0.0078125f         /**< 1 / (2**7) */
ARM GAS  /var/folders/b5/3l92j93d5t1__l78tfntmwyr0000gn/T//ccd9zsAq.s 			page 73


  38:../../DaisyExamples/libDaisy//src/daisy_core.h **** #define F2S8_SCALE 127.0f             /**< (2 ** 7) - 1 */
  39:../../DaisyExamples/libDaisy//src/daisy_core.h **** #define S162F_SCALE 3.0517578125e-05f /**< 1 / (2** 15) */
  40:../../DaisyExamples/libDaisy//src/daisy_core.h **** #define F2S16_SCALE 32767.0f          /**< (2 ** 15) - 1 */
  41:../../DaisyExamples/libDaisy//src/daisy_core.h **** #define F2S24_SCALE 8388608.0f        /**< 2 ** 23 */
  42:../../DaisyExamples/libDaisy//src/daisy_core.h **** #define S242F_SCALE 1.192092896e-07f  /**< 1 / (2 ** 23) */
  43:../../DaisyExamples/libDaisy//src/daisy_core.h **** #define S24SIGN 0x800000              /**< 2 ** 23 */
  44:../../DaisyExamples/libDaisy//src/daisy_core.h **** #define S322F_SCALE 4.6566129e-10f    /**< 1 / (2** 31) */
  45:../../DaisyExamples/libDaisy//src/daisy_core.h **** #define F2S32_SCALE 2147483647.f      /**< (2 ** 31) - 1 */
  46:../../DaisyExamples/libDaisy//src/daisy_core.h **** 
  47:../../DaisyExamples/libDaisy//src/daisy_core.h **** 
  48:../../DaisyExamples/libDaisy//src/daisy_core.h **** /** shorthand macro for simplifying the reading of the left 
  49:../../DaisyExamples/libDaisy//src/daisy_core.h ****  *  channel of a non-interleaved output buffer named out */
  50:../../DaisyExamples/libDaisy//src/daisy_core.h **** #define OUT_L out[0]
  51:../../DaisyExamples/libDaisy//src/daisy_core.h **** 
  52:../../DaisyExamples/libDaisy//src/daisy_core.h **** /** shorthand macro for simplifying the reading of the right 
  53:../../DaisyExamples/libDaisy//src/daisy_core.h ****  *  channel of a non-interleaved output buffer named out */
  54:../../DaisyExamples/libDaisy//src/daisy_core.h **** #define OUT_R out[1]
  55:../../DaisyExamples/libDaisy//src/daisy_core.h **** 
  56:../../DaisyExamples/libDaisy//src/daisy_core.h **** /** shorthand macro for simplifying the reading of the left 
  57:../../DaisyExamples/libDaisy//src/daisy_core.h ****  *  channel of a non-interleaved input buffer named in */
  58:../../DaisyExamples/libDaisy//src/daisy_core.h **** #define IN_L in[0]
  59:../../DaisyExamples/libDaisy//src/daisy_core.h **** 
  60:../../DaisyExamples/libDaisy//src/daisy_core.h **** /** shorthand macro for simplifying the reading of the right 
  61:../../DaisyExamples/libDaisy//src/daisy_core.h ****  *  channel of a non-interleaved input buffer named in */
  62:../../DaisyExamples/libDaisy//src/daisy_core.h **** #define IN_R in[1]
  63:../../DaisyExamples/libDaisy//src/daisy_core.h **** 
  64:../../DaisyExamples/libDaisy//src/daisy_core.h **** /** 
  65:../../DaisyExamples/libDaisy//src/daisy_core.h ****     Computes cube.
  66:../../DaisyExamples/libDaisy//src/daisy_core.h ****     \param x Number to be cubed
  67:../../DaisyExamples/libDaisy//src/daisy_core.h ****     \return x ^ 3
  68:../../DaisyExamples/libDaisy//src/daisy_core.h **** */
  69:../../DaisyExamples/libDaisy//src/daisy_core.h **** FORCE_INLINE float cube(float x)
  70:../../DaisyExamples/libDaisy//src/daisy_core.h **** {
  71:../../DaisyExamples/libDaisy//src/daisy_core.h ****     return (x * x) * x;
  72:../../DaisyExamples/libDaisy//src/daisy_core.h **** }
  73:../../DaisyExamples/libDaisy//src/daisy_core.h **** 
  74:../../DaisyExamples/libDaisy//src/daisy_core.h **** /** 
  75:../../DaisyExamples/libDaisy//src/daisy_core.h ****     Converts unsigned 8-bit to float
  76:../../DaisyExamples/libDaisy//src/daisy_core.h ****     \param x Number to be scaled.
  77:../../DaisyExamples/libDaisy//src/daisy_core.h ****     \return Scaled number.
  78:../../DaisyExamples/libDaisy//src/daisy_core.h **** */
  79:../../DaisyExamples/libDaisy//src/daisy_core.h **** FORCE_INLINE float u82f(uint8_t x)
  80:../../DaisyExamples/libDaisy//src/daisy_core.h **** {
  81:../../DaisyExamples/libDaisy//src/daisy_core.h ****     return ((float)x - 127.f) * U82F_SCALE;
  82:../../DaisyExamples/libDaisy//src/daisy_core.h **** }
  83:../../DaisyExamples/libDaisy//src/daisy_core.h **** 
  84:../../DaisyExamples/libDaisy//src/daisy_core.h **** /**
  85:../../DaisyExamples/libDaisy//src/daisy_core.h ****     Converts float to unsigned 8-bit
  86:../../DaisyExamples/libDaisy//src/daisy_core.h **** */
  87:../../DaisyExamples/libDaisy//src/daisy_core.h **** FORCE_INLINE uint8_t f2u8(float x)
  88:../../DaisyExamples/libDaisy//src/daisy_core.h **** {
  89:../../DaisyExamples/libDaisy//src/daisy_core.h ****     x = x <= FBIPMIN ? FBIPMIN : x;
  90:../../DaisyExamples/libDaisy//src/daisy_core.h ****     x = x >= FBIPMAX ? FBIPMAX : x;
  91:../../DaisyExamples/libDaisy//src/daisy_core.h ****     return (uint8_t)((x * F2U8_SCALE) + F2U8_SCALE);
  92:../../DaisyExamples/libDaisy//src/daisy_core.h **** }
  93:../../DaisyExamples/libDaisy//src/daisy_core.h **** 
  94:../../DaisyExamples/libDaisy//src/daisy_core.h **** 
ARM GAS  /var/folders/b5/3l92j93d5t1__l78tfntmwyr0000gn/T//ccd9zsAq.s 			page 74


  95:../../DaisyExamples/libDaisy//src/daisy_core.h **** /** 
  96:../../DaisyExamples/libDaisy//src/daisy_core.h ****     Converts Signed 8-bit to float
  97:../../DaisyExamples/libDaisy//src/daisy_core.h ****     \param x Number to be scaled.
  98:../../DaisyExamples/libDaisy//src/daisy_core.h ****     \return Scaled number.
  99:../../DaisyExamples/libDaisy//src/daisy_core.h **** */
 100:../../DaisyExamples/libDaisy//src/daisy_core.h **** FORCE_INLINE float s82f(int8_t x)
 101:../../DaisyExamples/libDaisy//src/daisy_core.h **** {
 102:../../DaisyExamples/libDaisy//src/daisy_core.h ****     return (float)x * S82F_SCALE;
 103:../../DaisyExamples/libDaisy//src/daisy_core.h **** }
 104:../../DaisyExamples/libDaisy//src/daisy_core.h **** 
 105:../../DaisyExamples/libDaisy//src/daisy_core.h **** /**
 106:../../DaisyExamples/libDaisy//src/daisy_core.h ****     Converts float to Signed 8-bit
 107:../../DaisyExamples/libDaisy//src/daisy_core.h **** */
 108:../../DaisyExamples/libDaisy//src/daisy_core.h **** FORCE_INLINE int8_t f2s8(float x)
 109:../../DaisyExamples/libDaisy//src/daisy_core.h **** {
 110:../../DaisyExamples/libDaisy//src/daisy_core.h ****     x = x <= FBIPMIN ? FBIPMIN : x;
 111:../../DaisyExamples/libDaisy//src/daisy_core.h ****     x = x >= FBIPMAX ? FBIPMAX : x;
 112:../../DaisyExamples/libDaisy//src/daisy_core.h ****     return (int32_t)(x * F2S8_SCALE);
 113:../../DaisyExamples/libDaisy//src/daisy_core.h **** }
 114:../../DaisyExamples/libDaisy//src/daisy_core.h **** 
 115:../../DaisyExamples/libDaisy//src/daisy_core.h **** /** 
 116:../../DaisyExamples/libDaisy//src/daisy_core.h ****     Converts Signed 16-bit to float
 117:../../DaisyExamples/libDaisy//src/daisy_core.h ****     \param x Number to be scaled.
 118:../../DaisyExamples/libDaisy//src/daisy_core.h ****     \return Scaled number.
 119:../../DaisyExamples/libDaisy//src/daisy_core.h **** */
 120:../../DaisyExamples/libDaisy//src/daisy_core.h **** FORCE_INLINE float s162f(int16_t x)
 121:../../DaisyExamples/libDaisy//src/daisy_core.h **** {
 122:../../DaisyExamples/libDaisy//src/daisy_core.h ****     return (float)x * S162F_SCALE;
 123:../../DaisyExamples/libDaisy//src/daisy_core.h **** }
 124:../../DaisyExamples/libDaisy//src/daisy_core.h **** 
 125:../../DaisyExamples/libDaisy//src/daisy_core.h **** /**
 126:../../DaisyExamples/libDaisy//src/daisy_core.h ****     Converts float to Signed 16-bit
 127:../../DaisyExamples/libDaisy//src/daisy_core.h **** */
 128:../../DaisyExamples/libDaisy//src/daisy_core.h **** FORCE_INLINE int16_t f2s16(float x)
 129:../../DaisyExamples/libDaisy//src/daisy_core.h **** {
 130:../../DaisyExamples/libDaisy//src/daisy_core.h ****     x = x <= FBIPMIN ? FBIPMIN : x;
 131:../../DaisyExamples/libDaisy//src/daisy_core.h ****     x = x >= FBIPMAX ? FBIPMAX : x;
 132:../../DaisyExamples/libDaisy//src/daisy_core.h ****     return (int32_t)(x * F2S16_SCALE);
 133:../../DaisyExamples/libDaisy//src/daisy_core.h **** }
 134:../../DaisyExamples/libDaisy//src/daisy_core.h **** 
 135:../../DaisyExamples/libDaisy//src/daisy_core.h **** /**
 136:../../DaisyExamples/libDaisy//src/daisy_core.h ****     Converts Signed 24-bit to float
 137:../../DaisyExamples/libDaisy//src/daisy_core.h ****  */
 138:../../DaisyExamples/libDaisy//src/daisy_core.h **** FORCE_INLINE float s242f(int32_t x)
 139:../../DaisyExamples/libDaisy//src/daisy_core.h **** {
 140:../../DaisyExamples/libDaisy//src/daisy_core.h ****     x = (x ^ S24SIGN) - S24SIGN; //sign extend aka ((x<<8)>>8)
 141:../../DaisyExamples/libDaisy//src/daisy_core.h ****     return (float)x * S242F_SCALE;
 142:../../DaisyExamples/libDaisy//src/daisy_core.h **** }
 143:../../DaisyExamples/libDaisy//src/daisy_core.h **** /**
 144:../../DaisyExamples/libDaisy//src/daisy_core.h ****     Converts float to Signed 24-bit
 145:../../DaisyExamples/libDaisy//src/daisy_core.h ****  */
 146:../../DaisyExamples/libDaisy//src/daisy_core.h **** FORCE_INLINE int32_t f2s24(float x)
 147:../../DaisyExamples/libDaisy//src/daisy_core.h **** {
 148:../../DaisyExamples/libDaisy//src/daisy_core.h ****     x = x <= FBIPMIN ? FBIPMIN : x;
 149:../../DaisyExamples/libDaisy//src/daisy_core.h ****     x = x >= FBIPMAX ? FBIPMAX : x;
 150:../../DaisyExamples/libDaisy//src/daisy_core.h ****     return (int32_t)(x * F2S24_SCALE);
 151:../../DaisyExamples/libDaisy//src/daisy_core.h **** }
ARM GAS  /var/folders/b5/3l92j93d5t1__l78tfntmwyr0000gn/T//ccd9zsAq.s 			page 75


 152:../../DaisyExamples/libDaisy//src/daisy_core.h **** 
 153:../../DaisyExamples/libDaisy//src/daisy_core.h **** /**
 154:../../DaisyExamples/libDaisy//src/daisy_core.h ****     Converts Signed 32-bit to float
 155:../../DaisyExamples/libDaisy//src/daisy_core.h ****  */
 156:../../DaisyExamples/libDaisy//src/daisy_core.h **** FORCE_INLINE float s322f(int32_t x)
 157:../../DaisyExamples/libDaisy//src/daisy_core.h **** {
 158:../../DaisyExamples/libDaisy//src/daisy_core.h ****     return (float)x * S322F_SCALE;
 159:../../DaisyExamples/libDaisy//src/daisy_core.h **** }
 160:../../DaisyExamples/libDaisy//src/daisy_core.h **** /**
 161:../../DaisyExamples/libDaisy//src/daisy_core.h ****     Converts float to Signed 24-bit
 162:../../DaisyExamples/libDaisy//src/daisy_core.h ****  */
 163:../../DaisyExamples/libDaisy//src/daisy_core.h **** FORCE_INLINE int32_t f2s32(float x)
 164:../../DaisyExamples/libDaisy//src/daisy_core.h **** {
 165:../../DaisyExamples/libDaisy//src/daisy_core.h ****     x = x <= FBIPMIN ? FBIPMIN : x;
 166:../../DaisyExamples/libDaisy//src/daisy_core.h ****     x = x >= FBIPMAX ? FBIPMAX : x;
 167:../../DaisyExamples/libDaisy//src/daisy_core.h ****     return (int32_t)(x * F2S32_SCALE);
 168:../../DaisyExamples/libDaisy//src/daisy_core.h **** }
 169:../../DaisyExamples/libDaisy//src/daisy_core.h **** 
 170:../../DaisyExamples/libDaisy//src/daisy_core.h **** 
 171:../../DaisyExamples/libDaisy//src/daisy_core.h **** /** Enums and a simple struct for defining a hardware pin on the MCU
 172:../../DaisyExamples/libDaisy//src/daisy_core.h ****  *  These correlate with the stm32 datasheet, and are used to configure
 173:../../DaisyExamples/libDaisy//src/daisy_core.h ****  *  the hardware.
 174:../../DaisyExamples/libDaisy//src/daisy_core.h ****  * 
 175:../../DaisyExamples/libDaisy//src/daisy_core.h ****  *  This along with the dsy_gpio_pin class should no longer be used.
 176:../../DaisyExamples/libDaisy//src/daisy_core.h ****  *  They are available for backwards compatability. 
 177:../../DaisyExamples/libDaisy//src/daisy_core.h ****  * 
 178:../../DaisyExamples/libDaisy//src/daisy_core.h ****  *  Please use GPIOPort enum and the Pin struct instead.
 179:../../DaisyExamples/libDaisy//src/daisy_core.h ****  */
 180:../../DaisyExamples/libDaisy//src/daisy_core.h **** typedef enum
 181:../../DaisyExamples/libDaisy//src/daisy_core.h **** {
 182:../../DaisyExamples/libDaisy//src/daisy_core.h ****     DSY_GPIOA, /**< & */
 183:../../DaisyExamples/libDaisy//src/daisy_core.h ****     DSY_GPIOB, /**< & */
 184:../../DaisyExamples/libDaisy//src/daisy_core.h ****     DSY_GPIOC, /**< & */
 185:../../DaisyExamples/libDaisy//src/daisy_core.h ****     DSY_GPIOD, /**< & */
 186:../../DaisyExamples/libDaisy//src/daisy_core.h ****     DSY_GPIOE, /**< & */
 187:../../DaisyExamples/libDaisy//src/daisy_core.h ****     DSY_GPIOF, /**< & */
 188:../../DaisyExamples/libDaisy//src/daisy_core.h ****     DSY_GPIOG, /**< & */
 189:../../DaisyExamples/libDaisy//src/daisy_core.h ****     DSY_GPIOH, /**< & */
 190:../../DaisyExamples/libDaisy//src/daisy_core.h ****     DSY_GPIOI, /**< & */
 191:../../DaisyExamples/libDaisy//src/daisy_core.h ****     DSY_GPIOJ, /**< & */
 192:../../DaisyExamples/libDaisy//src/daisy_core.h ****     DSY_GPIOK, /**< & */
 193:../../DaisyExamples/libDaisy//src/daisy_core.h ****     DSY_GPIOX, /** This is a non-existant port for unsupported bits of hardware. */
 194:../../DaisyExamples/libDaisy//src/daisy_core.h ****     DSY_GPIO_LAST, /** Final enum member */
 195:../../DaisyExamples/libDaisy//src/daisy_core.h **** } dsy_gpio_port;
 196:../../DaisyExamples/libDaisy//src/daisy_core.h **** 
 197:../../DaisyExamples/libDaisy//src/daisy_core.h **** /** Hardware define pins 
 198:../../DaisyExamples/libDaisy//src/daisy_core.h ****  *  
 199:../../DaisyExamples/libDaisy//src/daisy_core.h ****  *  The dsy_gpio_pin struct should no longer be used, and is only available for
 200:../../DaisyExamples/libDaisy//src/daisy_core.h ****  *  backwards compatability.
 201:../../DaisyExamples/libDaisy//src/daisy_core.h ****  * 
 202:../../DaisyExamples/libDaisy//src/daisy_core.h ****  *  Please use Pin struct instead.
 203:../../DaisyExamples/libDaisy//src/daisy_core.h ****  */
 204:../../DaisyExamples/libDaisy//src/daisy_core.h **** typedef struct
 205:../../DaisyExamples/libDaisy//src/daisy_core.h **** {
 206:../../DaisyExamples/libDaisy//src/daisy_core.h ****     dsy_gpio_port port; /**< & */
 207:../../DaisyExamples/libDaisy//src/daisy_core.h ****     uint8_t       pin;  /**< number 0-15 */
 208:../../DaisyExamples/libDaisy//src/daisy_core.h **** } dsy_gpio_pin;
ARM GAS  /var/folders/b5/3l92j93d5t1__l78tfntmwyr0000gn/T//ccd9zsAq.s 			page 76


 209:../../DaisyExamples/libDaisy//src/daisy_core.h **** 
 210:../../DaisyExamples/libDaisy//src/daisy_core.h **** /** Helper for creating pins from port/pin combos easily
 211:../../DaisyExamples/libDaisy//src/daisy_core.h ****  * 
 212:../../DaisyExamples/libDaisy//src/daisy_core.h ****  *  The dsy_gpio_pin struct should no longer be used, and is only available for
 213:../../DaisyExamples/libDaisy//src/daisy_core.h ****  *  backwards compatability.
 214:../../DaisyExamples/libDaisy//src/daisy_core.h ****  * 
 215:../../DaisyExamples/libDaisy//src/daisy_core.h ****  *  Please use Pin struct instead.
 216:../../DaisyExamples/libDaisy//src/daisy_core.h **** */
 217:../../DaisyExamples/libDaisy//src/daisy_core.h **** FORCE_INLINE dsy_gpio_pin dsy_pin(dsy_gpio_port port, uint8_t pin)
 218:../../DaisyExamples/libDaisy//src/daisy_core.h **** {
 219:../../DaisyExamples/libDaisy//src/daisy_core.h ****     dsy_gpio_pin p;
 220:../../DaisyExamples/libDaisy//src/daisy_core.h ****     p.port = port;
 221:../../DaisyExamples/libDaisy//src/daisy_core.h ****     p.pin  = pin;
 222:../../DaisyExamples/libDaisy//src/daisy_core.h ****     return p;
 223:../../DaisyExamples/libDaisy//src/daisy_core.h **** }
 224:../../DaisyExamples/libDaisy//src/daisy_core.h **** 
 225:../../DaisyExamples/libDaisy//src/daisy_core.h **** /** Helper for testing sameness of two dsy_gpio_pins
 226:../../DaisyExamples/libDaisy//src/daisy_core.h ****  *  \return    1 if same, 0 if different
 227:../../DaisyExamples/libDaisy//src/daisy_core.h ****  * 
 228:../../DaisyExamples/libDaisy//src/daisy_core.h ****  *  The dsy_gpio_pin struct should no longer be used, and is only available for
 229:../../DaisyExamples/libDaisy//src/daisy_core.h ****  *  backwards compatability.
 230:../../DaisyExamples/libDaisy//src/daisy_core.h ****  * 
 231:../../DaisyExamples/libDaisy//src/daisy_core.h ****  *  Please use Pin struct instead.
 232:../../DaisyExamples/libDaisy//src/daisy_core.h ****  */
 233:../../DaisyExamples/libDaisy//src/daisy_core.h **** FORCE_INLINE uint8_t dsy_pin_cmp(dsy_gpio_pin *a, dsy_gpio_pin *b)
 234:../../DaisyExamples/libDaisy//src/daisy_core.h **** {
 235:../../DaisyExamples/libDaisy//src/daisy_core.h ****     return ((a->port == b->port) && (a->pin == b->pin));
 236:../../DaisyExamples/libDaisy//src/daisy_core.h **** }
 237:../../DaisyExamples/libDaisy//src/daisy_core.h **** 
 238:../../DaisyExamples/libDaisy//src/daisy_core.h **** #ifdef __cplusplus
 239:../../DaisyExamples/libDaisy//src/daisy_core.h **** 
 240:../../DaisyExamples/libDaisy//src/daisy_core.h **** namespace daisy
 241:../../DaisyExamples/libDaisy//src/daisy_core.h **** {
 242:../../DaisyExamples/libDaisy//src/daisy_core.h **** /** @brief GPIO Port names */
 243:../../DaisyExamples/libDaisy//src/daisy_core.h **** enum GPIOPort
 244:../../DaisyExamples/libDaisy//src/daisy_core.h **** {
 245:../../DaisyExamples/libDaisy//src/daisy_core.h ****     PORTA, /**< Port A */
 246:../../DaisyExamples/libDaisy//src/daisy_core.h ****     PORTB, /**< Port B */
 247:../../DaisyExamples/libDaisy//src/daisy_core.h ****     PORTC, /**< Port C */
 248:../../DaisyExamples/libDaisy//src/daisy_core.h ****     PORTD, /**< Port D */
 249:../../DaisyExamples/libDaisy//src/daisy_core.h ****     PORTE, /**< Port E */
 250:../../DaisyExamples/libDaisy//src/daisy_core.h ****     PORTF, /**< Port F */
 251:../../DaisyExamples/libDaisy//src/daisy_core.h ****     PORTG, /**< Port G */
 252:../../DaisyExamples/libDaisy//src/daisy_core.h ****     PORTH, /**< Port H */
 253:../../DaisyExamples/libDaisy//src/daisy_core.h ****     PORTI, /**< Port I */
 254:../../DaisyExamples/libDaisy//src/daisy_core.h ****     PORTJ, /**< Port J */
 255:../../DaisyExamples/libDaisy//src/daisy_core.h ****     PORTK, /**< Port K */
 256:../../DaisyExamples/libDaisy//src/daisy_core.h ****     PORTX, /**< Used as a dummy port to signal an invalid pin. */
 257:../../DaisyExamples/libDaisy//src/daisy_core.h **** };
 258:../../DaisyExamples/libDaisy//src/daisy_core.h **** 
 259:../../DaisyExamples/libDaisy//src/daisy_core.h **** /** @brief representation of hardware port/pin combination */
 260:../../DaisyExamples/libDaisy//src/daisy_core.h **** struct Pin
 261:../../DaisyExamples/libDaisy//src/daisy_core.h **** {
 262:../../DaisyExamples/libDaisy//src/daisy_core.h ****     GPIOPort port;
 263:../../DaisyExamples/libDaisy//src/daisy_core.h ****     uint8_t  pin;
 264:../../DaisyExamples/libDaisy//src/daisy_core.h **** 
 265:../../DaisyExamples/libDaisy//src/daisy_core.h ****     /** @brief Constructor creates a valid pin. 
ARM GAS  /var/folders/b5/3l92j93d5t1__l78tfntmwyr0000gn/T//ccd9zsAq.s 			page 77


 266:../../DaisyExamples/libDaisy//src/daisy_core.h ****      *  @param pt GPIOPort between PA, and PK corresponding to STM32 Port.
 267:../../DaisyExamples/libDaisy//src/daisy_core.h ****      *  @param pn pin number in range of 0-15
 268:../../DaisyExamples/libDaisy//src/daisy_core.h ****     */
 269:../../DaisyExamples/libDaisy//src/daisy_core.h ****     constexpr Pin(const GPIOPort pt, const uint8_t pn) : port(pt), pin(pn) {}
 270:../../DaisyExamples/libDaisy//src/daisy_core.h **** 
 271:../../DaisyExamples/libDaisy//src/daisy_core.h ****     /** @brief Basic Constructor creates an invalid Pin object */
 272:../../DaisyExamples/libDaisy//src/daisy_core.h ****     constexpr Pin() : port(PORTX), pin(255) {}
 273:../../DaisyExamples/libDaisy//src/daisy_core.h **** 
 274:../../DaisyExamples/libDaisy//src/daisy_core.h ****     /** @brief checks validity of a Pin 
 275:../../DaisyExamples/libDaisy//src/daisy_core.h ****      *  @retval returns true if the port is a valid hardware pin, otherwise false.
 276:../../DaisyExamples/libDaisy//src/daisy_core.h ****     */
 277:../../DaisyExamples/libDaisy//src/daisy_core.h ****     constexpr bool IsValid() const { return port != PORTX && pin < 16; }
 278:../../DaisyExamples/libDaisy//src/daisy_core.h **** 
 279:../../DaisyExamples/libDaisy//src/daisy_core.h ****     /** @brief comparison operator for checking equality between Pin objects */
 280:../../DaisyExamples/libDaisy//src/daisy_core.h ****     constexpr bool operator==(const Pin &rhs) const
 281:../../DaisyExamples/libDaisy//src/daisy_core.h ****     {
 282:../../DaisyExamples/libDaisy//src/daisy_core.h ****         return (rhs.port == port) && (rhs.pin == pin);
 283:../../DaisyExamples/libDaisy//src/daisy_core.h ****     }
 284:../../DaisyExamples/libDaisy//src/daisy_core.h **** 
 285:../../DaisyExamples/libDaisy//src/daisy_core.h ****     /** @brief comparison operator for checking inequality between Pin objects */
 286:../../DaisyExamples/libDaisy//src/daisy_core.h ****     constexpr bool operator!=(const Pin &rhs) const { return !operator==(rhs); }
 287:../../DaisyExamples/libDaisy//src/daisy_core.h **** 
 288:../../DaisyExamples/libDaisy//src/daisy_core.h ****     /** @brief conversion operation for converting to the old-style representation
 289:../../DaisyExamples/libDaisy//src/daisy_core.h ****      *         of a pin.
 290:../../DaisyExamples/libDaisy//src/daisy_core.h ****      * 
 291:../../DaisyExamples/libDaisy//src/daisy_core.h ****      *  This allows the new Pin type to be used in place of the older, dsy_gpio_pin
 292:../../DaisyExamples/libDaisy//src/daisy_core.h ****      *  type.
 293:../../DaisyExamples/libDaisy//src/daisy_core.h ****      */
 294:../../DaisyExamples/libDaisy//src/daisy_core.h ****     operator dsy_gpio_pin() const
 2546              		.loc 18 294 5 view .LVU574
 2547              	.LBE755:
 295:../../DaisyExamples/libDaisy//src/daisy_core.h ****     {
 296:../../DaisyExamples/libDaisy//src/daisy_core.h ****         return dsy_pin(static_cast<dsy_gpio_port>(port), pin);
 2548              		.loc 18 296 9 view .LVU575
 2549              	.LBB757:
 2550              	.LBB756:
 2551              	.LBI756:
 217:../../DaisyExamples/libDaisy//src/daisy_core.h **** {
 2552              		.loc 18 217 27 view .LVU576
 2553              	.LBE756:
 2554              	.LBE757:
 219:../../DaisyExamples/libDaisy//src/daisy_core.h ****     p.port = port;
 2555              		.loc 18 219 5 view .LVU577
 220:../../DaisyExamples/libDaisy//src/daisy_core.h ****     p.pin  = pin;
 2556              		.loc 18 220 5 view .LVU578
 221:../../DaisyExamples/libDaisy//src/daisy_core.h ****     return p;
 2557              		.loc 18 221 5 view .LVU579
 222:../../DaisyExamples/libDaisy//src/daisy_core.h **** }
 2558              		.loc 18 222 5 view .LVU580
 191:MachineDaisyFile.cpp **** 	selector.Init(SELECTOR,hw.AudioCallbackRate());
 2559              		.loc 16 191 1 is_stmt 0 view .LVU581
 2560 0000 70B5     		push	{r4, r5, r6, lr}
 2561              		.cfi_def_cfa_offset 16
 2562              		.cfi_offset 4, -16
 2563              		.cfi_offset 5, -12
 2564              		.cfi_offset 6, -8
 2565              		.cfi_offset 14, -4
ARM GAS  /var/folders/b5/3l92j93d5t1__l78tfntmwyr0000gn/T//ccd9zsAq.s 			page 78


 2566              		.loc 16 192 15 view .LVU582
 2567 0002 234C     		ldr	r4, .L129
 191:MachineDaisyFile.cpp **** 	selector.Init(SELECTOR,hw.AudioCallbackRate());
 2568              		.loc 16 191 1 view .LVU583
 2569 0004 92B0     		sub	sp, sp, #72
 2570              		.cfi_def_cfa_offset 88
 2571 0006 0025     		movs	r5, #0
 2572 0008 0326     		movs	r6, #3
 2573              		.loc 16 192 15 view .LVU584
 2574 000a 2046     		mov	r0, r4
 2575 000c 8DF80050 		strb	r5, [sp]
 2576 0010 8DF80160 		strb	r6, [sp, #1]
 2577              	.LVL94:
 2578              		.loc 16 192 15 view .LVU585
 2579 0014 FFF7FEFF 		bl	_ZNK5daisy9DaisySeed17AudioCallbackRateEv
 2580              	.LVL95:
 2581 0018 0099     		ldr	r1, [sp]
 2582 001a 1E48     		ldr	r0, .L129+4
 2583 001c FFF7FEFF 		bl	_ZN5daisy6Switch4InitE12dsy_gpio_pinf
 2584              	.LVL96:
 193:MachineDaisyFile.cpp **** 	tapTempo.Init(TAP_TEMPO,hw.AudioCallbackRate());
 2585              		.loc 16 193 2 is_stmt 1 view .LVU586
 2586              	.LBB758:
 2587              	.LBI758:
 294:../../DaisyExamples/libDaisy//src/daisy_core.h ****     {
 2588              		.loc 18 294 5 view .LVU587
 2589              	.LBE758:
 2590              		.loc 18 296 9 view .LVU588
 2591              	.LBB760:
 2592              	.LBB759:
 2593              	.LBI759:
 217:../../DaisyExamples/libDaisy//src/daisy_core.h **** {
 2594              		.loc 18 217 27 view .LVU589
 2595              	.LBE759:
 2596              	.LBE760:
 219:../../DaisyExamples/libDaisy//src/daisy_core.h ****     p.port = port;
 2597              		.loc 18 219 5 view .LVU590
 220:../../DaisyExamples/libDaisy//src/daisy_core.h ****     p.pin  = pin;
 2598              		.loc 18 220 5 view .LVU591
 221:../../DaisyExamples/libDaisy//src/daisy_core.h ****     return p;
 2599              		.loc 18 221 5 view .LVU592
 222:../../DaisyExamples/libDaisy//src/daisy_core.h **** }
 2600              		.loc 18 222 5 view .LVU593
 222:../../DaisyExamples/libDaisy//src/daisy_core.h **** }
 2601              		.loc 18 222 5 is_stmt 0 view .LVU594
 2602 0020 0623     		movs	r3, #6
 2603              		.loc 16 193 15 view .LVU595
 2604 0022 2046     		mov	r0, r4
 2605 0024 8DF80450 		strb	r5, [sp, #4]
 2606 0028 8DF80530 		strb	r3, [sp, #5]
 2607              	.LVL97:
 2608              		.loc 16 193 15 view .LVU596
 2609 002c FFF7FEFF 		bl	_ZNK5daisy9DaisySeed17AudioCallbackRateEv
 2610              	.LVL98:
 2611 0030 0199     		ldr	r1, [sp, #4]
 194:MachineDaisyFile.cpp **** 	initDrums();
 195:MachineDaisyFile.cpp **** 	AdcChannelConfig cfg[3];
ARM GAS  /var/folders/b5/3l92j93d5t1__l78tfntmwyr0000gn/T//ccd9zsAq.s 			page 79


 196:MachineDaisyFile.cpp **** 	cfg[0].InitSingle(BUTTONS);// button array
 197:MachineDaisyFile.cpp **** 	cfg[1].InitSingle(TEMPO);//knob
 198:MachineDaisyFile.cpp **** 	cfg[2].InitSingle(STEP_MODE);// switch
 199:MachineDaisyFile.cpp **** 	hw.adc.Init(cfg,3);
 2612              		.loc 16 199 13 view .LVU597
 2613 0032 1834     		adds	r4, r4, #24
 193:MachineDaisyFile.cpp **** 	initDrums();
 2614              		.loc 16 193 15 view .LVU598
 2615 0034 1848     		ldr	r0, .L129+8
 2616 0036 FFF7FEFF 		bl	_ZN5daisy6Switch4InitE12dsy_gpio_pinf
 2617              	.LVL99:
 194:MachineDaisyFile.cpp **** 	initDrums();
